

Microchip MPLAB XC8 Assembler V2.45 build 20230818022343 
                                                                                               Sun Jun 09 12:10:35 2024

Microchip MPLAB XC8 C Compiler v2.45 (Free license) build 20230818022343 Og9 
     1                           	processor	18F47Q43
     2                           	fnconf	rparam,??,?,0
     3                           	pagewidth 120
     4                           	opt	flic
     5                           	psect	smallconst,global,reloc=2,class=SMALLCONST,delta=1,noexec
     6                           	psect	cinit,global,reloc=2,class=CODE,delta=1
     7                           	psect	bitbssCOMRAM,global,bit,class=COMRAM,space=1,delta=1,lowdata,noexec
     8                           	psect	bssCOMRAM,global,class=COMRAM,space=1,delta=1,lowdata,noexec
     9                           	psect	bssBANK5,global,class=BANK5,space=1,delta=1,lowdata,noexec
    10                           	psect	cstackCOMRAM,global,class=COMRAM,space=1,delta=1,lowdata,noexec
    11                           	psect	text0,global,reloc=2,class=CODE,delta=1
    12                           	psect	text1,global,reloc=2,class=CODE,delta=1
    13                           	psect	text2,global,reloc=2,class=CODE,delta=1
    14                           	psect	text3,global,reloc=2,class=CODE,delta=1
    15                           	psect	text4,global,reloc=2,class=CODE,delta=1
    16                           	psect	text5,global,reloc=2,class=CODE,delta=1
    17                           	psect	text6,global,reloc=2,class=CODE,delta=1
    18                           	psect	text7,global,reloc=2,class=CODE,delta=1
    19                           	psect	text8,global,reloc=2,class=CODE,delta=1
    20                           	psect	text9,global,reloc=2,class=CODE,delta=1
    21                           	psect	text10,global,reloc=2,class=CODE,delta=1,inline
    22                           	psect	text11,global,reloc=2,class=CODE,delta=1
    23                           	psect	text12,global,reloc=2,class=CODE,delta=1
    24                           	psect	text13,global,reloc=2,class=CODE,delta=1
    25                           	psect	text14,global,reloc=2,class=CODE,delta=1
    26                           	psect	text15,global,reloc=2,class=CODE,delta=1
    27                           	psect	text16,global,reloc=2,class=CODE,delta=1
    28                           	psect	text17,global,reloc=2,class=CODE,delta=1
    29                           	psect	text18,global,reloc=2,class=CODE,delta=1
    30                           	psect	text19,global,reloc=2,class=CODE,delta=1
    31                           	psect	text20,global,reloc=2,class=CODE,delta=1
    32                           	psect	text21,global,reloc=2,class=CODE,delta=1
    33                           	psect	text22,global,reloc=2,class=CODE,delta=1
    34                           	psect	text23,global,reloc=2,class=CODE,delta=1
    35                           	psect	text24,global,reloc=2,class=CODE,delta=1
    36                           	psect	text25,global,reloc=2,class=CODE,delta=1
    37                           	psect	text26,global,reloc=2,class=CODE,delta=1
    38                           	psect	text27,global,reloc=2,class=CODE,delta=1
    39                           	psect	text28,global,reloc=2,class=CODE,delta=1
    40                           	psect	text29,global,reloc=2,class=CODE,delta=1
    41                           	psect	text30,global,reloc=2,class=CODE,delta=1
    42                           	psect	text31,global,reloc=2,class=CODE,delta=1,inline
    43                           	psect	text32,global,reloc=2,class=CODE,delta=1
    44                           	psect	text33,global,reloc=2,class=CODE,delta=1
    45                           	psect	text34,global,reloc=2,class=CODE,delta=1
    46                           	psect	text35,global,reloc=2,class=CODE,delta=1
    47                           	psect	text36,global,reloc=4,class=CODE,delta=1
    48                           	psect	text37,global,reloc=2,class=CODE,delta=1
    49                           	psect	text38,global,reloc=2,class=CODE,delta=1,inline
    50                           	psect	text39,global,reloc=2,class=CODE,delta=1
    51                           	psect	text40,global,reloc=2,class=CODE,delta=1
    52                           	psect	text41,global,reloc=2,class=CODE,delta=1
    53                           	psect	text42,global,reloc=2,class=CODE,delta=1
    54                           	psect	text43,global,reloc=2,class=CODE,delta=1
    55                           	psect	text44,global,reloc=2,class=CODE,delta=1
    56                           	psect	text45,global,reloc=2,class=CODE,delta=1
    57                           	psect	text46,global,reloc=2,class=CODE,delta=1,inline
    58                           	psect	text47,global,reloc=2,class=CODE,delta=1,inline
    59                           	psect	text48,global,reloc=2,class=CODE,delta=1,inline
    60                           	psect	text49,global,reloc=4,class=CODE,delta=1
    61                           	psect	text50,global,reloc=2,class=CODE,delta=1
    62                           	psect	text51,global,reloc=2,class=CODE,delta=1
    63                           	psect	text52,global,reloc=2,class=CODE,delta=1
    64                           	psect	text53,global,reloc=2,class=CODE,delta=1
    65                           	psect	text54,global,reloc=2,class=CODE,delta=1
    66                           	psect	text55,global,reloc=2,class=CODE,delta=1
    67                           	psect	text56,global,reloc=2,class=CODE,delta=1,inline
    68                           	psect	text57,global,reloc=2,class=CODE,delta=1,inline
    69                           	psect	text58,global,reloc=2,class=CODE,delta=1,inline
    70                           	psect	text59,global,reloc=4,class=CODE,delta=1
    71                           	psect	text60,global,reloc=2,class=CODE,delta=1
    72                           	psect	text61,global,reloc=4,class=CODE,delta=1
    73                           	psect	text62,global,reloc=4,class=CODE,delta=1
    74                           	psect	text63,global,reloc=4,class=CODE,delta=1
    75                           	psect	text64,global,reloc=4,class=CODE,delta=1
    76                           	psect	text65,global,reloc=4,class=CODE,delta=1
    77                           	psect	text66,global,reloc=4,class=CODE,delta=1
    78                           	psect	text67,global,reloc=4,class=CODE,delta=1
    79                           	psect	ivt0x8,global,reloc=2,class=CODE,delta=1,noexec,keep,optim=
    80                           	psect	intsave_regs,global,class=BIGRAM,space=1,delta=1,noexec
    81                           	psect	text68,global,reloc=4,class=CODE,delta=1
    82                           	psect	rparam,global,class=COMRAM,space=1,delta=1,noexec
    83                           	psect	config,global,abs,ovrld,class=CONFIG,space=4,delta=1,noexec
    84   000000                     
    85                           ; Generated 18/07/2023 GMT
    86                           ; 
    87                           ; Copyright © 2023, Microchip Technology Inc. and its subsidiaries ("Microchip")
    88                           ; All rights reserved.
    89                           ; 
    90                           ; This software is developed by Microchip Technology Inc. and its subsidiaries ("Microch
      +                          ip").
    91                           ; 
    92                           ; Redistribution and use in source and binary forms, with or without modification, are
    93                           ; permitted provided that the following conditions are met:
    94                           ; 
    95                           ;     1. Redistributions of source code must retain the above copyright notice, this lis
      +                          t of
    96                           ;        conditions and the following disclaimer.
    97                           ; 
    98                           ;     2. Redistributions in binary form must reproduce the above copyright notice, this 
      +                          list
    99                           ;        of conditions and the following disclaimer in the documentation and/or other
   100                           ;        materials provided with the distribution. Publication is not required when
   101                           ;        this file is used in an embedded application.
   102                           ; 
   103                           ;     3. Microchip's name may not be used to endorse or promote products derived from th
      +                          is
   104                           ;        software without specific prior written permission.
   105                           ; 
   106                           ; THIS SOFTWARE IS PROVIDED BY MICROCHIP "AS IS" AND ANY EXPRESS OR IMPLIED WARRANTIES,
   107                           ; INCLUDING, BUT NOT LIMITED TO, THE IMPLIED WARRANTIES OF MERCHANTABILITY AND FITNESS F
      +                          OR
   108                           ; PURPOSE ARE DISCLAIMED.  IN NO EVENT SHALL MICROCHIP BE LIABLE FOR ANY DIRECT, INDIREC
      +                          T,
   109                           ; INCIDENTAL, SPECIAL, EXEMPLARY, OR CONSEQUENTIAL DAMAGES (INCLUDING BUT NOT LIMITED TO
   110                           ; PROCUREMENT OF SUBSTITUTE GOODS OR SERVICES; LOSS OF USE, DATA OR PROFITS; OR BUSINESS
   111                           ; INTERRUPTION) HOWSOEVER CAUSED AND ON ANY THEORY OF LIABILITY, WHETHER IN CONTRACT, ST
      +                          RICT
   112                           ; LIABILITY, OR TORT (INCLUDING NEGLIGENCE OR OTHERWISE) ARISING IN ANY WAY OUT OF THE U
      +                          SE OF
   113                           ; THIS SOFTWARE, EVEN IF ADVISED OF THE POSSIBILITY OF SUCH DAMAGE.
   114                           ; 
   115                           ; 
   116                           ; Code-generator required, PIC18F47Q43 Definitions
   117                           ; 
   118                           ; SFR Addresses
   119   000000                     
   120 ;; Function _I2C1_Deinitialize is unused but had its address taken
   121   000000                     
   122 ;; Function _I2C1_Read is unused but had its address taken
   123   000000                     
   124 ;; Function _I2C1_ErrorGet is unused but had its address taken
   125   000000                     
   126 ;; Function _SPI1_Deinitialize is unused but had its address taken
   127   000000                     
   128 ;; Function _SPI1_Close is unused but had its address taken
   129   000000                     
   130 ;; Function _SPI1_BufferWrite is unused but had its address taken
   131   000000                     
   132 ;; Function _SPI1_BufferRead is unused but had its address taken
   133   000000                     
   134 ;; Function _SPI1_ByteExchange is unused but had its address taken
   135   000000                     
   136 ;; Function _SPI1_ByteWrite is unused but had its address taken
   137   000000                     
   138 ;; Function _SPI1_ByteRead is unused but had its address taken
   139   000000                     
   140 ;; Function _SPI1_IsTxReady is unused but had its address taken
   141   000000                     
   142 ;; Function _SPI1_IsRxReady is unused but had its address taken
   143   000000                     
   144                           	psect	smallconst
   145   002500                     __psmallconst:
   146                           	callstack 0
   147   002500  00                 	db	0
   148   002501                     _SPI1_Host:
   149                           	callstack 0
   150   002501  16                 	db	low _SPI1_Initialize
   151   002502  2A                 	db	high _SPI1_Initialize
   152   002503  00                 	db	low (_SPI1_Initialize shr (0+16))
   153   002504  00                 	db	0
   154   002505  00                 	db	0
   155   002506  00                 	db	0
   156   002507  8A                 	db	low _SPI1_Open
   157   002508  25                 	db	high _SPI1_Open
   158   002509  00                 	db	low (_SPI1_Open shr (0+16))
   159   00250A  00                 	db	0
   160   00250B  00                 	db	0
   161   00250C  00                 	db	0
   162   00250D  5A                 	db	low _SPI1_BufferExchange
   163   00250E  2A                 	db	high _SPI1_BufferExchange
   164   00250F  00                 	db	low (_SPI1_BufferExchange shr (0+16))
   165   002510  00                 	db	0
   166   002511  00                 	db	0
   167   002512  00                 	db	0
   168   002513  00                 	db	0
   169   002514  00                 	db	0
   170   002515  00                 	db	0
   171   002516  00                 	db	0
   172   002517  00                 	db	0
   173   002518  00                 	db	0
   174   002519  00                 	db	0
   175   00251A  00                 	db	0
   176   00251B  00                 	db	0
   177   00251C  00                 	db	0
   178   00251D  00                 	db	0
   179   00251E  00                 	db	0
   180   00251F  00                 	db	0
   181   002520  00                 	db	0
   182   002521  00                 	db	0
   183   002522  00                 	db	0
   184   002523  00                 	db	0
   185   002524  00                 	db	0
   186   002525  00                 	db	0
   187   002526  00                 	db	0
   188   002527  00                 	db	0
   189   002528  00                 	db	0
   190   002529  00                 	db	0
   191   00252A  00                 	db	0
   192   00252B                     __end_of_SPI1_Host:
   193                           	callstack 0
   194   00252B                     _I2C1_Host:
   195                           	callstack 0
   196   00252B  6E                 	db	low _I2C1_Initialize
   197   00252C  27                 	db	high _I2C1_Initialize
   198   00252D  00                 	db	low (_I2C1_Initialize shr (0+16))
   199   00252E  00                 	db	0
   200   00252F  00                 	db	0
   201   002530  00                 	db	0
   202   002531  E2                 	db	low _I2C1_Write
   203   002532  2A                 	db	high _I2C1_Write
   204   002533  00                 	db	low (_I2C1_Write shr (0+16))
   205   002534  00                 	db	0
   206   002535  00                 	db	0
   207   002536  00                 	db	0
   208   002537  9E                 	db	low _I2C1_WriteRead
   209   002538  2A                 	db	high _I2C1_WriteRead
   210   002539  00                 	db	low (_I2C1_WriteRead shr (0+16))
   211   00253A  00                 	db	0
   212   00253B  00                 	db	0
   213   00253C  00                 	db	0
   214   00253D  00                 	db	0
   215   00253E  00                 	db	0
   216   00253F  00                 	db	0
   217   002540  F4                 	db	low _I2C1_IsBusy
   218   002541  2E                 	db	high _I2C1_IsBusy
   219   002542  00                 	db	low (_I2C1_IsBusy shr (0+16))
   220   002543  C4                 	db	low _I2C1_CallbackRegister
   221   002544  2E                 	db	high _I2C1_CallbackRegister
   222   002545  00                 	db	low (_I2C1_CallbackRegister shr (0+16))
   223   002546  00                 	db	0
   224   002547  00                 	db	0
   225   002548  00                 	db	0
   226   002549                     __end_of_I2C1_Host:
   227                           	callstack 0
   228   002549  30                 	db	48
   229   00254A  31                 	db	49
   230   00254B  32                 	db	50
   231   00254C  33                 	db	51
   232   00254D  34                 	db	52
   233   00254E  35                 	db	53
   234   00254F  36                 	db	54
   235   002550  37                 	db	55
   236   002551  38                 	db	56
   237   002552  39                 	db	57
   238   002553  41                 	db	65
   239   002554  42                 	db	66
   240   002555  43                 	db	67
   241   002556  44                 	db	68
   242   002557  45                 	db	69
   243   002558  46                 	db	70
   244   002559                     __end_ofEchoHex@hex_table:
   245                           	callstack 0
   246   002559                     _spi1_configuration:
   247                           	callstack 0
   248   002559  02                 	db	2
   249   00255A  40                 	db	64
   250   00255B  00                 	db	0
   251   00255C  03                 	db	3
   252   00255D  00                 	db	0
   253   00255E  02                 	db	2
   254   00255F  40                 	db	64
   255   002560  00                 	db	0
   256   002561  00                 	db	0
   257   002562  00                 	db	0
   258   002563                     __end_of_spi1_configuration:
   259                           	callstack 0
   260   002563                     _acu8_msg_awake:
   261                           	callstack 0
   262   002563  53                 	db	83
   263   002564  74                 	db	116
   264   002565  61                 	db	97
   265   002566  74                 	db	116
   266   002567  75                 	db	117
   267   002568  73                 	db	115
   268   002569  20                 	db	32
   269   00256A  69                 	db	105
   270   00256B  73                 	db	115
   271   00256C  20                 	db	32
   272   00256D  41                 	db	65
   273   00256E  57                 	db	87
   274   00256F  41                 	db	65
   275   002570  4B                 	db	75
   276   002571  45                 	db	69
   277   002572  2E                 	db	46
   278   002573  0D                 	db	13
   279   002574  0A                 	db	10
   280   002575  00                 	db	0
   281   002576                     __end_of_acu8_msg_awake:
   282                           	callstack 0
   283   002576                     _acu8_msg_reset:
   284                           	callstack 0
   285   002576  53                 	db	83
   286   002577  74                 	db	116
   287   002578  61                 	db	97
   288   002579  74                 	db	116
   289   00257A  75                 	db	117
   290   00257B  73                 	db	115
   291   00257C  20                 	db	32
   292   00257D  69                 	db	105
   293   00257E  73                 	db	115
   294   00257F  20                 	db	32
   295   002580  52                 	db	82
   296   002581  45                 	db	69
   297   002582  53                 	db	83
   298   002583  45                 	db	69
   299   002584  54                 	db	84
   300   002585  2E                 	db	46
   301   002586  0D                 	db	13
   302   002587  0A                 	db	10
   303   002588  00                 	db	0
   304   002589                     __end_of_acu8_msg_reset:
   305                           	callstack 0
   306   000000                     _NCO1CON	set	1094
   307   000000                     _NCO1INCL	set	1091
   308   000000                     _NCO1INCH	set	1092
   309   000000                     _NCO1INCU	set	1093
   310   000000                     _RA5PPS	set	518
   311   000000                     _CLCnCON	set	214
   312   000000                     _CLCnPOL	set	215
   313   000000                     _T2CON	set	804
   314   000000                     _I2C1STAT1	set	665
   315   000000                     _I2C1STAT0bits	set	664
   316   000000                     _I2C1ERR	set	663
   317   000000                     _I2C1PIE	set	667
   318   000000                     _I2C1PIR	set	666
   319   000000                     _I2C1CLK	set	668
   320   000000                     _I2C1CON2	set	662
   321   000000                     _I2C1CON1	set	661
   322   000000                     _TRISB0	set	9784
   323   000000                     _CLCnCONbits	set	214
   324   000000                     _SPI1CON0bits	set	132
   325   000000                     _I2C1STAT1bits	set	665
   326   000000                     _I2C1CON1bits	set	661
   327   000000                     _I2C1ERRbits	set	663
   328   000000                     _I2C1PIRbits	set	666
   329   000000                     _I2C1CON0bits	set	660
   330   000000                     _I2C1PIEbits	set	667
   331   000000                     _U3TXEN	set	5773
   332   000000                     _ANSELA	set	1024
   333   000000                     _ANSELA5	set	8197
   334   000000                     _ANSELA4	set	8196
   335   000000                     _WPUB2	set	8266
   336   000000                     _ANSELB2	set	8258
   337   000000                     _WPUB1	set	8265
   338   000000                     _ANSELB1	set	8257
   339   000000                     _ANSELC7	set	8327
   340   000000                     _ANSELC6	set	8326
   341   000000                     _ANSELC5	set	8325
   342   000000                     _ANSELC4	set	8324
   343   000000                     _ANSELA6	set	8198
   344   000000                     _ANSELC3	set	8323
   345   000000                     _TRISA	set	1222
   346   000000                     _LATA	set	1214
   347   000000                     _TRISCbits	set	1224
   348   000000                     _PIR3bits	set	1201
   349   000000                     _TRISA5	set	9781
   350   000000                     _LATA5	set	9717
   351   000000                     _TRISA4	set	9780
   352   000000                     _LATA4	set	9716
   353   000000                     _TRISB2	set	9786
   354   000000                     _TRISB1	set	9785
   355   000000                     _INT0EDG	set	9904
   356   000000                     _TRISC7	set	9799
   357   000000                     _LATC7	set	9735
   358   000000                     _TRISC6	set	9798
   359   000000                     _TRISC5	set	9797
   360   000000                     _TRISC4	set	9796
   361   000000                     _U3RXIE	set	9528
   362   000000                     _TRISA6	set	9782
   363   000000                     _TRISC3	set	9795
   364   000000                     _LATC3	set	9731
   365   000000                     _SPI1RXB	set	128
   366   000000                     _SPI1TXB	set	129
   367   000000                     _SPI1TCNTL	set	130
   368   000000                     _SPI1TCNTH	set	131
   369   000000                     _SPI1CON0	set	132
   370   000000                     _OSCFRQ	set	177
   371   000000                     _RC2PPS	set	531
   372   000000                     _I2C1SCLPPS	set	625
   373   000000                     _RC3I2C	set	647
   374   000000                     _ANSELC2	set	8322
   375   000000                     _ODCONC	set	1042
   376   000000                     _LATC2	set	9730
   377   000000                     _TRISA7	set	9783
   378   000000                     _TRISC2	set	9794
   379   000000                     _GIE	set	9911
   380   000000                     _NCO1ACCL	set	1088
   381   000000                     _NCO1ACCH	set	1089
   382   000000                     _NCO1ACCU	set	1090
   383   000000                     _NCO1CLK	set	1095
   384   000000                     _PIE3bits	set	1185
   385   000000                     _PIE7bits	set	1189
   386   000000                     _INT0IE	set	9464
   387   000000                     _I2C1RXB	set	651
   388   000000                     _I2C1TXB	set	652
   389   000000                     _I2C1CNT	set	653
   390   000000                     _I2C1CON0	set	660
   391   000000                     _U3RXPPS	set	630
   392   000000                     _RC4PPS	set	533
   393   000000                     _RC6PPS	set	535
   394   000000                     _SPI1SDIPPS	set	619
   395   000000                     _RC3PPS	set	532
   396   000000                     _I2C1SDAPPS	set	624
   397   000000                     _U3RXB	set	711
   398   000000                     _T2TMR	set	802
   399   000000                     _T2PR	set	803
   400   000000                     _T2HLT	set	805
   401   000000                     _T2CLKCON	set	806
   402   000000                     _I2C1ADB1	set	655
   403   000000                     _U3TXIE	set	9529
   404   000000                     _TMR2IF	set	9611
   405   000000                     _PIR6bits	set	1204
   406   000000                     _LATA6	set	9718
   407   000000                     _CLCDATA	set	212
   408   000000                     _CLCSELECT	set	213
   409   000000                     _RA4PPS	set	517
   410   000000                     _RA6PPS	set	519
   411   000000                     _T2RST	set	807
   412   000000                     _ANSELA7	set	8199
   413   000000                     _U3TXB	set	713
   414   000000                     _U3BRG	set	724
   415   000000                     _U3RXEN	set	5772
   416   000000                     _INT0IF	set	9592
   417   000000                     _U3ON	set	5783
   418   000000                     _ANSELB0	set	8256
   419   000000                     _CLCIN2PPS	set	611
   420   000000                     _SPI1SCKPPS	set	618
   421   000000                     _SPI1BAUD	set	137
   422   000000                     _SPI1CON2	set	134
   423   000000                     _SPI1CON1	set	133
   424   000000                     _SPI1INTFbits	set	138
   425   000000                     _SPI1CLK	set	140
   426   000000                     _WPUB0	set	8264
   427   000000                     _CLCIN3PPS	set	612
   428   000000                     _CLCnGLS3	set	223
   429   000000                     _CLCnGLS2	set	222
   430   000000                     _CLCnGLS1	set	221
   431   000000                     _CLCnGLS0	set	220
   432   000000                     _CLCnSEL3	set	219
   433   000000                     _CLCnSEL2	set	218
   434   000000                     _CLCnSEL1	set	217
   435   000000                     _CLCnSEL0	set	216
   436   002589  00                 	db	0	; dummy byte at the end
   437   000000                     
   438                           ; #config settings
   439                           
   440                           	psect	cinit
   441   002CE0                     __pcinit:
   442                           	callstack 0
   443   002CE0                     start_initialization:
   444                           	callstack 0
   445   002CE0                     __initialization:
   446                           	callstack 0
   447                           
   448                           ; Clear objects allocated to BANK5 (16 bytes)
   449   002CE0  EE01  F160         	lfsr	0,__pbssBANK5
   450   002CE4  0E10               	movlw	16
   451   002CE6                     clear_0:
   452   002CE6  6AEE               	clrf	postinc0,c
   453   002CE8  06E8               	decf	wreg,f,c
   454   002CEA  E1FD               	bnz	clear_0
   455                           
   456                           ; Clear objects allocated to BITCOMRAM (1 bytes)
   457   002CEC  6A4A               	clrf	(__pbitbssCOMRAM/(0+8))& (0+255),c
   458                           
   459                           ; Clear objects allocated to COMRAM (53 bytes)
   460   002CEE  EE01  F101         	lfsr	0,__pbssCOMRAM
   461   002CF2  0E35               	movlw	53
   462   002CF4                     clear_1:
   463   002CF4  6AEE               	clrf	postinc0,c
   464   002CF6  06E8               	decf	wreg,f,c
   465   002CF8  E1FD               	bnz	clear_1
   466                           
   467                           ;
   468                           ; Setup IVTBASE
   469                           ;
   470   002CFA  0104               	movlb	4
   471   002CFC  0E08               	movlw	(ivt0x8_base shr 0)& (0+255)
   472   002CFE  6F5D               	movwf	93,b
   473   002D00  0E00               	movlw	(ivt0x8_base shr (0+8))& (0+255)
   474   002D02  6F5E               	movwf	94,b
   475   002D04  0E00               	movlw	(ivt0x8_base shr (0+16))& (0+255)
   476   002D06  6F5F               	movwf	95,b
   477   002D08                     end_of_initialization:
   478                           	callstack 0
   479   002D08                     __end_of__initialization:
   480                           	callstack 0
   481   002D08  0100               	movlb	0
   482   002D0A  EFD8  F016         	goto	_main	;jump to C main() function
   483                           
   484                           	psect	bitbssCOMRAM
   485   002A50                     __pbitbssCOMRAM:
   486                           	callstack 0
   487   002A50                     _bit_state:
   488                           	callstack 0
   489   002A50                     	ds	1
   490   002A51                     _bit_flag:
   491                           	callstack 0
   492   002A51                     	ds	1
   493                           
   494                           	psect	bssCOMRAM
   495   000501                     __pbssCOMRAM:
   496                           	callstack 0
   497   000501                     _au8_rx_buffer:
   498                           	callstack 0
   499   000501                     	ds	16
   500   000511                     _i2c1Status:
   501                           	callstack 0
   502   000511                     	ds	13
   503   00051E                     _I2C1_Callback:
   504                           	callstack 0
   505   00051E                     	ds	3
   506   000521                     _u8_data_spi_read:
   507                           	callstack 0
   508   000521                     	ds	1
   509   000522                     _u8_state_spi:
   510                           	callstack 0
   511   000522                     	ds	1
   512   000523                     _u8_state_i2c:
   513                           	callstack 0
   514   000523                     	ds	1
   515   000524                     _u8_count_out:
   516                           	callstack 0
   517   000524                     	ds	1
   518   000525                     _u8_tx_count:
   519                           	callstack 0
   520   000525                     	ds	1
   521   000526                     _u8_tx_tail:
   522                           	callstack 0
   523   000526                     	ds	1
   524   000527                     _u8_tx_head:
   525                           	callstack 0
   526   000527                     	ds	1
   527   000528                     _u8_rx_count:
   528                           	callstack 0
   529   000528                     	ds	1
   530   000529                     _u8_rx_tail:
   531                           	callstack 0
   532   000529                     	ds	1
   533   00052A                     _u8_rx_head:
   534                           	callstack 0
   535   00052A                     	ds	1
   536   00052B                     _u8_sys_counter:
   537                           	callstack 0
   538   00052B                     	ds	1
   539   00052C                     _au8_data_spi_buffer:
   540                           	callstack 0
   541   00052C                     	ds	3
   542   00052F                     _au8_data_i2c_write:
   543                           	callstack 0
   544   00052F                     	ds	2
   545   000531                     _u16_timer_200m:
   546                           	callstack 0
   547   000531                     	ds	2
   548   000533                     _u16_timer_1s:
   549                           	callstack 0
   550   000533                     	ds	2
   551   000535                     _u8_data_i2c_read:
   552                           	callstack 0
   553   000535                     	ds	1
   554                           
   555                           	psect	bssBANK5
   556   000560                     __pbssBANK5:
   557                           	callstack 0
   558   000560                     _au8_tx_buffer:
   559                           	callstack 0
   560   000560                     	ds	16
   561                           
   562                           	psect	cstackCOMRAM
   563   000536                     __pcstackCOMRAM:
   564                           	callstack 0
   565   000536                     i2I2C1_AddrTransmit@addr:
   566                           	callstack 0
   567                           
   568                           ; 1 bytes @ 0x0
   569   000536                     	ds	1
   570   000537                     i2I2C1_CounterSet@counter:
   571                           	callstack 0
   572                           
   573                           ; 1 bytes @ 0x1
   574   000537                     	ds	1
   575   000538                     ??_I2C1_ERROR_ISR:
   576                           
   577                           ; 1 bytes @ 0x2
   578   000538                     	ds	2
   579   00053A                     I2C1_DataTransmit@data:
   580                           	callstack 0
   581                           
   582                           ; 1 bytes @ 0x4
   583   00053A                     	ds	1
   584   00053B                     U3RX_ISR@data:
   585                           	callstack 0
   586                           
   587                           ; 1 bytes @ 0x5
   588   00053B                     	ds	1
   589   00053C                     ??_SPI1_Open:
   590   00053C                     _I2C1_IsBusy$613:
   591                           	callstack 0
   592   00053C                     I2C1_AddrTransmit@addr:
   593                           	callstack 0
   594   00053C                     I2C1_CounterSet@counter:
   595                           	callstack 0
   596   00053C                     UART3_Read@data:
   597                           	callstack 0
   598   00053C                     UART3_Write@data:
   599                           	callstack 0
   600   00053C                     TimerStart@p_timer:
   601                           	callstack 0
   602   00053C                     TimerCheck@p_timer:
   603                           	callstack 0
   604   00053C                     SPI1_BufferExchange@bufferData:
   605                           	callstack 0
   606   00053C                     I2C1_CallbackRegister@callbackHandler:
   607                           	callstack 0
   608                           
   609                           ; 3 bytes @ 0x6
   610   00053C                     	ds	1
   611   00053D                     EchoStr@p_data:
   612                           	callstack 0
   613   00053D                     I2C1_Write@address:
   614                           	callstack 0
   615   00053D                     I2C1_WriteRead@address:
   616                           	callstack 0
   617                           
   618                           ; 2 bytes @ 0x7
   619   00053D                     	ds	1
   620   00053E                     ??_request_in:
   621   00053E                     SPI1_Open@spiConfigIndex:
   622                           	callstack 0
   623   00053E                     TimerCheck@time:
   624                           	callstack 0
   625   00053E                     SPI1_BufferExchange@bufferSize:
   626                           	callstack 0
   627                           
   628                           ; 2 bytes @ 0x8
   629   00053E                     	ds	1
   630   00053F                     I2C1_Write@data:
   631                           	callstack 0
   632   00053F                     I2C1_WriteRead@writeData:
   633                           	callstack 0
   634                           
   635                           ; 2 bytes @ 0x9
   636   00053F                     	ds	1
   637   000540                     request_in@data_recv:
   638                           	callstack 0
   639   000540                     SPI1_BufferExchange@bufferInput:
   640                           	callstack 0
   641                           
   642                           ; 2 bytes @ 0xA
   643   000540                     	ds	1
   644   000541                     I2C1_Write@dataLength:
   645                           	callstack 0
   646   000541                     I2C1_WriteRead@writeLength:
   647                           	callstack 0
   648                           
   649                           ; 2 bytes @ 0xB
   650   000541                     	ds	1
   651   000542                     TimerCheck@ret_val:
   652                           	callstack 0
   653   000542                     MCP23S17_Write@data:
   654                           	callstack 0
   655                           
   656                           ; 1 bytes @ 0xC
   657   000542                     	ds	1
   658   000543                     MCP23017_Write@data:
   659                           	callstack 0
   660   000543                     MCP23S17_Write@reg_addr:
   661                           	callstack 0
   662   000543                     I2C1_WriteRead@readData:
   663                           	callstack 0
   664                           
   665                           ; 2 bytes @ 0xD
   666   000543                     	ds	1
   667   000544                     ??_MCP23S17_UpdateState:
   668   000544                     MCP23017_Write@reg_addr:
   669                           	callstack 0
   670                           
   671                           ; 1 bytes @ 0xE
   672   000544                     	ds	1
   673   000545                     I2C1_WriteRead@readLength:
   674                           	callstack 0
   675                           
   676                           ; 2 bytes @ 0xF
   677   000545                     	ds	2
   678   000547                     ??_MCP23017_UpdateState:
   679                           
   680                           ; 1 bytes @ 0x11
   681   000547                     	ds	2
   682   000549                     loop@chk_val:
   683                           	callstack 0
   684                           
   685                           ; 1 bytes @ 0x13
   686   000549                     	ds	1
   687   00054A                     
   688                           ; 1 bytes @ 0x14
   689 ;;
   690 ;;Main: autosize = 0, tempsize = 0, incstack = 0, save=0
   691 ;;
   692 ;; *************** function _main *****************
   693 ;; Defined at:
   694 ;;		line 83 in file "mmc/system.c"
   695 ;; Parameters:    Size  Location     Type
   696 ;;		None
   697 ;; Auto vars:     Size  Location     Type
   698 ;;		None
   699 ;; Return value:  Size  Location     Type
   700 ;;                  1    wreg      void 
   701 ;; Registers used:
   702 ;;		wreg, fsr2l, fsr2h, status,2, status,0, tblptrl, tblptrh, tblptru, prodl, prodh, cstack
   703 ;; Tracked objects:
   704 ;;		On entry : 0/0
   705 ;;		On exit  : 0/0
   706 ;;		Unchanged: 0/0
   707 ;; Data sizes:     COMRAM   BANK5   BANK6   BANK7   BANK8   BANK9  BANK10  BANK11  BANK12  BANK13  BANK14  BANK15  BANK1
      +6  BANK17  BANK18  BANK19  BANK20  BANK21  BANK22  BANK23  BANK24  BANK25  BANK26  BANK27  BANK28  BANK29  BANK30  BANK3
      +1  BANK32  BANK33  BANK34  BANK35  BANK36
   708 ;;      Params:         0       0       0       0       0       0       0       0       0       0       0       0       
      +0       0       0       0       0       0       0       0       0       0       0       0       0       0       0       
      +0       0       0       0       0       0
   709 ;;      Locals:         0       0       0       0       0       0       0       0       0       0       0       0       
      +0       0       0       0       0       0       0       0       0       0       0       0       0       0       0       
      +0       0       0       0       0       0
   710 ;;      Temps:          0       0       0       0       0       0       0       0       0       0       0       0       
      +0       0       0       0       0       0       0       0       0       0       0       0       0       0       0       
      +0       0       0       0       0       0
   711 ;;      Totals:         0       0       0       0       0       0       0       0       0       0       0       0       
      +0       0       0       0       0       0       0       0       0       0       0       0       0       0       0       
      +0       0       0       0       0       0
   712 ;;Total ram usage:        0 bytes
   713 ;; Hardware stack levels required when called: 9
   714 ;; This function calls:
   715 ;;		_TMR2_Initialize
   716 ;;		_loop
   717 ;;		_setup
   718 ;; This function is called by:
   719 ;;		Startup code after reset
   720 ;; This function uses a non-reentrant model
   721 ;;
   722                           
   723                           	psect	text0
   724   002DB0                     __ptext0:
   725                           	callstack 0
   726   002DB0                     _main:
   727                           	callstack 118
   728                           
   729                           ;mmc/system.c: 85:  OSCFRQ = 0x08;
   730                           
   731                           ;incstack = 0
   732   002DB0  0E08               	movlw	8
   733   002DB2  0100               	movlb	0	; () banked
   734   002DB4  6FB1               	movwf	177,b	;volatile
   735                           
   736                           ; BSR set to: 0
   737                           ;mmc/system.c: 87:  setup();
   738   002DB6  ECF9  F013         	call	_setup	;wreg free
   739                           
   740                           ;mmc/system.c: 89:  GIE = 0;
   741   002DBA  9ED6               	bcf	1238,7,c	;volatile
   742                           
   743                           ;mmc/system.c: 91:  TMR2_Initialize();
   744   002DBC  EC36  F017         	call	_TMR2_Initialize	;wreg free
   745                           
   746                           ; BSR set to: 3
   747                           ;mmc/system.c: 93:  u8_sys_counter = 0;
   748   002DC0  0E00               	movlw	0
   749   002DC2  6E2B               	movwf	_u8_sys_counter^(0+1280),c	;volatile
   750                           
   751                           ; BSR set to: 3
   752                           ;mmc/system.c: 95:  GIE = 1;
   753   002DC4  8ED6               	bsf	1238,7,c	;volatile
   754   002DC6                     l2796:
   755                           
   756                           ;mmc/system.c: 98:   if (u8_sys_counter >= (5)) {
   757   002DC6  0E04               	movlw	4
   758   002DC8  642B               	cpfsgt	_u8_sys_counter^(0+1280),c	;volatile
   759   002DCA  D7FD               	goto	l2796
   760                           
   761                           ;mmc/system.c: 99:    u8_sys_counter = 0;
   762   002DCC  0E00               	movlw	0
   763   002DCE  6E2B               	movwf	_u8_sys_counter^(0+1280),c	;volatile
   764                           
   765                           ;mmc/system.c: 101:    loop();
   766   002DD0  EC30  F014         	call	_loop	;wreg free
   767   002DD4  D7F8               	goto	l2796
   768   002DD6                     __end_of_main:
   769                           	callstack 0
   770                           
   771 ;; *************** function _setup *****************
   772 ;; Defined at:
   773 ;;		line 79 in file "mix_sam04.c"
   774 ;; Parameters:    Size  Location     Type
   775 ;;		None
   776 ;; Auto vars:     Size  Location     Type
   777 ;;		None
   778 ;; Return value:  Size  Location     Type
   779 ;;                  1    wreg      void 
   780 ;; Registers used:
   781 ;;		wreg, fsr2l, fsr2h, status,2, status,0, tblptrl, tblptrh, tblptru, prodl, prodh, cstack
   782 ;; Tracked objects:
   783 ;;		On entry : 3F/0
   784 ;;		On exit  : 0/0
   785 ;;		Unchanged: 0/0
   786 ;; Data sizes:     COMRAM   BANK5   BANK6   BANK7   BANK8   BANK9  BANK10  BANK11  BANK12  BANK13  BANK14  BANK15  BANK1
      +6  BANK17  BANK18  BANK19  BANK20  BANK21  BANK22  BANK23  BANK24  BANK25  BANK26  BANK27  BANK28  BANK29  BANK30  BANK3
      +1  BANK32  BANK33  BANK34  BANK35  BANK36
   787 ;;      Params:         0       0       0       0       0       0       0       0       0       0       0       0       
      +0       0       0       0       0       0       0       0       0       0       0       0       0       0       0       
      +0       0       0       0       0       0
   788 ;;      Locals:         0       0       0       0       0       0       0       0       0       0       0       0       
      +0       0       0       0       0       0       0       0       0       0       0       0       0       0       0       
      +0       0       0       0       0       0
   789 ;;      Temps:          0       0       0       0       0       0       0       0       0       0       0       0       
      +0       0       0       0       0       0       0       0       0       0       0       0       0       0       0       
      +0       0       0       0       0       0
   790 ;;      Totals:         0       0       0       0       0       0       0       0       0       0       0       0       
      +0       0       0       0       0       0       0       0       0       0       0       0       0       0       0       
      +0       0       0       0       0       0
   791 ;;Total ram usage:        0 bytes
   792 ;; Hardware stack levels used: 1
   793 ;; Hardware stack levels required when called: 8
   794 ;; This function calls:
   795 ;;		_CLC1_Enable
   796 ;;		_CLC1_Initialize
   797 ;;		_EchoStr
   798 ;;		_I2C1_Initialize
   799 ;;		_MCP23017_Initialize
   800 ;;		_MCP23S17_Initialize
   801 ;;		_NCO1_Initialize
   802 ;;		_SPI1_Initialize
   803 ;;		_TimerStart
   804 ;;		_UART3_Initialize
   805 ;; This function is called by:
   806 ;;		_main
   807 ;; This function uses a non-reentrant model
   808 ;;
   809                           
   810                           	psect	text1
   811   0027F2                     __ptext1:
   812                           	callstack 0
   813   0027F2                     _setup:
   814                           	callstack 118
   815                           
   816                           ; BSR set to: 0
   817                           ;mix_sam04.c: 81:  ANSELB0 = 0;
   818                           
   819                           ;incstack = 0
   820   0027F2  0104               	movlb	4	; () banked
   821   0027F4  9108               	bcf	8,0,b	;volatile
   822                           
   823                           ;mix_sam04.c: 82:  WPUB0 = 1;
   824   0027F6  8109               	bsf	9,0,b	;volatile
   825                           
   826                           ;mix_sam04.c: 83:  TRISB0 = 1;
   827   0027F8  80C7               	bsf	1223,0,c	;volatile
   828                           
   829                           ;mix_sam04.c: 84:  INT0EDG = 0;
   830   0027FA  90D6               	bcf	1238,0,c	;volatile
   831                           
   832                           ;mix_sam04.c: 85:  INT0IF = 0;
   833   0027FC  90AF               	bcf	1199,0,c	;volatile
   834                           
   835                           ;mix_sam04.c: 86:  INT0IE = 1;
   836   0027FE  809F               	bsf	1183,0,c	;volatile
   837                           
   838                           ; BSR set to: 4
   839                           ;mix_sam04.c: 89:  ANSELA = 0xF0;
   840   002800  0EF0               	movlw	240
   841   002802  6F00               	movwf	0,b	;volatile
   842                           
   843                           ;mix_sam04.c: 90:  LATA = 0x00;
   844   002804  0E00               	movlw	0
   845   002806  6EBE               	movwf	190,c	;volatile
   846                           
   847                           ;mix_sam04.c: 91:  TRISA = 0xF0;
   848   002808  0EF0               	movlw	240
   849   00280A  6EC6               	movwf	198,c	;volatile
   850                           
   851                           ; BSR set to: 4
   852                           ;mix_sam04.c: 94:  UART3_Initialize();
   853   00280C  ECE8  F014         	call	_UART3_Initialize	;wreg free
   854                           
   855                           ; BSR set to: 2
   856                           ;mix_sam04.c: 96:  I2C1_Initialize();
   857   002810  ECB7  F013         	call	_I2C1_Initialize	;wreg free
   858                           
   859                           ; BSR set to: 2
   860                           ;mix_sam04.c: 98:  SPI1_Initialize();
   861   002814  EC0B  F015         	call	_SPI1_Initialize	;wreg free
   862                           
   863                           ; BSR set to: 0
   864                           ;mix_sam04.c: 100:  CLC1_Initialize();
   865   002818  EC95  F014         	call	_CLC1_Initialize	;wreg free
   866                           
   867                           ; BSR set to: 0
   868                           ;mix_sam04.c: 102:  NCO1_Initialize();
   869   00281C  EC26  F016         	call	_NCO1_Initialize	;wreg free
   870                           
   871                           ; BSR set to: 4
   872                           ;mix_sam04.c: 105:  u8_count_out = 0x00;
   873   002820  0E00               	movlw	0
   874   002822  6E24               	movwf	_u8_count_out^(0+1280),c	;volatile
   875                           
   876                           ; BSR set to: 4
   877                           ;mix_sam04.c: 106:  bit_flag = 0;
   878   002824  924A               	bcf	(_bit_flag/(0+8))^(0+1280),_bit_flag& (0+7),c
   879                           
   880                           ; BSR set to: 4
   881                           ;mix_sam04.c: 107:  bit_state = 1;
   882   002826  804A               	bsf	(_bit_state/(0+8))^(0+1280),_bit_state& (0+7),c
   883                           
   884                           ; BSR set to: 4
   885                           ;mix_sam04.c: 108:  u8_state_i2c = STATE_WAIT_READ;
   886   002828  0E00               	movlw	0
   887   00282A  6E23               	movwf	_u8_state_i2c^(0+1280),c
   888                           
   889                           ; BSR set to: 4
   890                           ;mix_sam04.c: 109:  u8_state_spi = STATE_WAIT_READ;
   891   00282C  0E00               	movlw	0
   892   00282E  6E22               	movwf	_u8_state_spi^(0+1280),c
   893                           
   894                           ; BSR set to: 4
   895                           ;mix_sam04.c: 112:  GIE = 1;
   896   002830  8ED6               	bsf	1238,7,c	;volatile
   897                           
   898                           ; BSR set to: 4
   899                           ;mix_sam04.c: 115:  EchoStr((char *)&acu8_msg_reset[0]);
   900   002832  0E76               	movlw	low _acu8_msg_reset
   901   002834  6E3D               	movwf	EchoStr@p_data^(0+1280),c
   902   002836  EC58  F016         	call	_EchoStr	;wreg free
   903                           
   904                           ;mix_sam04.c: 117:  MCP23017_Initialize();
   905   00283A  EC0C  F016         	call	_MCP23017_Initialize	;wreg free
   906                           
   907                           ;mix_sam04.c: 119:  MCP23S17_Initialize();
   908   00283E  ECD1  F015         	call	_MCP23S17_Initialize	;wreg free
   909                           
   910                           ; BSR set to: 0
   911                           ;mix_sam04.c: 121:  CLC1_Enable();
   912   002842  EC11  F018         	call	_CLC1_Enable	;wreg free
   913                           
   914                           ; BSR set to: 0
   915                           ;mix_sam04.c: 124:  TimerStart(&u16_timer_1s);
   916   002846  0E33               	movlw	low _u16_timer_1s
   917   002848  6E3C               	movwf	TimerStart@p_timer^(0+1280),c
   918   00284A  0E05               	movlw	high _u16_timer_1s
   919   00284C  6E3D               	movwf	(TimerStart@p_timer+1)^(0+1280),c
   920   00284E  ECB5  F017         	call	_TimerStart	;wreg free
   921                           
   922                           ;mix_sam04.c: 126:  TimerStart(&u16_timer_200m);
   923   002852  0E31               	movlw	low _u16_timer_200m
   924   002854  6E3C               	movwf	TimerStart@p_timer^(0+1280),c
   925   002856  0E05               	movlw	high _u16_timer_200m
   926   002858  6E3D               	movwf	(TimerStart@p_timer+1)^(0+1280),c
   927   00285A  ECB5  F017         	call	_TimerStart	;wreg free
   928   00285E  0012               	return		;funcret
   929   002860                     __end_of_setup:
   930                           	callstack 0
   931                           
   932 ;; *************** function _UART3_Initialize *****************
   933 ;; Defined at:
   934 ;;		line 45 in file "mmc/uart3.c"
   935 ;; Parameters:    Size  Location     Type
   936 ;;		None
   937 ;; Auto vars:     Size  Location     Type
   938 ;;		None
   939 ;; Return value:  Size  Location     Type
   940 ;;                  1    wreg      void 
   941 ;; Registers used:
   942 ;;		wreg, status,2
   943 ;; Tracked objects:
   944 ;;		On entry : 3F/4
   945 ;;		On exit  : 3F/2
   946 ;;		Unchanged: 0/0
   947 ;; Data sizes:     COMRAM   BANK5   BANK6   BANK7   BANK8   BANK9  BANK10  BANK11  BANK12  BANK13  BANK14  BANK15  BANK1
      +6  BANK17  BANK18  BANK19  BANK20  BANK21  BANK22  BANK23  BANK24  BANK25  BANK26  BANK27  BANK28  BANK29  BANK30  BANK3
      +1  BANK32  BANK33  BANK34  BANK35  BANK36
   948 ;;      Params:         0       0       0       0       0       0       0       0       0       0       0       0       
      +0       0       0       0       0       0       0       0       0       0       0       0       0       0       0       
      +0       0       0       0       0       0
   949 ;;      Locals:         0       0       0       0       0       0       0       0       0       0       0       0       
      +0       0       0       0       0       0       0       0       0       0       0       0       0       0       0       
      +0       0       0       0       0       0
   950 ;;      Temps:          0       0       0       0       0       0       0       0       0       0       0       0       
      +0       0       0       0       0       0       0       0       0       0       0       0       0       0       0       
      +0       0       0       0       0       0
   951 ;;      Totals:         0       0       0       0       0       0       0       0       0       0       0       0       
      +0       0       0       0       0       0       0       0       0       0       0       0       0       0       0       
      +0       0       0       0       0       0
   952 ;;Total ram usage:        0 bytes
   953 ;; Hardware stack levels used: 1
   954 ;; Hardware stack levels required when called: 3
   955 ;; This function calls:
   956 ;;		Nothing
   957 ;; This function is called by:
   958 ;;		_setup
   959 ;; This function uses a non-reentrant model
   960 ;;
   961                           
   962                           	psect	text2
   963   0029D0                     __ptext2:
   964                           	callstack 0
   965   0029D0                     _UART3_Initialize:
   966                           	callstack 122
   967                           
   968                           ; BSR set to: 4
   969                           ;mmc/uart3.c: 47:  U3BRG = (416);
   970                           
   971                           ;incstack = 0
   972   0029D0  0E01               	movlw	1
   973   0029D2  0102               	movlb	2	; () banked
   974   0029D4  6FD5               	movwf	213,b	;volatile
   975   0029D6  0EA0               	movlw	160
   976   0029D8  6FD4               	movwf	212,b	;volatile
   977                           
   978                           ; BSR set to: 2
   979                           ;mmc/uart3.c: 48:  U3RXEN = 1;
   980   0029DA  89D1               	bsf	209,4,b	;volatile
   981                           
   982                           ; BSR set to: 2
   983                           ;mmc/uart3.c: 49:  U3TXEN = 1;
   984   0029DC  8BD1               	bsf	209,5,b	;volatile
   985                           
   986                           ; BSR set to: 2
   987                           ;mmc/uart3.c: 51:  ANSELA7 = 0;
   988   0029DE  0104               	movlb	4	; () banked
   989   0029E0  9F00               	bcf	0,7,b	;volatile
   990                           
   991                           ; BSR set to: 4
   992                           ;mmc/uart3.c: 52:  TRISA7 = 1;
   993   0029E2  8EC6               	bsf	1222,7,c	;volatile
   994                           
   995                           ;mmc/uart3.c: 53:  U3RXPPS = 0x07;
   996   0029E4  0E07               	movlw	7
   997   0029E6  0102               	movlb	2	; () banked
   998   0029E8  6F76               	movwf	118,b	;volatile
   999                           
  1000                           ; BSR set to: 2
  1001                           ;mmc/uart3.c: 55:  ANSELA6 = 0;
  1002   0029EA  0104               	movlb	4	; () banked
  1003   0029EC  9D00               	bcf	0,6,b	;volatile
  1004                           
  1005                           ; BSR set to: 4
  1006                           ;mmc/uart3.c: 56:  LATA6 = 1;
  1007   0029EE  8CBE               	bsf	1214,6,c	;volatile
  1008                           
  1009                           ; BSR set to: 4
  1010                           ;mmc/uart3.c: 57:  TRISA6 = 0;
  1011   0029F0  9CC6               	bcf	1222,6,c	;volatile
  1012                           
  1013                           ;mmc/uart3.c: 58:  RA6PPS = 0x26;
  1014   0029F2  0E26               	movlw	38
  1015   0029F4  0102               	movlb	2	; () banked
  1016   0029F6  6F07               	movwf	7,b	;volatile
  1017                           
  1018                           ; BSR set to: 2
  1019                           ;mmc/uart3.c: 60:  U3ON = 1;
  1020   0029F8  8FD2               	bsf	210,7,b	;volatile
  1021                           
  1022                           ; BSR set to: 2
  1023                           ;mmc/uart3.c: 61:  U3RXIE = 1;
  1024   0029FA  80A7               	bsf	1191,0,c	;volatile
  1025                           
  1026                           ;mmc/uart3.c: 64:  u8_rx_head = 0;
  1027   0029FC  0E00               	movlw	0
  1028   0029FE  6E2A               	movwf	_u8_rx_head^(0+1280),c	;volatile
  1029                           
  1030                           ;mmc/uart3.c: 65:  u8_rx_tail = 0;
  1031   002A00  0E00               	movlw	0
  1032   002A02  6E29               	movwf	_u8_rx_tail^(0+1280),c	;volatile
  1033                           
  1034                           ;mmc/uart3.c: 66:  u8_rx_count = 0;
  1035   002A04  0E00               	movlw	0
  1036   002A06  6E28               	movwf	_u8_rx_count^(0+1280),c	;volatile
  1037                           
  1038                           ;mmc/uart3.c: 67:  u8_tx_head = 0;
  1039   002A08  0E00               	movlw	0
  1040   002A0A  6E27               	movwf	_u8_tx_head^(0+1280),c	;volatile
  1041                           
  1042                           ;mmc/uart3.c: 68:  u8_tx_tail = 0;
  1043   002A0C  0E00               	movlw	0
  1044   002A0E  6E26               	movwf	_u8_tx_tail^(0+1280),c	;volatile
  1045                           
  1046                           ;mmc/uart3.c: 69:  u8_tx_count = 0;
  1047   002A10  0E00               	movlw	0
  1048   002A12  6E25               	movwf	_u8_tx_count^(0+1280),c	;volatile
  1049                           
  1050                           ; BSR set to: 2
  1051   002A14  0012               	return		;funcret
  1052   002A16                     __end_of_UART3_Initialize:
  1053                           	callstack 0
  1054                           
  1055 ;; *************** function _SPI1_Initialize *****************
  1056 ;; Defined at:
  1057 ;;		line 68 in file "mmc/spi1.c"
  1058 ;; Parameters:    Size  Location     Type
  1059 ;;		None
  1060 ;; Auto vars:     Size  Location     Type
  1061 ;;		None
  1062 ;; Return value:  Size  Location     Type
  1063 ;;                  1    wreg      void 
  1064 ;; Registers used:
  1065 ;;		wreg, status,2
  1066 ;; Tracked objects:
  1067 ;;		On entry : 3F/2
  1068 ;;		On exit  : 3F/0
  1069 ;;		Unchanged: 0/0
  1070 ;; Data sizes:     COMRAM   BANK5   BANK6   BANK7   BANK8   BANK9  BANK10  BANK11  BANK12  BANK13  BANK14  BANK15  BANK1
      +6  BANK17  BANK18  BANK19  BANK20  BANK21  BANK22  BANK23  BANK24  BANK25  BANK26  BANK27  BANK28  BANK29  BANK30  BANK3
      +1  BANK32  BANK33  BANK34  BANK35  BANK36
  1071 ;;      Params:         0       0       0       0       0       0       0       0       0       0       0       0       
      +0       0       0       0       0       0       0       0       0       0       0       0       0       0       0       
      +0       0       0       0       0       0
  1072 ;;      Locals:         0       0       0       0       0       0       0       0       0       0       0       0       
      +0       0       0       0       0       0       0       0       0       0       0       0       0       0       0       
      +0       0       0       0       0       0
  1073 ;;      Temps:          0       0       0       0       0       0       0       0       0       0       0       0       
      +0       0       0       0       0       0       0       0       0       0       0       0       0       0       0       
      +0       0       0       0       0       0
  1074 ;;      Totals:         0       0       0       0       0       0       0       0       0       0       0       0       
      +0       0       0       0       0       0       0       0       0       0       0       0       0       0       0       
      +0       0       0       0       0       0
  1075 ;;Total ram usage:        0 bytes
  1076 ;; Hardware stack levels used: 1
  1077 ;; Hardware stack levels required when called: 3
  1078 ;; This function calls:
  1079 ;;		Nothing
  1080 ;; This function is called by:
  1081 ;;		_setup
  1082 ;; This function uses a non-reentrant model
  1083 ;;
  1084                           
  1085                           	psect	text3
  1086   002A16                     __ptext3:
  1087                           	callstack 0
  1088   002A16                     _SPI1_Initialize:
  1089                           	callstack 122
  1090                           
  1091                           ; BSR set to: 2
  1092                           ;mmc/spi1.c: 71:  ANSELC4 = 0;
  1093                           
  1094                           ; BSR set to: 2
  1095                           ;incstack = 0
  1096   002A16  0104               	movlb	4	; () banked
  1097   002A18  9910               	bcf	16,4,b	;volatile
  1098                           
  1099                           ;mmc/spi1.c: 72:  TRISC4 = 1;
  1100   002A1A  88C8               	bsf	1224,4,c	;volatile
  1101                           
  1102                           ;mmc/spi1.c: 74:  ANSELC5 = 0;
  1103   002A1C  9B10               	bcf	16,5,b	;volatile
  1104                           
  1105                           ;mmc/spi1.c: 75:  TRISC5 = 1;
  1106   002A1E  8AC8               	bsf	1224,5,c	;volatile
  1107                           
  1108                           ;mmc/spi1.c: 77:  ANSELC6 = 0;
  1109   002A20  9D10               	bcf	16,6,b	;volatile
  1110                           
  1111                           ;mmc/spi1.c: 78:  TRISC6 = 1;
  1112   002A22  8CC8               	bsf	1224,6,c	;volatile
  1113                           
  1114                           ;mmc/spi1.c: 80:  ANSELC7 = 0;
  1115   002A24  9F10               	bcf	16,7,b	;volatile
  1116                           
  1117                           ;mmc/spi1.c: 81:  LATC7 = 1;
  1118   002A26  8EC0               	bsf	1216,7,c	;volatile
  1119                           
  1120                           ;mmc/spi1.c: 82:  TRISC7 = 0;
  1121   002A28  9EC8               	bcf	1224,7,c	;volatile
  1122                           
  1123                           ; BSR set to: 4
  1124                           ;mmc/spi1.c: 84:     SPI1SDIPPS = 0x15;
  1125   002A2A  0E15               	movlw	21
  1126   002A2C  0102               	movlb	2	; () banked
  1127   002A2E  6F6B               	movwf	107,b	;volatile
  1128                           
  1129                           ;mmc/spi1.c: 85:     RC6PPS = 0x32;
  1130   002A30  0E32               	movlw	50
  1131   002A32  6F17               	movwf	23,b	;volatile
  1132                           
  1133                           ;mmc/spi1.c: 86:     SPI1SCKPPS = 0x14;
  1134   002A34  0E14               	movlw	20
  1135   002A36  6F6A               	movwf	106,b	;volatile
  1136                           
  1137                           ;mmc/spi1.c: 87:     RC4PPS = 0x31;
  1138   002A38  0E31               	movlw	49
  1139   002A3A  6F15               	movwf	21,b	;volatile
  1140                           
  1141                           ; BSR set to: 2
  1142                           ;mmc/spi1.c: 90:     PIE3bits.SPI1IE = 0U;
  1143   002A3C  94A1               	bcf	161,2,c	;volatile
  1144                           
  1145                           ; BSR set to: 2
  1146                           ;mmc/spi1.c: 91:     PIE3bits.SPI1TXIE = 0U;
  1147   002A3E  92A1               	bcf	161,1,c	;volatile
  1148                           
  1149                           ; BSR set to: 2
  1150                           ;mmc/spi1.c: 92:     PIE3bits.SPI1RXIE = 0U;
  1151   002A40  90A1               	bcf	161,0,c	;volatile
  1152                           
  1153                           ;mmc/spi1.c: 95:     SPI1CON0 = 0x00U;
  1154   002A42  0E00               	movlw	0
  1155   002A44  0100               	movlb	0	; () banked
  1156   002A46  6F84               	movwf	132,b	;volatile
  1157                           
  1158                           ;mmc/spi1.c: 96:     SPI1CON1 = 0x00U;
  1159   002A48  0E00               	movlw	0
  1160   002A4A  6F85               	movwf	133,b	;volatile
  1161                           
  1162                           ;mmc/spi1.c: 97:     SPI1CON2 = 0x00U;
  1163   002A4C  0E00               	movlw	0
  1164   002A4E  6F86               	movwf	134,b	;volatile
  1165                           
  1166                           ;mmc/spi1.c: 98:     SPI1BAUD = 0x00U;
  1167   002A50  0E00               	movlw	0
  1168   002A52  6F89               	movwf	137,b	;volatile
  1169                           
  1170                           ;mmc/spi1.c: 99:     SPI1CLK = 0x00U;
  1171   002A54  0E00               	movlw	0
  1172   002A56  6F8C               	movwf	140,b	;volatile
  1173                           
  1174                           ; BSR set to: 0
  1175   002A58  0012               	return		;funcret
  1176   002A5A                     __end_of_SPI1_Initialize:
  1177                           	callstack 0
  1178                           
  1179 ;; *************** function _NCO1_Initialize *****************
  1180 ;; Defined at:
  1181 ;;		line 37 in file "mmc/nco1.c"
  1182 ;; Parameters:    Size  Location     Type
  1183 ;;		None
  1184 ;; Auto vars:     Size  Location     Type
  1185 ;;		None
  1186 ;; Return value:  Size  Location     Type
  1187 ;;                  1    wreg      void 
  1188 ;; Registers used:
  1189 ;;		wreg, status,2
  1190 ;; Tracked objects:
  1191 ;;		On entry : 3F/0
  1192 ;;		On exit  : 3F/4
  1193 ;;		Unchanged: 0/0
  1194 ;; Data sizes:     COMRAM   BANK5   BANK6   BANK7   BANK8   BANK9  BANK10  BANK11  BANK12  BANK13  BANK14  BANK15  BANK1
      +6  BANK17  BANK18  BANK19  BANK20  BANK21  BANK22  BANK23  BANK24  BANK25  BANK26  BANK27  BANK28  BANK29  BANK30  BANK3
      +1  BANK32  BANK33  BANK34  BANK35  BANK36
  1195 ;;      Params:         0       0       0       0       0       0       0       0       0       0       0       0       
      +0       0       0       0       0       0       0       0       0       0       0       0       0       0       0       
      +0       0       0       0       0       0
  1196 ;;      Locals:         0       0       0       0       0       0       0       0       0       0       0       0       
      +0       0       0       0       0       0       0       0       0       0       0       0       0       0       0       
      +0       0       0       0       0       0
  1197 ;;      Temps:          0       0       0       0       0       0       0       0       0       0       0       0       
      +0       0       0       0       0       0       0       0       0       0       0       0       0       0       0       
      +0       0       0       0       0       0
  1198 ;;      Totals:         0       0       0       0       0       0       0       0       0       0       0       0       
      +0       0       0       0       0       0       0       0       0       0       0       0       0       0       0       
      +0       0       0       0       0       0
  1199 ;;Total ram usage:        0 bytes
  1200 ;; Hardware stack levels used: 1
  1201 ;; Hardware stack levels required when called: 3
  1202 ;; This function calls:
  1203 ;;		Nothing
  1204 ;; This function is called by:
  1205 ;;		_setup
  1206 ;; This function uses a non-reentrant model
  1207 ;;
  1208                           
  1209                           	psect	text4
  1210   002C4C                     __ptext4:
  1211                           	callstack 0
  1212   002C4C                     _NCO1_Initialize:
  1213                           	callstack 122
  1214                           
  1215                           ; BSR set to: 0
  1216                           ;mmc/nco1.c: 39:  ANSELA5 = 0;
  1217                           
  1218                           ; BSR set to: 0
  1219                           ;incstack = 0
  1220   002C4C  0104               	movlb	4	; () banked
  1221   002C4E  9B00               	bcf	0,5,b	;volatile
  1222                           
  1223                           ;mmc/nco1.c: 40:  LATA5 = 0;
  1224   002C50  9ABE               	bcf	1214,5,c	;volatile
  1225                           
  1226                           ;mmc/nco1.c: 41:  TRISA5 = 0;
  1227   002C52  9AC6               	bcf	1222,5,c	;volatile
  1228                           
  1229                           ; BSR set to: 4
  1230                           ;mmc/nco1.c: 43:     RA5PPS = 0x3F;
  1231   002C54  0E3F               	movlw	63
  1232   002C56  0102               	movlb	2	; () banked
  1233   002C58  6F06               	movwf	6,b	;volatile
  1234                           
  1235                           ;mmc/nco1.c: 46:     NCO1CLK = 0x2;
  1236   002C5A  0E02               	movlw	2
  1237   002C5C  0104               	movlb	4	; () banked
  1238   002C5E  6F47               	movwf	71,b	;volatile
  1239                           
  1240                           ;mmc/nco1.c: 48:     NCO1ACCU = 0x0;
  1241   002C60  0E00               	movlw	0
  1242   002C62  6F42               	movwf	66,b	;volatile
  1243                           
  1244                           ;mmc/nco1.c: 50:     NCO1ACCH = 0x0;
  1245   002C64  0E00               	movlw	0
  1246   002C66  6F41               	movwf	65,b	;volatile
  1247                           
  1248                           ;mmc/nco1.c: 52:     NCO1ACCL = 0x0;
  1249   002C68  0E00               	movlw	0
  1250   002C6A  6F40               	movwf	64,b	;volatile
  1251                           
  1252                           ;mmc/nco1.c: 54:     NCO1INCU = 0x0;
  1253   002C6C  0E00               	movlw	0
  1254   002C6E  6F45               	movwf	69,b	;volatile
  1255                           
  1256                           ;mmc/nco1.c: 56:     NCO1INCH = 0x0;
  1257   002C70  0E00               	movlw	0
  1258   002C72  6F44               	movwf	68,b	;volatile
  1259                           
  1260                           ;mmc/nco1.c: 58:     NCO1INCL = 0x87;
  1261   002C74  0E87               	movlw	135
  1262   002C76  6F43               	movwf	67,b	;volatile
  1263                           
  1264                           ;mmc/nco1.c: 60:     NCO1CON = 0x80;
  1265   002C78  0E80               	movlw	128
  1266   002C7A  6F46               	movwf	70,b	;volatile
  1267                           
  1268                           ; BSR set to: 4
  1269   002C7C  0012               	return		;funcret
  1270   002C7E                     __end_of_NCO1_Initialize:
  1271                           	callstack 0
  1272                           
  1273 ;; *************** function _MCP23S17_Initialize *****************
  1274 ;; Defined at:
  1275 ;;		line 194 in file "mix_sam04.c"
  1276 ;; Parameters:    Size  Location     Type
  1277 ;;		None
  1278 ;; Auto vars:     Size  Location     Type
  1279 ;;		None
  1280 ;; Return value:  Size  Location     Type
  1281 ;;                  1    wreg      void 
  1282 ;; Registers used:
  1283 ;;		wreg, fsr2l, fsr2h, status,2, status,0, tblptrl, tblptrh, tblptru, prodl, prodh, cstack
  1284 ;; Tracked objects:
  1285 ;;		On entry : 0/4
  1286 ;;		On exit  : 3F/0
  1287 ;;		Unchanged: 0/0
  1288 ;; Data sizes:     COMRAM   BANK5   BANK6   BANK7   BANK8   BANK9  BANK10  BANK11  BANK12  BANK13  BANK14  BANK15  BANK1
      +6  BANK17  BANK18  BANK19  BANK20  BANK21  BANK22  BANK23  BANK24  BANK25  BANK26  BANK27  BANK28  BANK29  BANK30  BANK3
      +1  BANK32  BANK33  BANK34  BANK35  BANK36
  1289 ;;      Params:         0       0       0       0       0       0       0       0       0       0       0       0       
      +0       0       0       0       0       0       0       0       0       0       0       0       0       0       0       
      +0       0       0       0       0       0
  1290 ;;      Locals:         0       0       0       0       0       0       0       0       0       0       0       0       
      +0       0       0       0       0       0       0       0       0       0       0       0       0       0       0       
      +0       0       0       0       0       0
  1291 ;;      Temps:          0       0       0       0       0       0       0       0       0       0       0       0       
      +0       0       0       0       0       0       0       0       0       0       0       0       0       0       0       
      +0       0       0       0       0       0
  1292 ;;      Totals:         0       0       0       0       0       0       0       0       0       0       0       0       
      +0       0       0       0       0       0       0       0       0       0       0       0       0       0       0       
      +0       0       0       0       0       0
  1293 ;;Total ram usage:        0 bytes
  1294 ;; Hardware stack levels used: 1
  1295 ;; Hardware stack levels required when called: 5
  1296 ;; This function calls:
  1297 ;;		_MCP23S17_Write
  1298 ;;		_SPI1_Open
  1299 ;; This function is called by:
  1300 ;;		_setup
  1301 ;; This function uses a non-reentrant model
  1302 ;;
  1303                           
  1304                           	psect	text5
  1305   002BA2                     __ptext5:
  1306                           	callstack 0
  1307   002BA2                     _MCP23S17_Initialize:
  1308                           	callstack 120
  1309                           
  1310                           ;mix_sam04.c: 195:  LATC7 = 1;
  1311                           
  1312                           ; BSR set to: 4
  1313                           ;incstack = 0
  1314   002BA2  8EC0               	bsf	1216,7,c	;volatile
  1315                           
  1316                           ;mix_sam04.c: 196:  SPI1_Open(HOST_CONFIG);
  1317   002BA4  0E00               	movlw	0
  1318   002BA6  ECC5  F012         	call	_SPI1_Open
  1319                           
  1320                           ; BSR set to: 0
  1321                           ;mix_sam04.c: 198:  MCP23S17_Write((0x0A), 0x00);
  1322   002BAA  0E00               	movlw	0
  1323   002BAC  6E42               	movwf	MCP23S17_Write@data^(0+1280),c
  1324   002BAE  0E0A               	movlw	10
  1325   002BB0  EC9C  F016         	call	_MCP23S17_Write
  1326                           
  1327                           ; BSR set to: 0
  1328                           ;mix_sam04.c: 200:  MCP23S17_Write((0x00), 0xFF);
  1329   002BB4  0EFF               	movlw	255
  1330   002BB6  6E42               	movwf	MCP23S17_Write@data^(0+1280),c
  1331   002BB8  0E00               	movlw	0
  1332   002BBA  EC9C  F016         	call	_MCP23S17_Write
  1333                           
  1334                           ; BSR set to: 0
  1335                           ;mix_sam04.c: 201:  MCP23S17_Write((0x0C), 0x0F);
  1336   002BBE  0E0F               	movlw	15
  1337   002BC0  6E42               	movwf	MCP23S17_Write@data^(0+1280),c
  1338   002BC2  0E0C               	movlw	12
  1339   002BC4  EC9C  F016         	call	_MCP23S17_Write
  1340                           
  1341                           ; BSR set to: 0
  1342                           ;mix_sam04.c: 203:  MCP23S17_Write((0x01), 0xF0);
  1343   002BC8  0EF0               	movlw	240
  1344   002BCA  6E42               	movwf	MCP23S17_Write@data^(0+1280),c
  1345   002BCC  0E01               	movlw	1
  1346   002BCE  EC9C  F016         	call	_MCP23S17_Write
  1347                           
  1348                           ; BSR set to: 0
  1349                           ;mix_sam04.c: 204:  MCP23S17_Write((0x15), 0x00);
  1350   002BD2  0E00               	movlw	0
  1351   002BD4  6E42               	movwf	MCP23S17_Write@data^(0+1280),c
  1352   002BD6  0E15               	movlw	21
  1353   002BD8  EC9C  F016         	call	_MCP23S17_Write
  1354                           
  1355                           ; BSR set to: 0
  1356   002BDC  0012               	return		;funcret
  1357   002BDE                     __end_of_MCP23S17_Initialize:
  1358                           	callstack 0
  1359                           
  1360 ;; *************** function _SPI1_Open *****************
  1361 ;; Defined at:
  1362 ;;		line 107 in file "mmc/spi1.c"
  1363 ;; Parameters:    Size  Location     Type
  1364 ;;  spiConfigInd    1    wreg     unsigned char 
  1365 ;; Auto vars:     Size  Location     Type
  1366 ;;  spiConfigInd    1    8[COMRAM] unsigned char 
  1367 ;;  returnValue     1    0        _Bool 
  1368 ;; Return value:  Size  Location     Type
  1369 ;;                  1    wreg      _Bool 
  1370 ;; Registers used:
  1371 ;;		wreg, status,2, status,0, tblptrl, tblptrh, tblptru, prodl, prodh
  1372 ;; Tracked objects:
  1373 ;;		On entry : 0/4
  1374 ;;		On exit  : 3F/0
  1375 ;;		Unchanged: 0/0
  1376 ;; Data sizes:     COMRAM   BANK5   BANK6   BANK7   BANK8   BANK9  BANK10  BANK11  BANK12  BANK13  BANK14  BANK15  BANK1
      +6  BANK17  BANK18  BANK19  BANK20  BANK21  BANK22  BANK23  BANK24  BANK25  BANK26  BANK27  BANK28  BANK29  BANK30  BANK3
      +1  BANK32  BANK33  BANK34  BANK35  BANK36
  1377 ;;      Params:         0       0       0       0       0       0       0       0       0       0       0       0       
      +0       0       0       0       0       0       0       0       0       0       0       0       0       0       0       
      +0       0       0       0       0       0
  1378 ;;      Locals:         1       0       0       0       0       0       0       0       0       0       0       0       
      +0       0       0       0       0       0       0       0       0       0       0       0       0       0       0       
      +0       0       0       0       0       0
  1379 ;;      Temps:          2       0       0       0       0       0       0       0       0       0       0       0       
      +0       0       0       0       0       0       0       0       0       0       0       0       0       0       0       
      +0       0       0       0       0       0
  1380 ;;      Totals:         3       0       0       0       0       0       0       0       0       0       0       0       
      +0       0       0       0       0       0       0       0       0       0       0       0       0       0       0       
      +0       0       0       0       0       0
  1381 ;;Total ram usage:        3 bytes
  1382 ;; Hardware stack levels used: 1
  1383 ;; Hardware stack levels required when called: 3
  1384 ;; This function calls:
  1385 ;;		Nothing
  1386 ;; This function is called by:
  1387 ;;		_MCP23S17_Initialize
  1388 ;; This function uses a non-reentrant model
  1389 ;;
  1390                           
  1391                           	psect	text6
  1392   00258A                     __ptext6:
  1393                           	callstack 0
  1394   00258A                     _SPI1_Open:
  1395                           	callstack 121
  1396                           
  1397                           ; BSR set to: 0
  1398                           ;incstack = 0
  1399                           ;SPI1_Open@spiConfigIndex stored from wreg
  1400   00258A  6E3E               	movwf	SPI1_Open@spiConfigIndex^(0+1280),c
  1401                           
  1402                           ;mmc/spi1.c: 110:  if(0 == SPI1CON0bits.EN)
  1403   00258C  0100               	movlb	0	; () banked
  1404   00258E  BF84               	btfsc	132,7,b	;volatile
  1405   002590  0012               	return	
  1406                           
  1407                           ; BSR set to: 0
  1408                           ;mmc/spi1.c: 111:  {;mmc/spi1.c: 112:         SPI1CON0 = spi1_configuration[spiConfigInd
      +                          ex].con0;
  1409   002592  503E               	movf	SPI1_Open@spiConfigIndex^(0+1280),w,c
  1410   002594  0D05               	mullw	5
  1411   002596  50F3               	movf	243,w,c
  1412   002598  0F59               	addlw	low _spi1_configuration
  1413   00259A  6E3C               	movwf	??_SPI1_Open^(0+1280),c
  1414   00259C  C53C  F4F6         	movff	??_SPI1_Open,tblptrl
  1415   0025A0                     	if	1	;There is more than 1 active tblptr byte
  1416   0025A0  0E25               	movlw	high __smallconst
  1417   0025A2  6EF7               	movwf	tblptrh,c
  1418   0025A4                     	endif
  1419   0025A4                     	if	0	;tblptru may be non-zero
  1420   0025A4                     	endif
  1421   0025A4                     	if	1	;Program memory is > 0xFFFF, there are 3 active tblptr bytes
  1422   0025A4  0E00               	movlw	low (__smallconst shr (0+16))
  1423   0025A6  6EF8               	movwf	tblptru,c
  1424   0025A8                     	endif
  1425   0025A8  0008               	tblrd		*
  1426   0025AA  C4F5 F084          	movff	tablat,132	;volatile
  1427                           
  1428                           ;mmc/spi1.c: 113:         SPI1CON1 = spi1_configuration[spiConfigIndex].con1;
  1429   0025AE  503E               	movf	SPI1_Open@spiConfigIndex^(0+1280),w,c
  1430   0025B0  0D05               	mullw	5
  1431   0025B2  C4F3 F53C          	movff	prodl,??_SPI1_Open
  1432   0025B6  0E01               	movlw	1
  1433   0025B8  263C               	addwf	??_SPI1_Open^(0+1280),f,c
  1434   0025BA  503C               	movf	??_SPI1_Open^(0+1280),w,c
  1435   0025BC  0F59               	addlw	low _spi1_configuration
  1436   0025BE  6E3D               	movwf	(??_SPI1_Open+1)^(0+1280),c
  1437   0025C0  C53D  F4F6         	movff	??_SPI1_Open+1,tblptrl
  1438   0025C4                     	if	1	;There is more than 1 active tblptr byte
  1439   0025C4  0E25               	movlw	high __smallconst
  1440   0025C6  6EF7               	movwf	tblptrh,c
  1441   0025C8                     	endif
  1442   0025C8                     	if	0	;tblptru may be non-zero
  1443   0025C8                     	endif
  1444   0025C8                     	if	1	;Program memory is > 0xFFFF, there are 3 active tblptr bytes
  1445   0025C8  0E00               	movlw	low (__smallconst shr (0+16))
  1446   0025CA  6EF8               	movwf	tblptru,c
  1447   0025CC                     	endif
  1448   0025CC  0008               	tblrd		*
  1449   0025CE  C4F5 F085          	movff	tablat,133	;volatile
  1450                           
  1451                           ;mmc/spi1.c: 114:         SPI1CON2 = spi1_configuration[spiConfigIndex].con2 & ~(0x1) & 
      +                          ~(0x2);
  1452   0025D2  503E               	movf	SPI1_Open@spiConfigIndex^(0+1280),w,c
  1453   0025D4  0D05               	mullw	5
  1454   0025D6  C4F3 F53C          	movff	prodl,??_SPI1_Open
  1455   0025DA  0E02               	movlw	2
  1456   0025DC  263C               	addwf	??_SPI1_Open^(0+1280),f,c
  1457   0025DE  503C               	movf	??_SPI1_Open^(0+1280),w,c
  1458   0025E0  0F59               	addlw	low _spi1_configuration
  1459   0025E2  6E3D               	movwf	(??_SPI1_Open+1)^(0+1280),c
  1460   0025E4  C53D  F4F6         	movff	??_SPI1_Open+1,tblptrl
  1461   0025E8                     	if	1	;There is more than 1 active tblptr byte
  1462   0025E8  0E25               	movlw	high __smallconst
  1463   0025EA  6EF7               	movwf	tblptrh,c
  1464   0025EC                     	endif
  1465   0025EC                     	if	0	;tblptru may be non-zero
  1466   0025EC                     	endif
  1467   0025EC                     	if	1	;Program memory is > 0xFFFF, there are 3 active tblptr bytes
  1468   0025EC  0E00               	movlw	low (__smallconst shr (0+16))
  1469   0025EE  6EF8               	movwf	tblptru,c
  1470   0025F0                     	endif
  1471   0025F0  0008               	tblrd		*
  1472   0025F2  50F5               	movf	tablat,w,c
  1473   0025F4  0BFC               	andlw	252
  1474   0025F6  6F86               	movwf	134,b	;volatile
  1475                           
  1476                           ;mmc/spi1.c: 115:         SPI1BAUD = spi1_configuration[spiConfigIndex].baud;
  1477   0025F8  503E               	movf	SPI1_Open@spiConfigIndex^(0+1280),w,c
  1478   0025FA  0D05               	mullw	5
  1479   0025FC  C4F3 F53C          	movff	prodl,??_SPI1_Open
  1480   002600  0E03               	movlw	3
  1481   002602  263C               	addwf	??_SPI1_Open^(0+1280),f,c
  1482   002604  503C               	movf	??_SPI1_Open^(0+1280),w,c
  1483   002606  0F59               	addlw	low _spi1_configuration
  1484   002608  6E3D               	movwf	(??_SPI1_Open+1)^(0+1280),c
  1485   00260A  C53D  F4F6         	movff	??_SPI1_Open+1,tblptrl
  1486   00260E                     	if	1	;There is more than 1 active tblptr byte
  1487   00260E  0E25               	movlw	high __smallconst
  1488   002610  6EF7               	movwf	tblptrh,c
  1489   002612                     	endif
  1490   002612                     	if	0	;tblptru may be non-zero
  1491   002612                     	endif
  1492   002612                     	if	1	;Program memory is > 0xFFFF, there are 3 active tblptr bytes
  1493   002612  0E00               	movlw	low (__smallconst shr (0+16))
  1494   002614  6EF8               	movwf	tblptru,c
  1495   002616                     	endif
  1496   002616  0008               	tblrd		*
  1497   002618  C4F5 F089          	movff	tablat,137	;volatile
  1498                           
  1499                           ;mmc/spi1.c: 116:         SPI1CLK = spi1_configuration[spiConfigIndex].clksel;
  1500   00261C  503E               	movf	SPI1_Open@spiConfigIndex^(0+1280),w,c
  1501   00261E  0D05               	mullw	5
  1502   002620  C4F3 F53C          	movff	prodl,??_SPI1_Open
  1503   002624  0E04               	movlw	4
  1504   002626  263C               	addwf	??_SPI1_Open^(0+1280),f,c
  1505   002628  503C               	movf	??_SPI1_Open^(0+1280),w,c
  1506   00262A  0F59               	addlw	low _spi1_configuration
  1507   00262C  6E3D               	movwf	(??_SPI1_Open+1)^(0+1280),c
  1508   00262E  C53D  F4F6         	movff	??_SPI1_Open+1,tblptrl
  1509   002632                     	if	1	;There is more than 1 active tblptr byte
  1510   002632  0E25               	movlw	high __smallconst
  1511   002634  6EF7               	movwf	tblptrh,c
  1512   002636                     	endif
  1513   002636                     	if	0	;tblptru may be non-zero
  1514   002636                     	endif
  1515   002636                     	if	1	;Program memory is > 0xFFFF, there are 3 active tblptr bytes
  1516   002636  0E00               	movlw	low (__smallconst shr (0+16))
  1517   002638  6EF8               	movwf	tblptru,c
  1518   00263A                     	endif
  1519   00263A  0008               	tblrd		*
  1520   00263C  C4F5 F08C          	movff	tablat,140	;volatile
  1521                           
  1522                           ; BSR set to: 0
  1523                           ;mmc/spi1.c: 117:   TRISCbits.TRISC4 = 0;
  1524   002640  98C8               	bcf	200,4,c	;volatile
  1525                           
  1526                           ; BSR set to: 0
  1527                           ;mmc/spi1.c: 118:         SPI1CON0bits.EN = 1U;
  1528   002642  8F84               	bsf	132,7,b	;volatile
  1529                           
  1530                           ; BSR set to: 0
  1531                           ;mmc/spi1.c: 121:  }
  1532   002644  0012               	return	
  1533   002646                     __end_of_SPI1_Open:
  1534                           	callstack 0
  1535                           
  1536 ;; *************** function _MCP23017_Initialize *****************
  1537 ;; Defined at:
  1538 ;;		line 153 in file "mix_sam04.c"
  1539 ;; Parameters:    Size  Location     Type
  1540 ;;		None
  1541 ;; Auto vars:     Size  Location     Type
  1542 ;;		None
  1543 ;; Return value:  Size  Location     Type
  1544 ;;                  1    wreg      void 
  1545 ;; Registers used:
  1546 ;;		wreg, status,2, status,0, cstack
  1547 ;; Tracked objects:
  1548 ;;		On entry : 0/4
  1549 ;;		On exit  : 0/0
  1550 ;;		Unchanged: 0/0
  1551 ;; Data sizes:     COMRAM   BANK5   BANK6   BANK7   BANK8   BANK9  BANK10  BANK11  BANK12  BANK13  BANK14  BANK15  BANK1
      +6  BANK17  BANK18  BANK19  BANK20  BANK21  BANK22  BANK23  BANK24  BANK25  BANK26  BANK27  BANK28  BANK29  BANK30  BANK3
      +1  BANK32  BANK33  BANK34  BANK35  BANK36
  1552 ;;      Params:         0       0       0       0       0       0       0       0       0       0       0       0       
      +0       0       0       0       0       0       0       0       0       0       0       0       0       0       0       
      +0       0       0       0       0       0
  1553 ;;      Locals:         0       0       0       0       0       0       0       0       0       0       0       0       
      +0       0       0       0       0       0       0       0       0       0       0       0       0       0       0       
      +0       0       0       0       0       0
  1554 ;;      Temps:          0       0       0       0       0       0       0       0       0       0       0       0       
      +0       0       0       0       0       0       0       0       0       0       0       0       0       0       0       
      +0       0       0       0       0       0
  1555 ;;      Totals:         0       0       0       0       0       0       0       0       0       0       0       0       
      +0       0       0       0       0       0       0       0       0       0       0       0       0       0       0       
      +0       0       0       0       0       0
  1556 ;;Total ram usage:        0 bytes
  1557 ;; Hardware stack levels used: 1
  1558 ;; Hardware stack levels required when called: 7
  1559 ;; This function calls:
  1560 ;;		_MCP23017_Write
  1561 ;; This function is called by:
  1562 ;;		_setup
  1563 ;; This function uses a non-reentrant model
  1564 ;;
  1565                           
  1566                           	psect	text7
  1567   002C18                     __ptext7:
  1568                           	callstack 0
  1569   002C18                     _MCP23017_Initialize:
  1570                           	callstack 118
  1571                           
  1572                           ;mix_sam04.c: 155:  MCP23017_Write((0x0A), 0x00);
  1573                           
  1574                           ; BSR set to: 0
  1575                           ;incstack = 0
  1576   002C18  0E00               	movlw	0
  1577   002C1A  6E43               	movwf	MCP23017_Write@data^(0+1280),c
  1578   002C1C  0E0A               	movlw	10
  1579   002C1E  EC3F  F016         	call	_MCP23017_Write
  1580                           
  1581                           ;mix_sam04.c: 157:  MCP23017_Write((0x00), 0xFF);
  1582   002C22  0EFF               	movlw	255
  1583   002C24  6E43               	movwf	MCP23017_Write@data^(0+1280),c
  1584   002C26  0E00               	movlw	0
  1585   002C28  EC3F  F016         	call	_MCP23017_Write
  1586                           
  1587                           ;mix_sam04.c: 158:  MCP23017_Write((0x0C), 0x0F);
  1588   002C2C  0E0F               	movlw	15
  1589   002C2E  6E43               	movwf	MCP23017_Write@data^(0+1280),c
  1590   002C30  0E0C               	movlw	12
  1591   002C32  EC3F  F016         	call	_MCP23017_Write
  1592                           
  1593                           ;mix_sam04.c: 160:  MCP23017_Write((0x01), 0xF0);
  1594   002C36  0EF0               	movlw	240
  1595   002C38  6E43               	movwf	MCP23017_Write@data^(0+1280),c
  1596   002C3A  0E01               	movlw	1
  1597   002C3C  EC3F  F016         	call	_MCP23017_Write
  1598                           
  1599                           ;mix_sam04.c: 161:  MCP23017_Write((0x15), 0x00);
  1600   002C40  0E00               	movlw	0
  1601   002C42  6E43               	movwf	MCP23017_Write@data^(0+1280),c
  1602   002C44  0E15               	movlw	21
  1603   002C46  EC3F  F016         	call	_MCP23017_Write
  1604   002C4A  0012               	return		;funcret
  1605   002C4C                     __end_of_MCP23017_Initialize:
  1606                           	callstack 0
  1607                           
  1608 ;; *************** function _MCP23017_Write *****************
  1609 ;; Defined at:
  1610 ;;		line 164 in file "mix_sam04.c"
  1611 ;; Parameters:    Size  Location     Type
  1612 ;;  reg_addr        1    wreg     unsigned char 
  1613 ;;  data            1   13[COMRAM] unsigned char 
  1614 ;; Auto vars:     Size  Location     Type
  1615 ;;  reg_addr        1   14[COMRAM] unsigned char 
  1616 ;; Return value:  Size  Location     Type
  1617 ;;                  1    wreg      void 
  1618 ;; Registers used:
  1619 ;;		wreg, status,2, status,0, cstack
  1620 ;; Tracked objects:
  1621 ;;		On entry : 0/4
  1622 ;;		On exit  : 0/0
  1623 ;;		Unchanged: 0/0
  1624 ;; Data sizes:     COMRAM   BANK5   BANK6   BANK7   BANK8   BANK9  BANK10  BANK11  BANK12  BANK13  BANK14  BANK15  BANK1
      +6  BANK17  BANK18  BANK19  BANK20  BANK21  BANK22  BANK23  BANK24  BANK25  BANK26  BANK27  BANK28  BANK29  BANK30  BANK3
      +1  BANK32  BANK33  BANK34  BANK35  BANK36
  1625 ;;      Params:         1       0       0       0       0       0       0       0       0       0       0       0       
      +0       0       0       0       0       0       0       0       0       0       0       0       0       0       0       
      +0       0       0       0       0       0
  1626 ;;      Locals:         1       0       0       0       0       0       0       0       0       0       0       0       
      +0       0       0       0       0       0       0       0       0       0       0       0       0       0       0       
      +0       0       0       0       0       0
  1627 ;;      Temps:          0       0       0       0       0       0       0       0       0       0       0       0       
      +0       0       0       0       0       0       0       0       0       0       0       0       0       0       0       
      +0       0       0       0       0       0
  1628 ;;      Totals:         2       0       0       0       0       0       0       0       0       0       0       0       
      +0       0       0       0       0       0       0       0       0       0       0       0       0       0       0       
      +0       0       0       0       0       0
  1629 ;;Total ram usage:        2 bytes
  1630 ;; Hardware stack levels used: 1
  1631 ;; Hardware stack levels required when called: 6
  1632 ;; This function calls:
  1633 ;;		_I2C1_IsBusy
  1634 ;;		_I2C1_Write
  1635 ;; This function is called by:
  1636 ;;		_MCP23017_Initialize
  1637 ;; This function uses a non-reentrant model
  1638 ;;
  1639                           
  1640                           	psect	text8
  1641   002C7E                     __ptext8:
  1642                           	callstack 0
  1643   002C7E                     _MCP23017_Write:
  1644                           	callstack 118
  1645                           
  1646                           ;incstack = 0
  1647                           ;MCP23017_Write@reg_addr stored from wreg
  1648   002C7E  6E44               	movwf	MCP23017_Write@reg_addr^(0+1280),c
  1649                           
  1650                           ;mix_sam04.c: 165:  au8_data_i2c_write[0] = reg_addr;
  1651   002C80  C544  F52F         	movff	MCP23017_Write@reg_addr,_au8_data_i2c_write
  1652                           
  1653                           ;mix_sam04.c: 166:  au8_data_i2c_write[1] = data;
  1654   002C84  C543  F530         	movff	MCP23017_Write@data,_au8_data_i2c_write+1
  1655                           
  1656                           ;mix_sam04.c: 167:  I2C1_Write((0x20), &au8_data_i2c_write[0], (2));
  1657   002C88  0E00               	movlw	0
  1658   002C8A  6E3E               	movwf	(I2C1_Write@address+1)^(0+1280),c
  1659   002C8C  0E20               	movlw	32
  1660   002C8E  6E3D               	movwf	I2C1_Write@address^(0+1280),c
  1661   002C90  0E2F               	movlw	low _au8_data_i2c_write
  1662   002C92  6E3F               	movwf	I2C1_Write@data^(0+1280),c
  1663   002C94  0E05               	movlw	high _au8_data_i2c_write
  1664   002C96  6E40               	movwf	(I2C1_Write@data+1)^(0+1280),c
  1665   002C98  0E00               	movlw	0
  1666   002C9A  6E42               	movwf	(I2C1_Write@dataLength+1)^(0+1280),c
  1667   002C9C  0E02               	movlw	2
  1668   002C9E  6E41               	movwf	I2C1_Write@dataLength^(0+1280),c
  1669   002CA0  EC71  F015         	call	_I2C1_Write	;wreg free
  1670   002CA4                     l2442:
  1671   002CA4  EC7A  F017         	call	_I2C1_IsBusy	;wreg free
  1672   002CA8  0900               	iorlw	0
  1673   002CAA  B4D8               	btfsc	status,2,c
  1674   002CAC  0012               	return	
  1675   002CAE  D7FA               	goto	l2442
  1676   002CB0                     __end_of_MCP23017_Write:
  1677                           	callstack 0
  1678                           
  1679 ;; *************** function _I2C1_Initialize *****************
  1680 ;; Defined at:
  1681 ;;		line 91 in file "mmc/i2c1.c"
  1682 ;; Parameters:    Size  Location     Type
  1683 ;;		None
  1684 ;; Auto vars:     Size  Location     Type
  1685 ;;		None
  1686 ;; Return value:  Size  Location     Type
  1687 ;;                  1    wreg      void 
  1688 ;; Registers used:
  1689 ;;		wreg, status,2, status,0, cstack
  1690 ;; Tracked objects:
  1691 ;;		On entry : 3F/2
  1692 ;;		On exit  : 3F/2
  1693 ;;		Unchanged: 0/0
  1694 ;; Data sizes:     COMRAM   BANK5   BANK6   BANK7   BANK8   BANK9  BANK10  BANK11  BANK12  BANK13  BANK14  BANK15  BANK1
      +6  BANK17  BANK18  BANK19  BANK20  BANK21  BANK22  BANK23  BANK24  BANK25  BANK26  BANK27  BANK28  BANK29  BANK30  BANK3
      +1  BANK32  BANK33  BANK34  BANK35  BANK36
  1695 ;;      Params:         0       0       0       0       0       0       0       0       0       0       0       0       
      +0       0       0       0       0       0       0       0       0       0       0       0       0       0       0       
      +0       0       0       0       0       0
  1696 ;;      Locals:         0       0       0       0       0       0       0       0       0       0       0       0       
      +0       0       0       0       0       0       0       0       0       0       0       0       0       0       0       
      +0       0       0       0       0       0
  1697 ;;      Temps:          0       0       0       0       0       0       0       0       0       0       0       0       
      +0       0       0       0       0       0       0       0       0       0       0       0       0       0       0       
      +0       0       0       0       0       0
  1698 ;;      Totals:         0       0       0       0       0       0       0       0       0       0       0       0       
      +0       0       0       0       0       0       0       0       0       0       0       0       0       0       0       
      +0       0       0       0       0       0
  1699 ;;Total ram usage:        0 bytes
  1700 ;; Hardware stack levels used: 1
  1701 ;; Hardware stack levels required when called: 4
  1702 ;; This function calls:
  1703 ;;		_I2C1_CallbackRegister
  1704 ;;		_I2C1_InterruptsEnable
  1705 ;; This function is called by:
  1706 ;;		_setup
  1707 ;; This function uses a non-reentrant model
  1708 ;;
  1709                           
  1710                           	psect	text9
  1711   00276E                     __ptext9:
  1712                           	callstack 0
  1713   00276E                     _I2C1_Initialize:
  1714                           	callstack 121
  1715                           
  1716                           ; BSR set to: 2
  1717                           ;mmc/i2c1.c: 94:  ANSELC2 = 0;
  1718                           
  1719                           ;incstack = 0
  1720   00276E  0104               	movlb	4	; () banked
  1721   002770  9510               	bcf	16,2,b	;volatile
  1722                           
  1723                           ;mmc/i2c1.c: 95:  LATC2 = 1;
  1724   002772  84C0               	bsf	1216,2,c	;volatile
  1725                           
  1726                           ;mmc/i2c1.c: 96:  TRISC2 = 0;
  1727   002774  94C8               	bcf	1224,2,c	;volatile
  1728                           
  1729                           ;mmc/i2c1.c: 98:  ANSELC3 = 0;
  1730   002776  9710               	bcf	16,3,b	;volatile
  1731                           
  1732                           ;mmc/i2c1.c: 99:  LATC3 = 1;
  1733   002778  86C0               	bsf	1216,3,c	;volatile
  1734                           
  1735                           ;mmc/i2c1.c: 100:  TRISC3 = 0;
  1736   00277A  96C8               	bcf	1224,3,c	;volatile
  1737                           
  1738                           ; BSR set to: 4
  1739                           ;mmc/i2c1.c: 102:     ODCONC = 0xC;
  1740   00277C  0E0C               	movlw	12
  1741   00277E  6F12               	movwf	18,b	;volatile
  1742                           
  1743                           ;mmc/i2c1.c: 104:     RC3I2C = 0x1;
  1744   002780  0E01               	movlw	1
  1745   002782  0102               	movlb	2	; () banked
  1746   002784  6F87               	movwf	135,b	;volatile
  1747                           
  1748                           ;mmc/i2c1.c: 106:     I2C1SCLPPS = 0x12;
  1749   002786  0E12               	movlw	18
  1750   002788  6F71               	movwf	113,b	;volatile
  1751                           
  1752                           ;mmc/i2c1.c: 107:     RC2PPS = 0x37;
  1753   00278A  0E37               	movlw	55
  1754   00278C  6F13               	movwf	19,b	;volatile
  1755                           
  1756                           ;mmc/i2c1.c: 108:     I2C1SDAPPS = 0x13;
  1757   00278E  0E13               	movlw	19
  1758   002790  6F70               	movwf	112,b	;volatile
  1759                           
  1760                           ;mmc/i2c1.c: 109:     RC3PPS = 0x38;
  1761   002792  0E38               	movlw	56
  1762   002794  6F14               	movwf	20,b	;volatile
  1763                           
  1764                           ;mmc/i2c1.c: 112:     I2C1CON0 = 0x4;
  1765   002796  0E04               	movlw	4
  1766   002798  6F94               	movwf	148,b	;volatile
  1767                           
  1768                           ;mmc/i2c1.c: 114:     I2C1CON1 = 0x80;
  1769   00279A  0E80               	movlw	128
  1770   00279C  6F95               	movwf	149,b	;volatile
  1771                           
  1772                           ;mmc/i2c1.c: 116:     I2C1CON2 = 0x8;
  1773   00279E  0E08               	movlw	8
  1774   0027A0  6F96               	movwf	150,b	;volatile
  1775                           
  1776                           ;mmc/i2c1.c: 118:     I2C1CLK = 0x3;
  1777   0027A2  0E03               	movlw	3
  1778   0027A4  6F9C               	movwf	156,b	;volatile
  1779                           
  1780                           ;mmc/i2c1.c: 120:     I2C1PIR = 0x0;
  1781   0027A6  0E00               	movlw	0
  1782   0027A8  6F9A               	movwf	154,b	;volatile
  1783                           
  1784                           ;mmc/i2c1.c: 122:     I2C1PIE = 0x0;
  1785   0027AA  0E00               	movlw	0
  1786   0027AC  6F9B               	movwf	155,b	;volatile
  1787                           
  1788                           ;mmc/i2c1.c: 124:     I2C1ERR = 0x0;
  1789   0027AE  0E00               	movlw	0
  1790   0027B0  6F97               	movwf	151,b	;volatile
  1791                           
  1792                           ;mmc/i2c1.c: 126:     I2C1CNT = 0x0;
  1793   0027B2  0E00               	movlw	0
  1794   0027B4  6F8D               	movwf	141,b	;volatile
  1795                           
  1796                           ;mmc/i2c1.c: 128:     RC3I2C = 0x51;
  1797   0027B6  0E51               	movlw	81
  1798   0027B8  6F87               	movwf	135,b	;volatile
  1799                           
  1800                           ; BSR set to: 2
  1801                           ;mmc/i2c1.c: 129:     I2C1_InterruptsEnable();
  1802   0027BA  EC9A  F017         	call	_I2C1_InterruptsEnable	;wreg free
  1803                           
  1804                           ; BSR set to: 2
  1805                           ;mmc/i2c1.c: 133:     I2C1PIEbits.SCIE = 0;
  1806   0027BE  919B               	bcf	155,0,b	;volatile
  1807                           
  1808                           ; BSR set to: 2
  1809                           ;mmc/i2c1.c: 134:     I2C1PIEbits.PCIE = 0;
  1810   0027C0  959B               	bcf	155,2,b	;volatile
  1811                           
  1812                           ; BSR set to: 2
  1813                           ;mmc/i2c1.c: 135:     I2C1CON0bits.EN = 1;
  1814   0027C2  8F94               	bsf	148,7,b	;volatile
  1815                           
  1816                           ; BSR set to: 2
  1817                           ;mmc/i2c1.c: 136:     _delay((unsigned long)((1)*((64000000)/4000000.0)));
  1818   0027C4  0E05               	movlw	5
  1819   0027C6                     u997:
  1820   0027C6  2EE8               	decfsz	wreg,f,c
  1821   0027C8  D7FE               	bra	u997
  1822   0027CA  0000               	nop	
  1823                           
  1824                           ;mmc/i2c1.c: 137:     __nop();
  1825   0027CC  0000               	nop	
  1826                           
  1827                           ;mmc/i2c1.c: 138:     __nop();
  1828   0027CE  0000               	nop	
  1829                           
  1830                           ;mmc/i2c1.c: 139:     __nop();
  1831   0027D0  0000               	nop	
  1832                           
  1833                           ;mmc/i2c1.c: 140:     __nop();
  1834   0027D2  0000               	nop	
  1835                           
  1836                           ;mmc/i2c1.c: 141:     __nop();
  1837   0027D4  0000               	nop	
  1838                           
  1839                           ;mmc/i2c1.c: 142:     __nop();
  1840   0027D6  0000               	nop	
  1841                           
  1842                           ;mmc/i2c1.c: 143:     I2C1PIRbits.SCIF = 0;
  1843   0027D8  0102               	movlb	2	; () banked
  1844   0027DA  919A               	bcf	154,0,b	;volatile
  1845                           
  1846                           ; BSR set to: 2
  1847                           ;mmc/i2c1.c: 144:     I2C1PIRbits.PCIF = 0;
  1848   0027DC  959A               	bcf	154,2,b	;volatile
  1849                           
  1850                           ; BSR set to: 2
  1851                           ;mmc/i2c1.c: 145:     I2C1PIEbits.PCIE = 1;
  1852   0027DE  859B               	bsf	155,2,b	;volatile
  1853                           
  1854                           ; BSR set to: 2
  1855                           ;mmc/i2c1.c: 146:     I2C1_CallbackRegister(I2C1_DefaultCallback);
  1856   0027E0  0E30               	movlw	low _I2C1_DefaultCallback
  1857   0027E2  6E3C               	movwf	I2C1_CallbackRegister@callbackHandler^(0+1280),c
  1858   0027E4  0E30               	movlw	high _I2C1_DefaultCallback
  1859   0027E6  6E3D               	movwf	(I2C1_CallbackRegister@callbackHandler+1)^(0+1280),c
  1860   0027E8  0E00               	movlw	low (_I2C1_DefaultCallback shr (0+16))
  1861   0027EA  6E3E               	movwf	(I2C1_CallbackRegister@callbackHandler+2)^(0+1280),c
  1862   0027EC  EC62  F017         	call	_I2C1_CallbackRegister	;wreg free
  1863                           
  1864                           ; BSR set to: 2
  1865   0027F0  0012               	return		;funcret
  1866   0027F2                     __end_of_I2C1_Initialize:
  1867                           	callstack 0
  1868                           
  1869 ;; *************** function _I2C1_InterruptsEnable *****************
  1870 ;; Defined at:
  1871 ;;		line 464 in file "mmc/i2c1.c"
  1872 ;; Parameters:    Size  Location     Type
  1873 ;;		None
  1874 ;; Auto vars:     Size  Location     Type
  1875 ;;		None
  1876 ;; Return value:  Size  Location     Type
  1877 ;;                  1    wreg      void 
  1878 ;; Registers used:
  1879 ;;		None
  1880 ;; Tracked objects:
  1881 ;;		On entry : 3F/2
  1882 ;;		On exit  : 3F/2
  1883 ;;		Unchanged: 0/0
  1884 ;; Data sizes:     COMRAM   BANK5   BANK6   BANK7   BANK8   BANK9  BANK10  BANK11  BANK12  BANK13  BANK14  BANK15  BANK1
      +6  BANK17  BANK18  BANK19  BANK20  BANK21  BANK22  BANK23  BANK24  BANK25  BANK26  BANK27  BANK28  BANK29  BANK30  BANK3
      +1  BANK32  BANK33  BANK34  BANK35  BANK36
  1885 ;;      Params:         0       0       0       0       0       0       0       0       0       0       0       0       
      +0       0       0       0       0       0       0       0       0       0       0       0       0       0       0       
      +0       0       0       0       0       0
  1886 ;;      Locals:         0       0       0       0       0       0       0       0       0       0       0       0       
      +0       0       0       0       0       0       0       0       0       0       0       0       0       0       0       
      +0       0       0       0       0       0
  1887 ;;      Temps:          0       0       0       0       0       0       0       0       0       0       0       0       
      +0       0       0       0       0       0       0       0       0       0       0       0       0       0       0       
      +0       0       0       0       0       0
  1888 ;;      Totals:         0       0       0       0       0       0       0       0       0       0       0       0       
      +0       0       0       0       0       0       0       0       0       0       0       0       0       0       0       
      +0       0       0       0       0       0
  1889 ;;Total ram usage:        0 bytes
  1890 ;; Hardware stack levels used: 1
  1891 ;; Hardware stack levels required when called: 3
  1892 ;; This function calls:
  1893 ;;		Nothing
  1894 ;; This function is called by:
  1895 ;;		_I2C1_Initialize
  1896 ;; This function uses a non-reentrant model
  1897 ;;
  1898                           
  1899                           	psect	text10
  1900   002F34                     __ptext10:
  1901                           	callstack 0
  1902   002F34                     _I2C1_InterruptsEnable:
  1903                           	callstack 121
  1904                           
  1905                           ; BSR set to: 2
  1906                           ;mmc/i2c1.c: 466:     PIE7bits.I2C1IE = 1;
  1907                           
  1908                           ; BSR set to: 2
  1909                           ;incstack = 0
  1910   002F34  84A5               	bsf	165,2,c	;volatile
  1911                           
  1912                           ;mmc/i2c1.c: 467:     PIE7bits.I2C1EIE = 1;
  1913   002F36  86A5               	bsf	165,3,c	;volatile
  1914                           
  1915                           ;mmc/i2c1.c: 468:     PIE7bits.I2C1RXIE = 1;
  1916   002F38  80A5               	bsf	165,0,c	;volatile
  1917                           
  1918                           ;mmc/i2c1.c: 469:     PIE7bits.I2C1TXIE = 1;
  1919   002F3A  82A5               	bsf	165,1,c	;volatile
  1920                           
  1921                           ;mmc/i2c1.c: 471:     I2C1PIEbits.PCIE = 1;
  1922   002F3C  859B               	bsf	155,2,b	;volatile
  1923                           
  1924                           ;mmc/i2c1.c: 472:     I2C1PIEbits.RSCIE = 1;
  1925   002F3E  839B               	bsf	155,1,b	;volatile
  1926                           
  1927                           ;mmc/i2c1.c: 473:     I2C1PIEbits.CNTIE = 1;
  1928   002F40  8F9B               	bsf	155,7,b	;volatile
  1929                           
  1930                           ;mmc/i2c1.c: 474:     I2C1ERRbits.NACKIE = 1;
  1931   002F42  8197               	bsf	151,0,b	;volatile
  1932                           
  1933                           ; BSR set to: 2
  1934   002F44  0012               	return		;funcret
  1935   002F46                     __end_of_I2C1_InterruptsEnable:
  1936                           	callstack 0
  1937                           
  1938 ;; *************** function _I2C1_CallbackRegister *****************
  1939 ;; Defined at:
  1940 ;;		line 232 in file "mmc/i2c1.c"
  1941 ;; Parameters:    Size  Location     Type
  1942 ;;  callbackHand    3    6[COMRAM] PTR FTN()void 
  1943 ;;		 -> I2C1_DefaultCallback(1), 
  1944 ;; Auto vars:     Size  Location     Type
  1945 ;;		None
  1946 ;; Return value:  Size  Location     Type
  1947 ;;                  1    wreg      void 
  1948 ;; Registers used:
  1949 ;;		wreg, status,2, status,0
  1950 ;; Tracked objects:
  1951 ;;		On entry : 3F/2
  1952 ;;		On exit  : 3F/2
  1953 ;;		Unchanged: 3F/0
  1954 ;; Data sizes:     COMRAM   BANK5   BANK6   BANK7   BANK8   BANK9  BANK10  BANK11  BANK12  BANK13  BANK14  BANK15  BANK1
      +6  BANK17  BANK18  BANK19  BANK20  BANK21  BANK22  BANK23  BANK24  BANK25  BANK26  BANK27  BANK28  BANK29  BANK30  BANK3
      +1  BANK32  BANK33  BANK34  BANK35  BANK36
  1955 ;;      Params:         3       0       0       0       0       0       0       0       0       0       0       0       
      +0       0       0       0       0       0       0       0       0       0       0       0       0       0       0       
      +0       0       0       0       0       0
  1956 ;;      Locals:         0       0       0       0       0       0       0       0       0       0       0       0       
      +0       0       0       0       0       0       0       0       0       0       0       0       0       0       0       
      +0       0       0       0       0       0
  1957 ;;      Temps:          0       0       0       0       0       0       0       0       0       0       0       0       
      +0       0       0       0       0       0       0       0       0       0       0       0       0       0       0       
      +0       0       0       0       0       0
  1958 ;;      Totals:         3       0       0       0       0       0       0       0       0       0       0       0       
      +0       0       0       0       0       0       0       0       0       0       0       0       0       0       0       
      +0       0       0       0       0       0
  1959 ;;Total ram usage:        3 bytes
  1960 ;; Hardware stack levels used: 1
  1961 ;; Hardware stack levels required when called: 3
  1962 ;; This function calls:
  1963 ;;		Nothing
  1964 ;; This function is called by:
  1965 ;;		_I2C1_Initialize
  1966 ;;		_I2C1_Deinitialize
  1967 ;; This function uses a non-reentrant model
  1968 ;;
  1969                           
  1970                           	psect	text11
  1971   002EC4                     __ptext11:
  1972                           	callstack 0
  1973   002EC4                     _I2C1_CallbackRegister:
  1974                           	callstack 121
  1975                           
  1976                           ; BSR set to: 2
  1977                           ;mmc/i2c1.c: 232: void I2C1_CallbackRegister(void (*callbackHandler)(void));mmc/i2c1.c: 
      +                          233: {;mmc/i2c1.c: 234:     if (callbackHandler != ((void*)0))
  1978                           
  1979                           ; BSR set to: 2
  1980                           ;incstack = 0
  1981   002EC4  503C               	movf	I2C1_CallbackRegister@callbackHandler^(0+1280),w,c
  1982   002EC6  103D               	iorwf	(I2C1_CallbackRegister@callbackHandler+1)^(0+1280),w,c
  1983   002EC8  103E               	iorwf	(I2C1_CallbackRegister@callbackHandler+2)^(0+1280),w,c
  1984   002ECA  B4D8               	btfsc	status,2,c
  1985   002ECC  0012               	return	
  1986                           
  1987                           ; BSR set to: 2
  1988                           ;mmc/i2c1.c: 235:     {;mmc/i2c1.c: 236:         I2C1_Callback = callbackHandler;
  1989   002ECE  C53C  F51E         	movff	I2C1_CallbackRegister@callbackHandler,_I2C1_Callback
  1990   002ED2  C53D  F51F         	movff	I2C1_CallbackRegister@callbackHandler+1,_I2C1_Callback+1
  1991   002ED6  C53E  F520         	movff	I2C1_CallbackRegister@callbackHandler+2,_I2C1_Callback+2
  1992                           
  1993                           ; BSR set to: 2
  1994   002EDA  0012               	return		;funcret
  1995   002EDC                     __end_of_I2C1_CallbackRegister:
  1996                           	callstack 0
  1997                           
  1998 ;; *************** function _CLC1_Initialize *****************
  1999 ;; Defined at:
  2000 ;;		line 38 in file "mmc/clc1.c"
  2001 ;; Parameters:    Size  Location     Type
  2002 ;;		None
  2003 ;; Auto vars:     Size  Location     Type
  2004 ;;		None
  2005 ;; Return value:  Size  Location     Type
  2006 ;;                  1    wreg      void 
  2007 ;; Registers used:
  2008 ;;		wreg, status,2
  2009 ;; Tracked objects:
  2010 ;;		On entry : 3F/0
  2011 ;;		On exit  : 3F/0
  2012 ;;		Unchanged: 0/0
  2013 ;; Data sizes:     COMRAM   BANK5   BANK6   BANK7   BANK8   BANK9  BANK10  BANK11  BANK12  BANK13  BANK14  BANK15  BANK1
      +6  BANK17  BANK18  BANK19  BANK20  BANK21  BANK22  BANK23  BANK24  BANK25  BANK26  BANK27  BANK28  BANK29  BANK30  BANK3
      +1  BANK32  BANK33  BANK34  BANK35  BANK36
  2014 ;;      Params:         0       0       0       0       0       0       0       0       0       0       0       0       
      +0       0       0       0       0       0       0       0       0       0       0       0       0       0       0       
      +0       0       0       0       0       0
  2015 ;;      Locals:         0       0       0       0       0       0       0       0       0       0       0       0       
      +0       0       0       0       0       0       0       0       0       0       0       0       0       0       0       
      +0       0       0       0       0       0
  2016 ;;      Temps:          0       0       0       0       0       0       0       0       0       0       0       0       
      +0       0       0       0       0       0       0       0       0       0       0       0       0       0       0       
      +0       0       0       0       0       0
  2017 ;;      Totals:         0       0       0       0       0       0       0       0       0       0       0       0       
      +0       0       0       0       0       0       0       0       0       0       0       0       0       0       0       
      +0       0       0       0       0       0
  2018 ;;Total ram usage:        0 bytes
  2019 ;; Hardware stack levels used: 1
  2020 ;; Hardware stack levels required when called: 3
  2021 ;; This function calls:
  2022 ;;		Nothing
  2023 ;; This function is called by:
  2024 ;;		_setup
  2025 ;; This function uses a non-reentrant model
  2026 ;;
  2027                           
  2028                           	psect	text12
  2029   00292A                     __ptext12:
  2030                           	callstack 0
  2031   00292A                     _CLC1_Initialize:
  2032                           	callstack 122
  2033                           
  2034                           ; BSR set to: 0
  2035                           ;mmc/clc1.c: 41:  ANSELB1 = 0;
  2036                           
  2037                           ; BSR set to: 2
  2038                           ;incstack = 0
  2039   00292A  0104               	movlb	4	; () banked
  2040   00292C  9308               	bcf	8,1,b	;volatile
  2041                           
  2042                           ;mmc/clc1.c: 42:  WPUB1 = 1;
  2043   00292E  8309               	bsf	9,1,b	;volatile
  2044                           
  2045                           ;mmc/clc1.c: 43:  TRISB1 = 1;
  2046   002930  82C7               	bsf	1223,1,c	;volatile
  2047                           
  2048                           ;mmc/clc1.c: 45:  ANSELB2 = 0;
  2049   002932  9508               	bcf	8,2,b	;volatile
  2050                           
  2051                           ;mmc/clc1.c: 46:  WPUB2 = 1;
  2052   002934  8509               	bsf	9,2,b	;volatile
  2053                           
  2054                           ;mmc/clc1.c: 47:  TRISB2 = 1;
  2055   002936  84C7               	bsf	1223,2,c	;volatile
  2056                           
  2057                           ;mmc/clc1.c: 49:  ANSELA4 = 0;
  2058   002938  9900               	bcf	0,4,b	;volatile
  2059                           
  2060                           ;mmc/clc1.c: 50:  LATA4 = 0;
  2061   00293A  98BE               	bcf	1214,4,c	;volatile
  2062                           
  2063                           ;mmc/clc1.c: 51:  TRISA4 = 0;
  2064   00293C  98C6               	bcf	1222,4,c	;volatile
  2065                           
  2066                           ; BSR set to: 4
  2067                           ;mmc/clc1.c: 53:     CLCIN2PPS = 0x9;
  2068   00293E  0E09               	movlw	9
  2069   002940  0102               	movlb	2	; () banked
  2070   002942  6F63               	movwf	99,b	;volatile
  2071                           
  2072                           ;mmc/clc1.c: 54:     CLCIN3PPS = 0xA;
  2073   002944  0E0A               	movlw	10
  2074   002946  6F64               	movwf	100,b	;volatile
  2075                           
  2076                           ;mmc/clc1.c: 55:     RA4PPS = 0x01;
  2077   002948  0E01               	movlw	1
  2078   00294A  6F05               	movwf	5,b	;volatile
  2079                           
  2080                           ;mmc/clc1.c: 58:     CLCSELECT = 0x0;
  2081   00294C  0E00               	movlw	0
  2082   00294E  0100               	movlb	0	; () banked
  2083   002950  6FD5               	movwf	213,b	;volatile
  2084                           
  2085                           ;mmc/clc1.c: 60:     CLCnPOL = 0xC;
  2086   002952  0E0C               	movlw	12
  2087   002954  6FD7               	movwf	215,b	;volatile
  2088                           
  2089                           ;mmc/clc1.c: 62:     CLCnSEL0 = 0x2;
  2090   002956  0E02               	movlw	2
  2091   002958  6FD8               	movwf	216,b	;volatile
  2092                           
  2093                           ;mmc/clc1.c: 64:     CLCnSEL1 = 0x3;
  2094   00295A  0E03               	movlw	3
  2095   00295C  6FD9               	movwf	217,b	;volatile
  2096                           
  2097                           ;mmc/clc1.c: 66:     CLCnSEL2 = 0x2;
  2098   00295E  0E02               	movlw	2
  2099   002960  6FDA               	movwf	218,b	;volatile
  2100                           
  2101                           ;mmc/clc1.c: 68:     CLCnSEL3 = 0x3;
  2102   002962  0E03               	movlw	3
  2103   002964  6FDB               	movwf	219,b	;volatile
  2104                           
  2105                           ;mmc/clc1.c: 70:     CLCnGLS0 = 0x1;
  2106   002966  0E01               	movlw	1
  2107   002968  6FDC               	movwf	220,b	;volatile
  2108                           
  2109                           ;mmc/clc1.c: 72:     CLCnGLS1 = 0x4;
  2110   00296A  0E04               	movlw	4
  2111   00296C  6FDD               	movwf	221,b	;volatile
  2112                           
  2113                           ;mmc/clc1.c: 74:     CLCnGLS2 = 0x0;
  2114   00296E  0E00               	movlw	0
  2115   002970  6FDE               	movwf	222,b	;volatile
  2116                           
  2117                           ;mmc/clc1.c: 76:     CLCnGLS3 = 0x0;
  2118   002972  0E00               	movlw	0
  2119   002974  6FDF               	movwf	223,b	;volatile
  2120                           
  2121                           ;mmc/clc1.c: 78:     CLCDATA = 0x0;
  2122   002976  0E00               	movlw	0
  2123   002978  6FD4               	movwf	212,b	;volatile
  2124                           
  2125                           ;mmc/clc1.c: 80:     CLCnCON = 0x82;
  2126   00297A  0E82               	movlw	130
  2127   00297C  6FD6               	movwf	214,b	;volatile
  2128                           
  2129                           ; BSR set to: 0
  2130   00297E  0012               	return		;funcret
  2131   002980                     __end_of_CLC1_Initialize:
  2132                           	callstack 0
  2133                           
  2134 ;; *************** function _CLC1_Enable *****************
  2135 ;; Defined at:
  2136 ;;		line 84 in file "mmc/clc1.c"
  2137 ;; Parameters:    Size  Location     Type
  2138 ;;		None
  2139 ;; Auto vars:     Size  Location     Type
  2140 ;;		None
  2141 ;; Return value:  Size  Location     Type
  2142 ;;                  1    wreg      void 
  2143 ;; Registers used:
  2144 ;;		None
  2145 ;; Tracked objects:
  2146 ;;		On entry : 3F/0
  2147 ;;		On exit  : 3F/0
  2148 ;;		Unchanged: 0/0
  2149 ;; Data sizes:     COMRAM   BANK5   BANK6   BANK7   BANK8   BANK9  BANK10  BANK11  BANK12  BANK13  BANK14  BANK15  BANK1
      +6  BANK17  BANK18  BANK19  BANK20  BANK21  BANK22  BANK23  BANK24  BANK25  BANK26  BANK27  BANK28  BANK29  BANK30  BANK3
      +1  BANK32  BANK33  BANK34  BANK35  BANK36
  2150 ;;      Params:         0       0       0       0       0       0       0       0       0       0       0       0       
      +0       0       0       0       0       0       0       0       0       0       0       0       0       0       0       
      +0       0       0       0       0       0
  2151 ;;      Locals:         0       0       0       0       0       0       0       0       0       0       0       0       
      +0       0       0       0       0       0       0       0       0       0       0       0       0       0       0       
      +0       0       0       0       0       0
  2152 ;;      Temps:          0       0       0       0       0       0       0       0       0       0       0       0       
      +0       0       0       0       0       0       0       0       0       0       0       0       0       0       0       
      +0       0       0       0       0       0
  2153 ;;      Totals:         0       0       0       0       0       0       0       0       0       0       0       0       
      +0       0       0       0       0       0       0       0       0       0       0       0       0       0       0       
      +0       0       0       0       0       0
  2154 ;;Total ram usage:        0 bytes
  2155 ;; Hardware stack levels used: 1
  2156 ;; Hardware stack levels required when called: 3
  2157 ;; This function calls:
  2158 ;;		Nothing
  2159 ;; This function is called by:
  2160 ;;		_setup
  2161 ;; This function uses a non-reentrant model
  2162 ;;
  2163                           
  2164                           	psect	text13
  2165   003022                     __ptext13:
  2166                           	callstack 0
  2167   003022                     _CLC1_Enable:
  2168                           	callstack 122
  2169                           
  2170                           ; BSR set to: 0
  2171                           ;mmc/clc1.c: 86:     CLCnCONbits.EN = 1;
  2172                           
  2173                           ; BSR set to: 0
  2174                           ;incstack = 0
  2175   003022  8FD6               	bsf	214,7,b	;volatile
  2176                           
  2177                           ; BSR set to: 0
  2178   003024  0012               	return		;funcret
  2179   003026                     __end_of_CLC1_Enable:
  2180                           	callstack 0
  2181                           
  2182 ;; *************** function _loop *****************
  2183 ;; Defined at:
  2184 ;;		line 129 in file "mix_sam04.c"
  2185 ;; Parameters:    Size  Location     Type
  2186 ;;		None
  2187 ;; Auto vars:     Size  Location     Type
  2188 ;;  chk_val         1   19[COMRAM] unsigned char 
  2189 ;; Return value:  Size  Location     Type
  2190 ;;                  1    wreg      void 
  2191 ;; Registers used:
  2192 ;;		wreg, fsr2l, fsr2h, status,2, status,0, tblptrl, tblptrh, tblptru, cstack
  2193 ;; Tracked objects:
  2194 ;;		On entry : 0/3
  2195 ;;		On exit  : 0/0
  2196 ;;		Unchanged: 0/0
  2197 ;; Data sizes:     COMRAM   BANK5   BANK6   BANK7   BANK8   BANK9  BANK10  BANK11  BANK12  BANK13  BANK14  BANK15  BANK1
      +6  BANK17  BANK18  BANK19  BANK20  BANK21  BANK22  BANK23  BANK24  BANK25  BANK26  BANK27  BANK28  BANK29  BANK30  BANK3
      +1  BANK32  BANK33  BANK34  BANK35  BANK36
  2198 ;;      Params:         0       0       0       0       0       0       0       0       0       0       0       0       
      +0       0       0       0       0       0       0       0       0       0       0       0       0       0       0       
      +0       0       0       0       0       0
  2199 ;;      Locals:         1       0       0       0       0       0       0       0       0       0       0       0       
      +0       0       0       0       0       0       0       0       0       0       0       0       0       0       0       
      +0       0       0       0       0       0
  2200 ;;      Temps:          0       0       0       0       0       0       0       0       0       0       0       0       
      +0       0       0       0       0       0       0       0       0       0       0       0       0       0       0       
      +0       0       0       0       0       0
  2201 ;;      Totals:         1       0       0       0       0       0       0       0       0       0       0       0       
      +0       0       0       0       0       0       0       0       0       0       0       0       0       0       0       
      +0       0       0       0       0       0
  2202 ;;Total ram usage:        1 bytes
  2203 ;; Hardware stack levels used: 1
  2204 ;; Hardware stack levels required when called: 7
  2205 ;; This function calls:
  2206 ;;		_MCP23017_UpdateState
  2207 ;;		_MCP23S17_UpdateState
  2208 ;;		_TimerCheck
  2209 ;;		_TimerStart
  2210 ;;		_request_in
  2211 ;;		_update_out
  2212 ;; This function is called by:
  2213 ;;		_main
  2214 ;; This function uses a non-reentrant model
  2215 ;;
  2216                           
  2217                           	psect	text14
  2218   002860                     __ptext14:
  2219                           	callstack 0
  2220   002860                     _loop:
  2221                           	callstack 119
  2222                           
  2223                           ;mix_sam04.c: 130:  uint8_t chk_val;;mix_sam04.c: 132:  chk_val = TimerCheck(&u16_timer_
      +                          1s, (1000 / (5)));
  2224                           
  2225                           ; BSR set to: 0
  2226                           ;incstack = 0
  2227   002860  0E33               	movlw	low _u16_timer_1s
  2228   002862  6E3C               	movwf	TimerCheck@p_timer^(0+1280),c
  2229   002864  0E05               	movlw	high _u16_timer_1s
  2230   002866  6E3D               	movwf	(TimerCheck@p_timer+1)^(0+1280),c
  2231   002868  0E00               	movlw	0
  2232   00286A  6E3F               	movwf	(TimerCheck@time+1)^(0+1280),c
  2233   00286C  0EC8               	movlw	200
  2234   00286E  6E3E               	movwf	TimerCheck@time^(0+1280),c
  2235   002870  ECC0  F014         	call	_TimerCheck	;wreg free
  2236   002874  6E49               	movwf	loop@chk_val^(0+1280),c
  2237                           
  2238                           ;mix_sam04.c: 133:  if (chk_val) {
  2239   002876  5049               	movf	loop@chk_val^(0+1280),w,c
  2240   002878  B4D8               	btfsc	status,2,c
  2241   00287A  D007               	goto	l2676
  2242                           
  2243                           ;mix_sam04.c: 134:   u8_count_out++;
  2244   00287C  2A24               	incf	_u8_count_out^(0+1280),f,c	;volatile
  2245                           
  2246                           ;mix_sam04.c: 136:   TimerStart(&u16_timer_1s);
  2247   00287E  0E33               	movlw	low _u16_timer_1s
  2248   002880  6E3C               	movwf	TimerStart@p_timer^(0+1280),c
  2249   002882  0E05               	movlw	high _u16_timer_1s
  2250   002884  6E3D               	movwf	(TimerStart@p_timer+1)^(0+1280),c
  2251   002886  ECB5  F017         	call	_TimerStart	;wreg free
  2252   00288A                     l2676:
  2253                           
  2254                           ;mix_sam04.c: 139:  chk_val = TimerCheck(&u16_timer_200m, (200 / (5)));
  2255   00288A  0E31               	movlw	low _u16_timer_200m
  2256   00288C  6E3C               	movwf	TimerCheck@p_timer^(0+1280),c
  2257   00288E  0E05               	movlw	high _u16_timer_200m
  2258   002890  6E3D               	movwf	(TimerCheck@p_timer+1)^(0+1280),c
  2259   002892  0E00               	movlw	0
  2260   002894  6E3F               	movwf	(TimerCheck@time+1)^(0+1280),c
  2261   002896  0E28               	movlw	40
  2262   002898  6E3E               	movwf	TimerCheck@time^(0+1280),c
  2263   00289A  ECC0  F014         	call	_TimerCheck	;wreg free
  2264   00289E  6E49               	movwf	loop@chk_val^(0+1280),c
  2265                           
  2266                           ;mix_sam04.c: 140:  if (chk_val) {
  2267   0028A0  5049               	movf	loop@chk_val^(0+1280),w,c
  2268   0028A2  B4D8               	btfsc	status,2,c
  2269   0028A4  D007               	goto	l2684
  2270                           
  2271                           ;mix_sam04.c: 141:   bit_flag = 1;
  2272   0028A6  824A               	bsf	(_bit_flag/(0+8))^(0+1280),_bit_flag& (0+7),c
  2273                           
  2274                           ;mix_sam04.c: 143:   TimerStart(&u16_timer_200m);
  2275   0028A8  0E31               	movlw	low _u16_timer_200m
  2276   0028AA  6E3C               	movwf	TimerStart@p_timer^(0+1280),c
  2277   0028AC  0E05               	movlw	high _u16_timer_200m
  2278   0028AE  6E3D               	movwf	(TimerStart@p_timer+1)^(0+1280),c
  2279   0028B0  ECB5  F017         	call	_TimerStart	;wreg free
  2280   0028B4                     l2684:
  2281                           
  2282                           ;mix_sam04.c: 145:  request_in();
  2283   0028B4  EC63  F014         	call	_request_in	;wreg free
  2284                           
  2285                           ;mix_sam04.c: 146:  update_out();
  2286   0028B8  EC6E  F017         	call	_update_out	;wreg free
  2287                           
  2288                           ;mix_sam04.c: 148:  MCP23017_UpdateState();
  2289   0028BC  EC23  F013         	call	_MCP23017_UpdateState	;wreg free
  2290                           
  2291                           ;mix_sam04.c: 150:  MCP23S17_UpdateState();
  2292   0028C0  EC93  F015         	call	_MCP23S17_UpdateState	;wreg free
  2293   0028C4  0012               	return		;funcret
  2294   0028C6                     __end_of_loop:
  2295                           	callstack 0
  2296                           
  2297 ;; *************** function _update_out *****************
  2298 ;; Defined at:
  2299 ;;		line 271 in file "mix_sam04.c"
  2300 ;; Parameters:    Size  Location     Type
  2301 ;;		None
  2302 ;; Auto vars:     Size  Location     Type
  2303 ;;		None
  2304 ;; Return value:  Size  Location     Type
  2305 ;;                  1    wreg      void 
  2306 ;; Registers used:
  2307 ;;		wreg, fsr2l, fsr2h, status,2, status,0, cstack
  2308 ;; Tracked objects:
  2309 ;;		On entry : 0/3
  2310 ;;		On exit  : 0/0
  2311 ;;		Unchanged: 0/0
  2312 ;; Data sizes:     COMRAM   BANK5   BANK6   BANK7   BANK8   BANK9  BANK10  BANK11  BANK12  BANK13  BANK14  BANK15  BANK1
      +6  BANK17  BANK18  BANK19  BANK20  BANK21  BANK22  BANK23  BANK24  BANK25  BANK26  BANK27  BANK28  BANK29  BANK30  BANK3
      +1  BANK32  BANK33  BANK34  BANK35  BANK36
  2313 ;;      Params:         0       0       0       0       0       0       0       0       0       0       0       0       
      +0       0       0       0       0       0       0       0       0       0       0       0       0       0       0       
      +0       0       0       0       0       0
  2314 ;;      Locals:         0       0       0       0       0       0       0       0       0       0       0       0       
      +0       0       0       0       0       0       0       0       0       0       0       0       0       0       0       
      +0       0       0       0       0       0
  2315 ;;      Temps:          0       0       0       0       0       0       0       0       0       0       0       0       
      +0       0       0       0       0       0       0       0       0       0       0       0       0       0       0       
      +0       0       0       0       0       0
  2316 ;;      Totals:         0       0       0       0       0       0       0       0       0       0       0       0       
      +0       0       0       0       0       0       0       0       0       0       0       0       0       0       0       
      +0       0       0       0       0       0
  2317 ;;Total ram usage:        0 bytes
  2318 ;; Hardware stack levels used: 1
  2319 ;; Hardware stack levels required when called: 4
  2320 ;; This function calls:
  2321 ;;		_UART3_Write
  2322 ;; This function is called by:
  2323 ;;		_loop
  2324 ;; This function uses a non-reentrant model
  2325 ;;
  2326                           
  2327                           	psect	text15
  2328   002EDC                     __ptext15:
  2329                           	callstack 0
  2330   002EDC                     _update_out:
  2331                           	callstack 121
  2332                           
  2333                           ;mix_sam04.c: 273:  LATA = u8_count_out & 0x0F;
  2334                           
  2335                           ;incstack = 0
  2336   002EDC  5024               	movf	_u8_count_out^(0+1280),w,c	;volatile
  2337   002EDE  0B0F               	andlw	15
  2338   002EE0  6EBE               	movwf	190,c	;volatile
  2339                           
  2340                           ;mix_sam04.c: 275:  if (bit_flag == 1) {
  2341   002EE2  A24A               	btfss	(_bit_flag/(0+8))^(0+1280),_bit_flag& (0+7),c
  2342   002EE4  0012               	return	
  2343                           
  2344                           ;mix_sam04.c: 276:   if (bit_state == 1) {
  2345   002EE6  A04A               	btfss	(_bit_state/(0+8))^(0+1280),_bit_state& (0+7),c
  2346   002EE8  D003               	goto	l2560
  2347                           
  2348                           ;mix_sam04.c: 277:    UART3_Write('+');
  2349   002EEA  0E2B               	movlw	43
  2350   002EEC  ECEB  F016         	call	_UART3_Write
  2351   002EF0                     l2560:
  2352                           
  2353                           ;mix_sam04.c: 279:   bit_flag = 0;
  2354   002EF0  924A               	bcf	(_bit_flag/(0+8))^(0+1280),_bit_flag& (0+7),c
  2355   002EF2  0012               	return		;funcret
  2356   002EF4                     __end_of_update_out:
  2357                           	callstack 0
  2358                           
  2359 ;; *************** function _request_in *****************
  2360 ;; Defined at:
  2361 ;;		line 242 in file "mix_sam04.c"
  2362 ;; Parameters:    Size  Location     Type
  2363 ;;		None
  2364 ;; Auto vars:     Size  Location     Type
  2365 ;;  data_recv       1   10[COMRAM] unsigned char 
  2366 ;; Return value:  Size  Location     Type
  2367 ;;                  1    wreg      void 
  2368 ;; Registers used:
  2369 ;;		wreg, fsr2l, fsr2h, status,2, status,0, tblptrl, tblptrh, tblptru, cstack
  2370 ;; Tracked objects:
  2371 ;;		On entry : 0/3
  2372 ;;		On exit  : 0/0
  2373 ;;		Unchanged: 0/0
  2374 ;; Data sizes:     COMRAM   BANK5   BANK6   BANK7   BANK8   BANK9  BANK10  BANK11  BANK12  BANK13  BANK14  BANK15  BANK1
      +6  BANK17  BANK18  BANK19  BANK20  BANK21  BANK22  BANK23  BANK24  BANK25  BANK26  BANK27  BANK28  BANK29  BANK30  BANK3
      +1  BANK32  BANK33  BANK34  BANK35  BANK36
  2375 ;;      Params:         0       0       0       0       0       0       0       0       0       0       0       0       
      +0       0       0       0       0       0       0       0       0       0       0       0       0       0       0       
      +0       0       0       0       0       0
  2376 ;;      Locals:         1       0       0       0       0       0       0       0       0       0       0       0       
      +0       0       0       0       0       0       0       0       0       0       0       0       0       0       0       
      +0       0       0       0       0       0
  2377 ;;      Temps:          2       0       0       0       0       0       0       0       0       0       0       0       
      +0       0       0       0       0       0       0       0       0       0       0       0       0       0       0       
      +0       0       0       0       0       0
  2378 ;;      Totals:         3       0       0       0       0       0       0       0       0       0       0       0       
      +0       0       0       0       0       0       0       0       0       0       0       0       0       0       0       
      +0       0       0       0       0       0
  2379 ;;Total ram usage:        3 bytes
  2380 ;; Hardware stack levels used: 1
  2381 ;; Hardware stack levels required when called: 5
  2382 ;; This function calls:
  2383 ;;		_EchoStr
  2384 ;;		_UART3_Read
  2385 ;; This function is called by:
  2386 ;;		_loop
  2387 ;; This function uses a non-reentrant model
  2388 ;;
  2389                           
  2390                           	psect	text16
  2391   0028C6                     __ptext16:
  2392                           	callstack 0
  2393   0028C6                     _request_in:
  2394                           	callstack 120
  2395                           
  2396                           ;mix_sam04.c: 243:  uint8_t data_recv;;mix_sam04.c: 244:  data_recv = UART3_Read();
  2397                           
  2398                           ;incstack = 0
  2399   0028C6  EC87  F016         	call	_UART3_Read	;wreg free
  2400   0028CA  6E40               	movwf	request_in@data_recv^(0+1280),c
  2401                           
  2402                           ;mix_sam04.c: 245:  switch (data_recv) {
  2403   0028CC  D016               	goto	l2546
  2404   0028CE                     l733:
  2405   0028CE  00FF               	reset		;# 
  2406                           
  2407                           ;mix_sam04.c: 249:   break;
  2408   0028D0  0012               	return	
  2409   0028D2                     l735:
  2410   0028D2  0003               	sleep		;# 
  2411                           
  2412                           ;mix_sam04.c: 254:   EchoStr((char *)&acu8_msg_awake[0]);
  2413   0028D4  0E63               	movlw	low _acu8_msg_awake
  2414   0028D6  6E3D               	movwf	EchoStr@p_data^(0+1280),c
  2415   0028D8  EC58  F016         	call	_EchoStr	;wreg free
  2416                           
  2417                           ;mix_sam04.c: 255:   break;
  2418   0028DC  0012               	return	
  2419   0028DE                     l736:
  2420                           
  2421                           ;mix_sam04.c: 257:   bit_state = !bit_state;
  2422   0028DE  B04A               	btfsc	(_bit_state/(0+8))^(0+1280),_bit_state& (0+7),c
  2423   0028E0  D002               	goto	u710
  2424   0028E2  804A               	bsf	(_bit_state/(0+8))^(0+1280),_bit_state& (0+7),c
  2425   0028E4  0012               	return	
  2426   0028E6                     u710:
  2427   0028E6  904A               	bcf	(_bit_state/(0+8))^(0+1280),_bit_state& (0+7),c
  2428                           
  2429                           ;mix_sam04.c: 258:   break;
  2430   0028E8  0012               	return	
  2431   0028EA                     l2540:
  2432                           
  2433                           ;mix_sam04.c: 261:   EchoStr((char *)&acu8_msg_awake[0]);
  2434   0028EA  0E63               	movlw	low _acu8_msg_awake
  2435   0028EC  6E3D               	movwf	EchoStr@p_data^(0+1280),c
  2436   0028EE  EC58  F016         	call	_EchoStr	;wreg free
  2437                           
  2438                           ;mix_sam04.c: 262:   break;
  2439   0028F2  0012               	return	
  2440   0028F4                     l2542:
  2441                           
  2442                           ;mix_sam04.c: 264:   u8_count_out = 0x00;
  2443   0028F4  0E00               	movlw	0
  2444   0028F6  6E24               	movwf	_u8_count_out^(0+1280),c	;volatile
  2445                           
  2446                           ;mix_sam04.c: 265:   break;
  2447   0028F8  0012               	return	
  2448   0028FA                     l2546:
  2449   0028FA  5040               	movf	request_in@data_recv^(0+1280),w,c
  2450   0028FC  6E3E               	movwf	??_request_in^(0+1280),c
  2451   0028FE  6A3F               	clrf	(??_request_in+1)^(0+1280),c
  2452                           
  2453                           ; Switch on 2 bytes has been partitioned into a top level switch of size 1, and 1 sub-sw
      +                          itches
  2454                           ; Switch size 1, requested type "simple"
  2455                           ; Number of cases is 1, Range of values is 0 to 0
  2456                           ; switch strategies available:
  2457                           ; Name         Instructions Cycles
  2458                           ; simple_byte            4     3 (average)
  2459                           ;	Chosen strategy is simple_byte
  2460   002900  503F               	movf	(??_request_in+1)^(0+1280),w,c
  2461   002902  0A00               	xorlw	0	; case 0
  2462   002904  A4D8               	btfss	status,2,c
  2463   002906  0012               	return	
  2464                           
  2465                           ; Switch size 1, requested type "simple"
  2466                           ; Number of cases is 5, Range of values is 114 to 122
  2467                           ; switch strategies available:
  2468                           ; Name         Instructions Cycles
  2469                           ; simple_byte           16     9 (average)
  2470                           ;	Chosen strategy is simple_byte
  2471   002908  503E               	movf	??_request_in^(0+1280),w,c
  2472   00290A  0A72               	xorlw	114	; case 114
  2473   00290C  B4D8               	btfsc	status,2,c
  2474   00290E  D7DF               	goto	l733
  2475   002910  0A01               	xorlw	1	; case 115
  2476   002912  B4D8               	btfsc	status,2,c
  2477   002914  D7DE               	goto	l735
  2478   002916  0A06               	xorlw	6	; case 117
  2479   002918  B4D8               	btfsc	status,2,c
  2480   00291A  D7E1               	goto	l736
  2481   00291C  0A02               	xorlw	2	; case 119
  2482   00291E  B4D8               	btfsc	status,2,c
  2483   002920  D7E4               	goto	l2540
  2484   002922  0A0D               	xorlw	13	; case 122
  2485   002924  A4D8               	btfss	status,2,c
  2486   002926  0012               	return	
  2487   002928  D7E5               	goto	l2542
  2488   00292A                     __end_of_request_in:
  2489                           	callstack 0
  2490                           
  2491 ;; *************** function _UART3_Read *****************
  2492 ;; Defined at:
  2493 ;;		line 80 in file "mmc/uart3.c"
  2494 ;; Parameters:    Size  Location     Type
  2495 ;;		None
  2496 ;; Auto vars:     Size  Location     Type
  2497 ;;  data            1    6[COMRAM] unsigned char 
  2498 ;; Return value:  Size  Location     Type
  2499 ;;                  1    wreg      unsigned char 
  2500 ;; Registers used:
  2501 ;;		wreg, fsr2l, fsr2h, status,2, status,0
  2502 ;; Tracked objects:
  2503 ;;		On entry : 0/3
  2504 ;;		On exit  : 0/0
  2505 ;;		Unchanged: 0/0
  2506 ;; Data sizes:     COMRAM   BANK5   BANK6   BANK7   BANK8   BANK9  BANK10  BANK11  BANK12  BANK13  BANK14  BANK15  BANK1
      +6  BANK17  BANK18  BANK19  BANK20  BANK21  BANK22  BANK23  BANK24  BANK25  BANK26  BANK27  BANK28  BANK29  BANK30  BANK3
      +1  BANK32  BANK33  BANK34  BANK35  BANK36
  2507 ;;      Params:         0       0       0       0       0       0       0       0       0       0       0       0       
      +0       0       0       0       0       0       0       0       0       0       0       0       0       0       0       
      +0       0       0       0       0       0
  2508 ;;      Locals:         1       0       0       0       0       0       0       0       0       0       0       0       
      +0       0       0       0       0       0       0       0       0       0       0       0       0       0       0       
      +0       0       0       0       0       0
  2509 ;;      Temps:          0       0       0       0       0       0       0       0       0       0       0       0       
      +0       0       0       0       0       0       0       0       0       0       0       0       0       0       0       
      +0       0       0       0       0       0
  2510 ;;      Totals:         1       0       0       0       0       0       0       0       0       0       0       0       
      +0       0       0       0       0       0       0       0       0       0       0       0       0       0       0       
      +0       0       0       0       0       0
  2511 ;;Total ram usage:        1 bytes
  2512 ;; Hardware stack levels used: 1
  2513 ;; Hardware stack levels required when called: 3
  2514 ;; This function calls:
  2515 ;;		Nothing
  2516 ;; This function is called by:
  2517 ;;		_request_in
  2518 ;; This function uses a non-reentrant model
  2519 ;;
  2520                           
  2521                           	psect	text17
  2522   002D0E                     __ptext17:
  2523                           	callstack 0
  2524   002D0E                     _UART3_Read:
  2525                           	callstack 121
  2526                           
  2527                           ;mmc/uart3.c: 81:  uint8_t data = 0x00;
  2528                           
  2529                           ;incstack = 0
  2530   002D0E  0E00               	movlw	0
  2531   002D10  6E3C               	movwf	UART3_Read@data^(0+1280),c
  2532                           
  2533                           ;mmc/uart3.c: 82:  if (u8_rx_count > 0) {
  2534   002D12  5028               	movf	_u8_rx_count^(0+1280),w,c	;volatile
  2535   002D14  B4D8               	btfsc	status,2,c
  2536   002D16  D00E               	goto	l1646
  2537                           
  2538                           ;mmc/uart3.c: 83:   data = au8_rx_buffer[u8_rx_tail];
  2539   002D18  0E01               	movlw	low _au8_rx_buffer
  2540   002D1A  2429               	addwf	_u8_rx_tail^(0+1280),w,c	;volatile
  2541   002D1C  6ED9               	movwf	fsr2l,c
  2542   002D1E  6ADA               	clrf	fsr2h,c
  2543   002D20  0E05               	movlw	high _au8_rx_buffer
  2544   002D22  22DA               	addwfc	fsr2h,f,c
  2545   002D24  50DF               	movf	indf2,w,c
  2546   002D26  6E3C               	movwf	UART3_Read@data^(0+1280),c
  2547                           
  2548                           ;mmc/uart3.c: 84:   u8_rx_tail = (u8_rx_tail + 1) & ((16) - 1);
  2549   002D28  2829               	incf	_u8_rx_tail^(0+1280),w,c	;volatile
  2550   002D2A  0B0F               	andlw	15
  2551   002D2C  6E29               	movwf	_u8_rx_tail^(0+1280),c	;volatile
  2552                           
  2553                           ;mmc/uart3.c: 85:   U3RXIE = 0;
  2554   002D2E  90A7               	bcf	1191,0,c	;volatile
  2555                           
  2556                           ;mmc/uart3.c: 86:   u8_rx_count--;
  2557   002D30  0628               	decf	_u8_rx_count^(0+1280),f,c	;volatile
  2558                           
  2559                           ;mmc/uart3.c: 87:   U3RXIE = 1;
  2560   002D32  80A7               	bsf	1191,0,c	;volatile
  2561   002D34                     l1646:
  2562                           
  2563                           ;mmc/uart3.c: 89:  return data;
  2564   002D34  503C               	movf	UART3_Read@data^(0+1280),w,c
  2565   002D36  0012               	return		;funcret
  2566   002D38                     __end_of_UART3_Read:
  2567                           	callstack 0
  2568                           
  2569 ;; *************** function _EchoStr *****************
  2570 ;; Defined at:
  2571 ;;		line 166 in file "mmc/system.c"
  2572 ;; Parameters:    Size  Location     Type
  2573 ;;  p_data          1    7[COMRAM] PTR unsigned char 
  2574 ;;		 -> acu8_msg_awake(19), acu8_msg_reset(19), 
  2575 ;; Auto vars:     Size  Location     Type
  2576 ;;		None
  2577 ;; Return value:  Size  Location     Type
  2578 ;;                  1    wreg      void 
  2579 ;; Registers used:
  2580 ;;		wreg, fsr2l, fsr2h, status,2, status,0, tblptrl, tblptrh, tblptru, cstack
  2581 ;; Tracked objects:
  2582 ;;		On entry : 0/4
  2583 ;;		On exit  : 0/0
  2584 ;;		Unchanged: 0/0
  2585 ;; Data sizes:     COMRAM   BANK5   BANK6   BANK7   BANK8   BANK9  BANK10  BANK11  BANK12  BANK13  BANK14  BANK15  BANK1
      +6  BANK17  BANK18  BANK19  BANK20  BANK21  BANK22  BANK23  BANK24  BANK25  BANK26  BANK27  BANK28  BANK29  BANK30  BANK3
      +1  BANK32  BANK33  BANK34  BANK35  BANK36
  2586 ;;      Params:         1       0       0       0       0       0       0       0       0       0       0       0       
      +0       0       0       0       0       0       0       0       0       0       0       0       0       0       0       
      +0       0       0       0       0       0
  2587 ;;      Locals:         0       0       0       0       0       0       0       0       0       0       0       0       
      +0       0       0       0       0       0       0       0       0       0       0       0       0       0       0       
      +0       0       0       0       0       0
  2588 ;;      Temps:          0       0       0       0       0       0       0       0       0       0       0       0       
      +0       0       0       0       0       0       0       0       0       0       0       0       0       0       0       
      +0       0       0       0       0       0
  2589 ;;      Totals:         1       0       0       0       0       0       0       0       0       0       0       0       
      +0       0       0       0       0       0       0       0       0       0       0       0       0       0       0       
      +0       0       0       0       0       0
  2590 ;;Total ram usage:        1 bytes
  2591 ;; Hardware stack levels used: 1
  2592 ;; Hardware stack levels required when called: 4
  2593 ;; This function calls:
  2594 ;;		_UART3_Write
  2595 ;; This function is called by:
  2596 ;;		_setup
  2597 ;;		_request_in
  2598 ;; This function uses a non-reentrant model
  2599 ;;
  2600                           
  2601                           	psect	text18
  2602   002CB0                     __ptext18:
  2603                           	callstack 0
  2604   002CB0                     _EchoStr:
  2605                           	callstack 121
  2606                           
  2607                           ;mmc/system.c: 167:  while (*p_data != 0x00) {
  2608                           
  2609                           ;incstack = 0
  2610   002CB0  D00B               	goto	l2434
  2611   002CB2                     l2430:
  2612                           
  2613                           ;mmc/system.c: 168:   UART3_Write(*p_data);
  2614   002CB2  C53D  F4F6         	movff	EchoStr@p_data,tblptrl
  2615   002CB6                     	if	1	;There is more than 1 active tblptr byte
  2616   002CB6  0E25               	movlw	high __smallconst
  2617   002CB8  6EF7               	movwf	tblptrh,c
  2618   002CBA                     	endif
  2619   002CBA                     	if	0	;tblptru may be non-zero
  2620   002CBA                     	endif
  2621   002CBA                     	if	1	;Program memory is > 0xFFFF, there are 3 active tblptr bytes
  2622   002CBA  0E00               	movlw	low (__smallconst shr (0+16))
  2623   002CBC  6EF8               	movwf	tblptru,c
  2624   002CBE                     	endif
  2625   002CBE  0008               	tblrd		*
  2626   002CC0  50F5               	movf	tablat,w,c
  2627   002CC2  ECEB  F016         	call	_UART3_Write
  2628                           
  2629                           ;mmc/system.c: 169:   p_data++;
  2630   002CC6  2A3D               	incf	EchoStr@p_data^(0+1280),f,c
  2631   002CC8                     l2434:
  2632                           
  2633                           ;mmc/system.c: 167:  while (*p_data != 0x00) {
  2634   002CC8  C53D  F4F6         	movff	EchoStr@p_data,tblptrl
  2635   002CCC                     	if	1	;There is more than 1 active tblptr byte
  2636   002CCC  0E25               	movlw	high __smallconst
  2637   002CCE  6EF7               	movwf	tblptrh,c
  2638   002CD0                     	endif
  2639   002CD0                     	if	0	;tblptru may be non-zero
  2640   002CD0                     	endif
  2641   002CD0                     	if	1	;Program memory is > 0xFFFF, there are 3 active tblptr bytes
  2642   002CD0  0E00               	movlw	low (__smallconst shr (0+16))
  2643   002CD2  6EF8               	movwf	tblptru,c
  2644   002CD4                     	endif
  2645   002CD4  0008               	tblrd		*
  2646   002CD6  50F5               	movf	tablat,w,c
  2647   002CD8  0900               	iorlw	0
  2648   002CDA  B4D8               	btfsc	status,2,c
  2649   002CDC  0012               	return	
  2650   002CDE  D7E9               	goto	l2430
  2651   002CE0                     __end_of_EchoStr:
  2652                           	callstack 0
  2653                           
  2654 ;; *************** function _UART3_Write *****************
  2655 ;; Defined at:
  2656 ;;		line 92 in file "mmc/uart3.c"
  2657 ;; Parameters:    Size  Location     Type
  2658 ;;  data            1    wreg     unsigned char 
  2659 ;; Auto vars:     Size  Location     Type
  2660 ;;  data            1    6[COMRAM] unsigned char 
  2661 ;; Return value:  Size  Location     Type
  2662 ;;                  1    wreg      void 
  2663 ;; Registers used:
  2664 ;;		wreg, fsr2l, fsr2h, status,2, status,0
  2665 ;; Tracked objects:
  2666 ;;		On entry : 0/3
  2667 ;;		On exit  : 0/0
  2668 ;;		Unchanged: 0/0
  2669 ;; Data sizes:     COMRAM   BANK5   BANK6   BANK7   BANK8   BANK9  BANK10  BANK11  BANK12  BANK13  BANK14  BANK15  BANK1
      +6  BANK17  BANK18  BANK19  BANK20  BANK21  BANK22  BANK23  BANK24  BANK25  BANK26  BANK27  BANK28  BANK29  BANK30  BANK3
      +1  BANK32  BANK33  BANK34  BANK35  BANK36
  2670 ;;      Params:         0       0       0       0       0       0       0       0       0       0       0       0       
      +0       0       0       0       0       0       0       0       0       0       0       0       0       0       0       
      +0       0       0       0       0       0
  2671 ;;      Locals:         1       0       0       0       0       0       0       0       0       0       0       0       
      +0       0       0       0       0       0       0       0       0       0       0       0       0       0       0       
      +0       0       0       0       0       0
  2672 ;;      Temps:          0       0       0       0       0       0       0       0       0       0       0       0       
      +0       0       0       0       0       0       0       0       0       0       0       0       0       0       0       
      +0       0       0       0       0       0
  2673 ;;      Totals:         1       0       0       0       0       0       0       0       0       0       0       0       
      +0       0       0       0       0       0       0       0       0       0       0       0       0       0       0       
      +0       0       0       0       0       0
  2674 ;;Total ram usage:        1 bytes
  2675 ;; Hardware stack levels used: 1
  2676 ;; Hardware stack levels required when called: 3
  2677 ;; This function calls:
  2678 ;;		Nothing
  2679 ;; This function is called by:
  2680 ;;		_EchoStr
  2681 ;;		_update_out
  2682 ;; This function uses a non-reentrant model
  2683 ;;
  2684                           
  2685                           	psect	text19
  2686   002DD6                     __ptext19:
  2687                           	callstack 0
  2688   002DD6                     _UART3_Write:
  2689                           	callstack 121
  2690                           
  2691                           ;incstack = 0
  2692                           ;UART3_Write@data stored from wreg
  2693   002DD6  6E3C               	movwf	UART3_Write@data^(0+1280),c
  2694                           
  2695                           ;mmc/uart3.c: 93:  if (u8_tx_count < (16)) {
  2696   002DD8  0E10               	movlw	16
  2697   002DDA  6025               	cpfslt	_u8_tx_count^(0+1280),c	;volatile
  2698   002DDC  D00D               	goto	l2386
  2699                           
  2700                           ;mmc/uart3.c: 94:   au8_tx_buffer[u8_tx_head] = data;
  2701   002DDE  0E60               	movlw	low _au8_tx_buffer
  2702   002DE0  2427               	addwf	_u8_tx_head^(0+1280),w,c	;volatile
  2703   002DE2  6ED9               	movwf	fsr2l,c
  2704   002DE4  6ADA               	clrf	fsr2h,c
  2705   002DE6  0E05               	movlw	high _au8_tx_buffer
  2706   002DE8  22DA               	addwfc	fsr2h,f,c
  2707   002DEA  C53C  F4DF         	movff	UART3_Write@data,indf2
  2708                           
  2709                           ;mmc/uart3.c: 95:   u8_tx_head = (u8_tx_head + 1) & ((16) - 1);
  2710   002DEE  2827               	incf	_u8_tx_head^(0+1280),w,c	;volatile
  2711   002DF0  0B0F               	andlw	15
  2712   002DF2  6E27               	movwf	_u8_tx_head^(0+1280),c	;volatile
  2713                           
  2714                           ;mmc/uart3.c: 96:   U3TXIE = 0;
  2715   002DF4  92A7               	bcf	1191,1,c	;volatile
  2716                           
  2717                           ;mmc/uart3.c: 97:   u8_tx_count++;
  2718   002DF6  2A25               	incf	_u8_tx_count^(0+1280),f,c	;volatile
  2719   002DF8                     l2386:
  2720                           
  2721                           ;mmc/uart3.c: 99:  U3TXIE = 1;
  2722   002DF8  82A7               	bsf	1191,1,c	;volatile
  2723   002DFA  0012               	return		;funcret
  2724   002DFC                     __end_of_UART3_Write:
  2725                           	callstack 0
  2726                           
  2727 ;; *************** function _TimerStart *****************
  2728 ;; Defined at:
  2729 ;;		line 136 in file "mmc/system.c"
  2730 ;; Parameters:    Size  Location     Type
  2731 ;;  p_timer         2    6[COMRAM] PTR unsigned short 
  2732 ;;		 -> u16_timer_200m(2), u16_timer_1s(2), 
  2733 ;; Auto vars:     Size  Location     Type
  2734 ;;		None
  2735 ;; Return value:  Size  Location     Type
  2736 ;;                  1    wreg      void 
  2737 ;; Registers used:
  2738 ;;		fsr2l, fsr2h
  2739 ;; Tracked objects:
  2740 ;;		On entry : 0/0
  2741 ;;		On exit  : 0/0
  2742 ;;		Unchanged: 0/0
  2743 ;; Data sizes:     COMRAM   BANK5   BANK6   BANK7   BANK8   BANK9  BANK10  BANK11  BANK12  BANK13  BANK14  BANK15  BANK1
      +6  BANK17  BANK18  BANK19  BANK20  BANK21  BANK22  BANK23  BANK24  BANK25  BANK26  BANK27  BANK28  BANK29  BANK30  BANK3
      +1  BANK32  BANK33  BANK34  BANK35  BANK36
  2744 ;;      Params:         2       0       0       0       0       0       0       0       0       0       0       0       
      +0       0       0       0       0       0       0       0       0       0       0       0       0       0       0       
      +0       0       0       0       0       0
  2745 ;;      Locals:         0       0       0       0       0       0       0       0       0       0       0       0       
      +0       0       0       0       0       0       0       0       0       0       0       0       0       0       0       
      +0       0       0       0       0       0
  2746 ;;      Temps:          0       0       0       0       0       0       0       0       0       0       0       0       
      +0       0       0       0       0       0       0       0       0       0       0       0       0       0       0       
      +0       0       0       0       0       0
  2747 ;;      Totals:         2       0       0       0       0       0       0       0       0       0       0       0       
      +0       0       0       0       0       0       0       0       0       0       0       0       0       0       0       
      +0       0       0       0       0       0
  2748 ;;Total ram usage:        2 bytes
  2749 ;; Hardware stack levels used: 1
  2750 ;; Hardware stack levels required when called: 3
  2751 ;; This function calls:
  2752 ;;		Nothing
  2753 ;; This function is called by:
  2754 ;;		_setup
  2755 ;;		_loop
  2756 ;; This function uses a non-reentrant model
  2757 ;;
  2758                           
  2759                           	psect	text20
  2760   002F6A                     __ptext20:
  2761                           	callstack 0
  2762   002F6A                     _TimerStart:
  2763                           	callstack 122
  2764                           
  2765                           ;mmc/system.c: 137:  *p_timer = (0x0000);
  2766                           
  2767                           ;incstack = 0
  2768   002F6A  C53C  F4D9         	movff	TimerStart@p_timer,fsr2l
  2769   002F6E  C53D  F4DA         	movff	TimerStart@p_timer+1,fsr2h
  2770   002F72  6ADE               	clrf	postinc2,c
  2771   002F74  6ADD               	clrf	postdec2,c
  2772   002F76  0012               	return		;funcret
  2773   002F78                     __end_of_TimerStart:
  2774                           	callstack 0
  2775                           
  2776 ;; *************** function _TimerCheck *****************
  2777 ;; Defined at:
  2778 ;;		line 144 in file "mmc/system.c"
  2779 ;; Parameters:    Size  Location     Type
  2780 ;;  p_timer         2    6[COMRAM] PTR unsigned short 
  2781 ;;		 -> u16_timer_200m(2), u16_timer_1s(2), 
  2782 ;;  time            2    8[COMRAM] unsigned short 
  2783 ;; Auto vars:     Size  Location     Type
  2784 ;;  ret_val         1   12[COMRAM] unsigned char 
  2785 ;; Return value:  Size  Location     Type
  2786 ;;                  1    wreg      unsigned char 
  2787 ;; Registers used:
  2788 ;;		wreg, fsr2l, fsr2h, status,2, status,0
  2789 ;; Tracked objects:
  2790 ;;		On entry : 0/3
  2791 ;;		On exit  : 0/0
  2792 ;;		Unchanged: 0/0
  2793 ;; Data sizes:     COMRAM   BANK5   BANK6   BANK7   BANK8   BANK9  BANK10  BANK11  BANK12  BANK13  BANK14  BANK15  BANK1
      +6  BANK17  BANK18  BANK19  BANK20  BANK21  BANK22  BANK23  BANK24  BANK25  BANK26  BANK27  BANK28  BANK29  BANK30  BANK3
      +1  BANK32  BANK33  BANK34  BANK35  BANK36
  2794 ;;      Params:         4       0       0       0       0       0       0       0       0       0       0       0       
      +0       0       0       0       0       0       0       0       0       0       0       0       0       0       0       
      +0       0       0       0       0       0
  2795 ;;      Locals:         1       0       0       0       0       0       0       0       0       0       0       0       
      +0       0       0       0       0       0       0       0       0       0       0       0       0       0       0       
      +0       0       0       0       0       0
  2796 ;;      Temps:          2       0       0       0       0       0       0       0       0       0       0       0       
      +0       0       0       0       0       0       0       0       0       0       0       0       0       0       0       
      +0       0       0       0       0       0
  2797 ;;      Totals:         7       0       0       0       0       0       0       0       0       0       0       0       
      +0       0       0       0       0       0       0       0       0       0       0       0       0       0       0       
      +0       0       0       0       0       0
  2798 ;;Total ram usage:        7 bytes
  2799 ;; Hardware stack levels used: 1
  2800 ;; Hardware stack levels required when called: 3
  2801 ;; This function calls:
  2802 ;;		Nothing
  2803 ;; This function is called by:
  2804 ;;		_loop
  2805 ;; This function uses a non-reentrant model
  2806 ;;
  2807                           
  2808                           	psect	text21
  2809   002980                     __ptext21:
  2810                           	callstack 0
  2811   002980                     _TimerCheck:
  2812                           	callstack 122
  2813                           
  2814                           ;mmc/system.c: 145:  uint8_t ret_val = (0);
  2815                           
  2816                           ;incstack = 0
  2817   002980  0E00               	movlw	0
  2818   002982  6E42               	movwf	TimerCheck@ret_val^(0+1280),c
  2819                           
  2820                           ;mmc/system.c: 146:  if (*p_timer == (0xFFFF)) {
  2821   002984  C53C  F4D9         	movff	TimerCheck@p_timer,fsr2l
  2822   002988  C53D  F4DA         	movff	TimerCheck@p_timer+1,fsr2h
  2823   00298C  28DE               	incf	postinc2,w,c
  2824   00298E  E103               	bnz	l2510
  2825   002990  28DE               	incf	postinc2,w,c
  2826   002992  B4D8               	btfsc	status,2,c
  2827   002994  D01B               	goto	l2516
  2828   002996                     l2510:
  2829                           
  2830                           ;mmc/system.c: 149:   (*p_timer)++;
  2831   002996  C53C  F4D9         	movff	TimerCheck@p_timer,fsr2l
  2832   00299A  C53D  F4DA         	movff	TimerCheck@p_timer+1,fsr2h
  2833   00299E  2ADE               	incf	postinc2,f,c
  2834   0029A0  0E00               	movlw	0
  2835   0029A2  22DD               	addwfc	postdec2,f,c
  2836                           
  2837                           ;mmc/system.c: 150:   if (*p_timer >= time) {
  2838   0029A4  C53C  F4D9         	movff	TimerCheck@p_timer,fsr2l
  2839   0029A8  C53D  F4DA         	movff	TimerCheck@p_timer+1,fsr2h
  2840   0029AC  503E               	movf	TimerCheck@time^(0+1280),w,c
  2841   0029AE  5CDE               	subwf	postinc2,w,c
  2842   0029B0  503F               	movf	(TimerCheck@time+1)^(0+1280),w,c
  2843   0029B2  58DE               	subwfb	postinc2,w,c
  2844   0029B4  A0D8               	btfss	status,0,c
  2845   0029B6  D00A               	goto	l2516
  2846                           
  2847                           ;mmc/system.c: 151:    *p_timer = (0xFFFF);
  2848   0029B8  C53C  F4D9         	movff	TimerCheck@p_timer,fsr2l
  2849   0029BC  C53D  F4DA         	movff	TimerCheck@p_timer+1,fsr2h
  2850   0029C0  0EFF               	movlw	255
  2851   0029C2  6EDE               	movwf	postinc2,c
  2852   0029C4  0EFF               	movlw	255
  2853   0029C6  6EDD               	movwf	postdec2,c
  2854                           
  2855                           ;mmc/system.c: 152:    ret_val = (1);
  2856   0029C8  0E01               	movlw	1
  2857   0029CA  6E42               	movwf	TimerCheck@ret_val^(0+1280),c
  2858   0029CC                     l2516:
  2859                           
  2860                           ;mmc/system.c: 155:  return ret_val;
  2861   0029CC  5042               	movf	TimerCheck@ret_val^(0+1280),w,c
  2862   0029CE  0012               	return		;funcret
  2863   0029D0                     __end_of_TimerCheck:
  2864                           	callstack 0
  2865                           
  2866 ;; *************** function _MCP23S17_UpdateState *****************
  2867 ;; Defined at:
  2868 ;;		line 226 in file "mix_sam04.c"
  2869 ;; Parameters:    Size  Location     Type
  2870 ;;		None
  2871 ;; Auto vars:     Size  Location     Type
  2872 ;;		None
  2873 ;; Return value:  Size  Location     Type
  2874 ;;                  1    wreg      void 
  2875 ;; Registers used:
  2876 ;;		wreg, fsr2l, fsr2h, status,2, status,0, cstack
  2877 ;; Tracked objects:
  2878 ;;		On entry : 0/3
  2879 ;;		On exit  : 0/0
  2880 ;;		Unchanged: 0/0
  2881 ;; Data sizes:     COMRAM   BANK5   BANK6   BANK7   BANK8   BANK9  BANK10  BANK11  BANK12  BANK13  BANK14  BANK15  BANK1
      +6  BANK17  BANK18  BANK19  BANK20  BANK21  BANK22  BANK23  BANK24  BANK25  BANK26  BANK27  BANK28  BANK29  BANK30  BANK3
      +1  BANK32  BANK33  BANK34  BANK35  BANK36
  2882 ;;      Params:         0       0       0       0       0       0       0       0       0       0       0       0       
      +0       0       0       0       0       0       0       0       0       0       0       0       0       0       0       
      +0       0       0       0       0       0
  2883 ;;      Locals:         0       0       0       0       0       0       0       0       0       0       0       0       
      +0       0       0       0       0       0       0       0       0       0       0       0       0       0       0       
      +0       0       0       0       0       0
  2884 ;;      Temps:          2       0       0       0       0       0       0       0       0       0       0       0       
      +0       0       0       0       0       0       0       0       0       0       0       0       0       0       0       
      +0       0       0       0       0       0
  2885 ;;      Totals:         2       0       0       0       0       0       0       0       0       0       0       0       
      +0       0       0       0       0       0       0       0       0       0       0       0       0       0       0       
      +0       0       0       0       0       0
  2886 ;;Total ram usage:        2 bytes
  2887 ;; Hardware stack levels used: 1
  2888 ;; Hardware stack levels required when called: 5
  2889 ;; This function calls:
  2890 ;;		_MCP23S17_Read
  2891 ;;		_MCP23S17_Write
  2892 ;; This function is called by:
  2893 ;;		_loop
  2894 ;; This function uses a non-reentrant model
  2895 ;;
  2896                           
  2897                           	psect	text22
  2898   002B26                     __ptext22:
  2899                           	callstack 0
  2900   002B26                     _MCP23S17_UpdateState:
  2901                           	callstack 120
  2902                           
  2903                           ;mix_sam04.c: 227:  switch (u8_state_spi) {
  2904                           
  2905                           ;incstack = 0
  2906   002B26  D00F               	goto	l2606
  2907   002B28                     l2594:
  2908                           
  2909                           ;mix_sam04.c: 229:   u8_data_spi_read = MCP23S17_Read((0x12));
  2910   002B28  0E12               	movlw	18
  2911   002B2A  ECB0  F016         	call	_MCP23S17_Read
  2912   002B2E  6E21               	movwf	_u8_data_spi_read^(0+1280),c
  2913                           
  2914                           ; BSR set to: 0
  2915                           ;mix_sam04.c: 230:   u8_state_spi = STATE_WAIT_WRITE;
  2916   002B30  0E01               	movlw	1
  2917   002B32  6E22               	movwf	_u8_state_spi^(0+1280),c
  2918                           
  2919                           ;mix_sam04.c: 231:   break;
  2920   002B34  0012               	return	
  2921   002B36                     l2598:
  2922                           
  2923                           ;mix_sam04.c: 233:   MCP23S17_Write((0x15), u8_data_spi_read);
  2924   002B36  C521  F542         	movff	_u8_data_spi_read,MCP23S17_Write@data
  2925   002B3A  0E15               	movlw	21
  2926   002B3C  EC9C  F016         	call	_MCP23S17_Write
  2927   002B40                     l2600:
  2928                           
  2929                           ;mix_sam04.c: 234:   u8_state_spi = STATE_WAIT_READ;
  2930   002B40  0E00               	movlw	0
  2931   002B42  6E22               	movwf	_u8_state_spi^(0+1280),c
  2932                           
  2933                           ;mix_sam04.c: 235:   break;
  2934   002B44  0012               	return	
  2935   002B46                     l2606:
  2936   002B46  5022               	movf	_u8_state_spi^(0+1280),w,c
  2937   002B48  6E44               	movwf	??_MCP23S17_UpdateState^(0+1280),c
  2938   002B4A  6A45               	clrf	(??_MCP23S17_UpdateState+1)^(0+1280),c
  2939                           
  2940                           ; Switch on 2 bytes has been partitioned into a top level switch of size 1, and 1 sub-sw
      +                          itches
  2941                           ; Switch size 1, requested type "simple"
  2942                           ; Number of cases is 1, Range of values is 0 to 0
  2943                           ; switch strategies available:
  2944                           ; Name         Instructions Cycles
  2945                           ; simple_byte            4     3 (average)
  2946                           ;	Chosen strategy is simple_byte
  2947   002B4C  5045               	movf	(??_MCP23S17_UpdateState+1)^(0+1280),w,c
  2948   002B4E  0A00               	xorlw	0	; case 0
  2949   002B50  A4D8               	btfss	status,2,c
  2950   002B52  D7F6               	goto	l2600
  2951                           
  2952                           ; Switch size 1, requested type "simple"
  2953                           ; Number of cases is 2, Range of values is 0 to 1
  2954                           ; switch strategies available:
  2955                           ; Name         Instructions Cycles
  2956                           ; simple_byte            7     4 (average)
  2957                           ;	Chosen strategy is simple_byte
  2958   002B54  5044               	movf	??_MCP23S17_UpdateState^(0+1280),w,c
  2959   002B56  0A00               	xorlw	0	; case 0
  2960   002B58  B4D8               	btfsc	status,2,c
  2961   002B5A  D7E6               	goto	l2594
  2962   002B5C  0A01               	xorlw	1	; case 1
  2963   002B5E  B4D8               	btfsc	status,2,c
  2964   002B60  D7EA               	goto	l2598
  2965   002B62  D7EE               	goto	l2600
  2966   002B64                     __end_of_MCP23S17_UpdateState:
  2967                           	callstack 0
  2968                           
  2969 ;; *************** function _MCP23S17_Write *****************
  2970 ;; Defined at:
  2971 ;;		line 207 in file "mix_sam04.c"
  2972 ;; Parameters:    Size  Location     Type
  2973 ;;  reg_addr        1    wreg     unsigned char 
  2974 ;;  data            1   12[COMRAM] unsigned char 
  2975 ;; Auto vars:     Size  Location     Type
  2976 ;;  reg_addr        1   13[COMRAM] unsigned char 
  2977 ;; Return value:  Size  Location     Type
  2978 ;;                  1    wreg      void 
  2979 ;; Registers used:
  2980 ;;		wreg, fsr2l, fsr2h, status,2, status,0, cstack
  2981 ;; Tracked objects:
  2982 ;;		On entry : 0/0
  2983 ;;		On exit  : 3F/0
  2984 ;;		Unchanged: 0/0
  2985 ;; Data sizes:     COMRAM   BANK5   BANK6   BANK7   BANK8   BANK9  BANK10  BANK11  BANK12  BANK13  BANK14  BANK15  BANK1
      +6  BANK17  BANK18  BANK19  BANK20  BANK21  BANK22  BANK23  BANK24  BANK25  BANK26  BANK27  BANK28  BANK29  BANK30  BANK3
      +1  BANK32  BANK33  BANK34  BANK35  BANK36
  2986 ;;      Params:         1       0       0       0       0       0       0       0       0       0       0       0       
      +0       0       0       0       0       0       0       0       0       0       0       0       0       0       0       
      +0       0       0       0       0       0
  2987 ;;      Locals:         1       0       0       0       0       0       0       0       0       0       0       0       
      +0       0       0       0       0       0       0       0       0       0       0       0       0       0       0       
      +0       0       0       0       0       0
  2988 ;;      Temps:          0       0       0       0       0       0       0       0       0       0       0       0       
      +0       0       0       0       0       0       0       0       0       0       0       0       0       0       0       
      +0       0       0       0       0       0
  2989 ;;      Totals:         2       0       0       0       0       0       0       0       0       0       0       0       
      +0       0       0       0       0       0       0       0       0       0       0       0       0       0       0       
      +0       0       0       0       0       0
  2990 ;;Total ram usage:        2 bytes
  2991 ;; Hardware stack levels used: 1
  2992 ;; Hardware stack levels required when called: 4
  2993 ;; This function calls:
  2994 ;;		_SPI1_BufferExchange
  2995 ;; This function is called by:
  2996 ;;		_MCP23S17_Initialize
  2997 ;;		_MCP23S17_UpdateState
  2998 ;; This function uses a non-reentrant model
  2999 ;;
  3000                           
  3001                           	psect	text23
  3002   002D38                     __ptext23:
  3003                           	callstack 0
  3004   002D38                     _MCP23S17_Write:
  3005                           	callstack 120
  3006                           
  3007                           ;incstack = 0
  3008                           ;MCP23S17_Write@reg_addr stored from wreg
  3009   002D38  6E43               	movwf	MCP23S17_Write@reg_addr^(0+1280),c
  3010                           
  3011                           ;mix_sam04.c: 208:  au8_data_spi_buffer[0] = (0x40);
  3012   002D3A  0E40               	movlw	64
  3013   002D3C  6E2C               	movwf	_au8_data_spi_buffer^(0+1280),c
  3014                           
  3015                           ;mix_sam04.c: 209:  au8_data_spi_buffer[1] = reg_addr;
  3016   002D3E  C543  F52D         	movff	MCP23S17_Write@reg_addr,_au8_data_spi_buffer+1
  3017                           
  3018                           ;mix_sam04.c: 210:  au8_data_spi_buffer[2] = data;
  3019   002D42  C542  F52E         	movff	MCP23S17_Write@data,_au8_data_spi_buffer+2
  3020                           
  3021                           ;mix_sam04.c: 211:  LATC7 = 0;
  3022   002D46  9EC0               	bcf	1216,7,c	;volatile
  3023                           
  3024                           ;mix_sam04.c: 212:  SPI1_BufferExchange(&au8_data_spi_buffer[0], (3));
  3025   002D48  0E2C               	movlw	low _au8_data_spi_buffer
  3026   002D4A  6E3C               	movwf	SPI1_BufferExchange@bufferData^(0+1280),c
  3027   002D4C  0E05               	movlw	high _au8_data_spi_buffer
  3028   002D4E  6E3D               	movwf	(SPI1_BufferExchange@bufferData+1)^(0+1280),c
  3029   002D50  0E00               	movlw	0
  3030   002D52  6E3F               	movwf	(SPI1_BufferExchange@bufferSize+1)^(0+1280),c
  3031   002D54  0E03               	movlw	3
  3032   002D56  6E3E               	movwf	SPI1_BufferExchange@bufferSize^(0+1280),c
  3033   002D58  EC2D  F015         	call	_SPI1_BufferExchange	;wreg free
  3034                           
  3035                           ; BSR set to: 0
  3036                           ;mix_sam04.c: 213:  LATC7 = 1;
  3037   002D5C  8EC0               	bsf	1216,7,c	;volatile
  3038                           
  3039                           ; BSR set to: 0
  3040   002D5E  0012               	return		;funcret
  3041   002D60                     __end_of_MCP23S17_Write:
  3042                           	callstack 0
  3043                           
  3044 ;; *************** function _MCP23S17_Read *****************
  3045 ;; Defined at:
  3046 ;;		line 216 in file "mix_sam04.c"
  3047 ;; Parameters:    Size  Location     Type
  3048 ;;  reg_addr        1    wreg     unsigned char 
  3049 ;; Auto vars:     Size  Location     Type
  3050 ;;  reg_addr        1    0[COMRAM] unsigned char 
  3051 ;; Return value:  Size  Location     Type
  3052 ;;                  1    wreg      unsigned char 
  3053 ;; Registers used:
  3054 ;;		wreg, fsr2l, fsr2h, status,2, status,0, cstack
  3055 ;; Tracked objects:
  3056 ;;		On entry : 0/3
  3057 ;;		On exit  : 3F/0
  3058 ;;		Unchanged: 0/0
  3059 ;; Data sizes:     COMRAM   BANK5   BANK6   BANK7   BANK8   BANK9  BANK10  BANK11  BANK12  BANK13  BANK14  BANK15  BANK1
      +6  BANK17  BANK18  BANK19  BANK20  BANK21  BANK22  BANK23  BANK24  BANK25  BANK26  BANK27  BANK28  BANK29  BANK30  BANK3
      +1  BANK32  BANK33  BANK34  BANK35  BANK36
  3060 ;;      Params:         0       0       0       0       0       0       0       0       0       0       0       0       
      +0       0       0       0       0       0       0       0       0       0       0       0       0       0       0       
      +0       0       0       0       0       0
  3061 ;;      Locals:         0       0       0       0       0       0       0       0       0       0       0       0       
      +0       0       0       0       0       0       0       0       0       0       0       0       0       0       0       
      +0       0       0       0       0       0
  3062 ;;      Temps:          0       0       0       0       0       0       0       0       0       0       0       0       
      +0       0       0       0       0       0       0       0       0       0       0       0       0       0       0       
      +0       0       0       0       0       0
  3063 ;;      Totals:         0       0       0       0       0       0       0       0       0       0       0       0       
      +0       0       0       0       0       0       0       0       0       0       0       0       0       0       0       
      +0       0       0       0       0       0
  3064 ;;Total ram usage:        0 bytes
  3065 ;; Hardware stack levels used: 1
  3066 ;; Hardware stack levels required when called: 4
  3067 ;; This function calls:
  3068 ;;		_SPI1_BufferExchange
  3069 ;; This function is called by:
  3070 ;;		_MCP23S17_UpdateState
  3071 ;; This function uses a non-reentrant model
  3072 ;;
  3073                           
  3074                           	psect	text24
  3075   002D60                     __ptext24:
  3076                           	callstack 0
  3077   002D60                     _MCP23S17_Read:
  3078                           	callstack 120
  3079                           
  3080                           ;mix_sam04.c: 217:  au8_data_spi_buffer[0] = (0x40) | 1;
  3081                           
  3082                           ; BSR set to: 0
  3083                           ;incstack = 0
  3084   002D60  0E41               	movlw	65
  3085   002D62  6E2C               	movwf	_au8_data_spi_buffer^(0+1280),c
  3086                           
  3087                           ;mix_sam04.c: 218:  au8_data_spi_buffer[1] = (0x12);
  3088   002D64  0E12               	movlw	18
  3089   002D66  6E2D               	movwf	(_au8_data_spi_buffer+1)^(0+1280),c
  3090                           
  3091                           ;mix_sam04.c: 219:  au8_data_spi_buffer[2] = 0x00;
  3092   002D68  0E00               	movlw	0
  3093   002D6A  6E2E               	movwf	(_au8_data_spi_buffer+2)^(0+1280),c
  3094                           
  3095                           ;mix_sam04.c: 220:  LATC7 = 0;
  3096   002D6C  9EC0               	bcf	1216,7,c	;volatile
  3097                           
  3098                           ;mix_sam04.c: 221:  SPI1_BufferExchange(&au8_data_spi_buffer[0], (3));
  3099   002D6E  0E2C               	movlw	low _au8_data_spi_buffer
  3100   002D70  6E3C               	movwf	SPI1_BufferExchange@bufferData^(0+1280),c
  3101   002D72  0E05               	movlw	high _au8_data_spi_buffer
  3102   002D74  6E3D               	movwf	(SPI1_BufferExchange@bufferData+1)^(0+1280),c
  3103   002D76  0E00               	movlw	0
  3104   002D78  6E3F               	movwf	(SPI1_BufferExchange@bufferSize+1)^(0+1280),c
  3105   002D7A  0E03               	movlw	3
  3106   002D7C  6E3E               	movwf	SPI1_BufferExchange@bufferSize^(0+1280),c
  3107   002D7E  EC2D  F015         	call	_SPI1_BufferExchange	;wreg free
  3108                           
  3109                           ; BSR set to: 0
  3110                           ;mix_sam04.c: 222:  LATC7 = 1;
  3111   002D82  8EC0               	bsf	1216,7,c	;volatile
  3112                           
  3113                           ; BSR set to: 0
  3114                           ;mix_sam04.c: 223:  return au8_data_spi_buffer[2];
  3115   002D84  502E               	movf	(_au8_data_spi_buffer+2)^(0+1280),w,c
  3116                           
  3117                           ; BSR set to: 0
  3118   002D86  0012               	return		;funcret
  3119   002D88                     __end_of_MCP23S17_Read:
  3120                           	callstack 0
  3121                           
  3122 ;; *************** function _SPI1_BufferExchange *****************
  3123 ;; Defined at:
  3124 ;;		line 134 in file "mmc/spi1.c"
  3125 ;; Parameters:    Size  Location     Type
  3126 ;;  bufferData      2    6[COMRAM] PTR void 
  3127 ;;		 -> au8_data_spi_buffer(3), 
  3128 ;;  bufferSize      2    8[COMRAM] unsigned int 
  3129 ;; Auto vars:     Size  Location     Type
  3130 ;;  bufferInput     2   10[COMRAM] PTR unsigned char 
  3131 ;;		 -> au8_data_spi_buffer(3), 
  3132 ;; Return value:  Size  Location     Type
  3133 ;;                  1    wreg      void 
  3134 ;; Registers used:
  3135 ;;		wreg, fsr2l, fsr2h, status,2, status,0
  3136 ;; Tracked objects:
  3137 ;;		On entry : 0/0
  3138 ;;		On exit  : 3F/0
  3139 ;;		Unchanged: 0/0
  3140 ;; Data sizes:     COMRAM   BANK5   BANK6   BANK7   BANK8   BANK9  BANK10  BANK11  BANK12  BANK13  BANK14  BANK15  BANK1
      +6  BANK17  BANK18  BANK19  BANK20  BANK21  BANK22  BANK23  BANK24  BANK25  BANK26  BANK27  BANK28  BANK29  BANK30  BANK3
      +1  BANK32  BANK33  BANK34  BANK35  BANK36
  3141 ;;      Params:         4       0       0       0       0       0       0       0       0       0       0       0       
      +0       0       0       0       0       0       0       0       0       0       0       0       0       0       0       
      +0       0       0       0       0       0
  3142 ;;      Locals:         2       0       0       0       0       0       0       0       0       0       0       0       
      +0       0       0       0       0       0       0       0       0       0       0       0       0       0       0       
      +0       0       0       0       0       0
  3143 ;;      Temps:          0       0       0       0       0       0       0       0       0       0       0       0       
      +0       0       0       0       0       0       0       0       0       0       0       0       0       0       0       
      +0       0       0       0       0       0
  3144 ;;      Totals:         6       0       0       0       0       0       0       0       0       0       0       0       
      +0       0       0       0       0       0       0       0       0       0       0       0       0       0       0       
      +0       0       0       0       0       0
  3145 ;;Total ram usage:        6 bytes
  3146 ;; Hardware stack levels used: 1
  3147 ;; Hardware stack levels required when called: 3
  3148 ;; This function calls:
  3149 ;;		Nothing
  3150 ;; This function is called by:
  3151 ;;		_MCP23S17_Write
  3152 ;;		_MCP23S17_Read
  3153 ;; This function uses a non-reentrant model
  3154 ;;
  3155                           
  3156                           	psect	text25
  3157   002A5A                     __ptext25:
  3158                           	callstack 0
  3159   002A5A                     _SPI1_BufferExchange:
  3160                           	callstack 120
  3161                           
  3162                           ;mmc/spi1.c: 134: void SPI1_BufferExchange(void *bufferData, size_t bufferSize);mmc/spi1
      +                          .c: 135: {;mmc/spi1.c: 136:  uint8_t* bufferInput = bufferData;
  3163                           
  3164                           ; BSR set to: 0
  3165                           ;incstack = 0
  3166   002A5A  C53C  F540         	movff	SPI1_BufferExchange@bufferData,SPI1_BufferExchange@bufferInput
  3167   002A5E  C53D  F541         	movff	SPI1_BufferExchange@bufferData+1,SPI1_BufferExchange@bufferInput+1
  3168                           
  3169                           ;mmc/spi1.c: 139:  SPI1TCNTH = (uint8_t)(bufferSize>>8);
  3170   002A62  C53F  F083         	movff	SPI1_BufferExchange@bufferSize+1,131	;volatile
  3171                           
  3172                           ;mmc/spi1.c: 140:  SPI1TCNTL = (uint8_t)(bufferSize);
  3173   002A66  C53E  F082         	movff	SPI1_BufferExchange@bufferSize,130	;volatile
  3174                           
  3175                           ;mmc/spi1.c: 143:     SPI1CON2 = ((SPI1CON2) | (0x1) | (0x2));
  3176   002A6A  0100               	movlb	0	; () banked
  3177   002A6C  5186               	movf	134,w,b	;volatile
  3178   002A6E  0903               	iorlw	3
  3179   002A70  6F86               	movwf	134,b	;volatile
  3180                           
  3181                           ;mmc/spi1.c: 145:  while(0U == SPI1INTFbits.TCZIF)
  3182   002A72  D010               	goto	l2400
  3183   002A74                     l2394:
  3184                           
  3185                           ; BSR set to: 0
  3186                           ;mmc/spi1.c: 146:  {;mmc/spi1.c: 148:   SPI1TXB = *bufferInput;
  3187   002A74  C540  F4D9         	movff	SPI1_BufferExchange@bufferInput,fsr2l
  3188   002A78  C541  F4DA         	movff	SPI1_BufferExchange@bufferInput+1,fsr2h
  3189   002A7C  50DF               	movf	indf2,w,c
  3190   002A7E  6F81               	movwf	129,b	;volatile
  3191   002A80                     l540:
  3192                           
  3193                           ;mmc/spi1.c: 149:   while(!PIR3bits.SPI1RXIF)
  3194   002A80  A0B1               	btfss	177,0,c	;volatile
  3195   002A82  D7FE               	goto	l540
  3196                           
  3197                           ;mmc/spi1.c: 155:   *bufferInput = SPI1RXB;
  3198   002A84  C540  F4D9         	movff	SPI1_BufferExchange@bufferInput,fsr2l
  3199   002A88  C541  F4DA         	movff	SPI1_BufferExchange@bufferInput+1,fsr2h
  3200   002A8C  C080 F4DF          	movff	128,indf2	;volatile
  3201                           
  3202                           ;mmc/spi1.c: 156:   bufferInput++;
  3203   002A90  4A40               	infsnz	SPI1_BufferExchange@bufferInput^(0+1280),f,c
  3204   002A92  2A41               	incf	(SPI1_BufferExchange@bufferInput+1)^(0+1280),f,c
  3205   002A94                     l2400:
  3206                           
  3207                           ;mmc/spi1.c: 145:  while(0U == SPI1INTFbits.TCZIF)
  3208   002A94  0100               	movlb	0	; () banked
  3209   002A96  AD8A               	btfss	138,6,b	;volatile
  3210   002A98  D7ED               	goto	l2394
  3211                           
  3212                           ; BSR set to: 0
  3213                           ;mmc/spi1.c: 159:  SPI1INTFbits.TCZIF = 0U;
  3214   002A9A  9D8A               	bcf	138,6,b	;volatile
  3215                           
  3216                           ; BSR set to: 0
  3217   002A9C  0012               	return		;funcret
  3218   002A9E                     __end_of_SPI1_BufferExchange:
  3219                           	callstack 0
  3220                           
  3221 ;; *************** function _MCP23017_UpdateState *****************
  3222 ;; Defined at:
  3223 ;;		line 171 in file "mix_sam04.c"
  3224 ;; Parameters:    Size  Location     Type
  3225 ;;		None
  3226 ;; Auto vars:     Size  Location     Type
  3227 ;;		None
  3228 ;; Return value:  Size  Location     Type
  3229 ;;                  1    wreg      void 
  3230 ;; Registers used:
  3231 ;;		wreg, status,2, status,0, cstack
  3232 ;; Tracked objects:
  3233 ;;		On entry : 0/3
  3234 ;;		On exit  : 0/0
  3235 ;;		Unchanged: 0/0
  3236 ;; Data sizes:     COMRAM   BANK5   BANK6   BANK7   BANK8   BANK9  BANK10  BANK11  BANK12  BANK13  BANK14  BANK15  BANK1
      +6  BANK17  BANK18  BANK19  BANK20  BANK21  BANK22  BANK23  BANK24  BANK25  BANK26  BANK27  BANK28  BANK29  BANK30  BANK3
      +1  BANK32  BANK33  BANK34  BANK35  BANK36
  3237 ;;      Params:         0       0       0       0       0       0       0       0       0       0       0       0       
      +0       0       0       0       0       0       0       0       0       0       0       0       0       0       0       
      +0       0       0       0       0       0
  3238 ;;      Locals:         0       0       0       0       0       0       0       0       0       0       0       0       
      +0       0       0       0       0       0       0       0       0       0       0       0       0       0       0       
      +0       0       0       0       0       0
  3239 ;;      Temps:          2       0       0       0       0       0       0       0       0       0       0       0       
      +0       0       0       0       0       0       0       0       0       0       0       0       0       0       0       
      +0       0       0       0       0       0
  3240 ;;      Totals:         2       0       0       0       0       0       0       0       0       0       0       0       
      +0       0       0       0       0       0       0       0       0       0       0       0       0       0       0       
      +0       0       0       0       0       0
  3241 ;;Total ram usage:        2 bytes
  3242 ;; Hardware stack levels used: 1
  3243 ;; Hardware stack levels required when called: 6
  3244 ;; This function calls:
  3245 ;;		_I2C1_IsBusy
  3246 ;;		_I2C1_Write
  3247 ;;		_I2C1_WriteRead
  3248 ;; This function is called by:
  3249 ;;		_loop
  3250 ;; This function uses a non-reentrant model
  3251 ;;
  3252                           
  3253                           	psect	text26
  3254   002646                     __ptext26:
  3255                           	callstack 0
  3256   002646                     _MCP23017_UpdateState:
  3257                           	callstack 119
  3258                           
  3259                           ;mix_sam04.c: 172:  switch (u8_state_i2c) {
  3260                           
  3261                           ; BSR set to: 0
  3262                           ;incstack = 0
  3263   002646  D03A               	goto	l2586
  3264   002648                     l2564:
  3265                           
  3266                           ;mix_sam04.c: 174:   if (!I2C1_IsBusy()) {
  3267   002648  EC7A  F017         	call	_I2C1_IsBusy	;wreg free
  3268   00264C  0900               	iorlw	0
  3269   00264E  A4D8               	btfss	status,2,c
  3270   002650  0012               	return	
  3271                           
  3272                           ;mix_sam04.c: 175:    au8_data_i2c_write[0] = (0x12);
  3273   002652  0E12               	movlw	18
  3274   002654  6E2F               	movwf	_au8_data_i2c_write^(0+1280),c
  3275                           
  3276                           ;mix_sam04.c: 176:    I2C1_WriteRead((0x20), &au8_data_i2c_write[0], 1, &u8_data_i2c_rea
      +                          d, (1));
  3277   002656  0E00               	movlw	0
  3278   002658  6E3E               	movwf	(I2C1_WriteRead@address+1)^(0+1280),c
  3279   00265A  0E20               	movlw	32
  3280   00265C  6E3D               	movwf	I2C1_WriteRead@address^(0+1280),c
  3281   00265E  0E2F               	movlw	low _au8_data_i2c_write
  3282   002660  6E3F               	movwf	I2C1_WriteRead@writeData^(0+1280),c
  3283   002662  0E05               	movlw	high _au8_data_i2c_write
  3284   002664  6E40               	movwf	(I2C1_WriteRead@writeData+1)^(0+1280),c
  3285   002666  0E00               	movlw	0
  3286   002668  6E42               	movwf	(I2C1_WriteRead@writeLength+1)^(0+1280),c
  3287   00266A  0E01               	movlw	1
  3288   00266C  6E41               	movwf	I2C1_WriteRead@writeLength^(0+1280),c
  3289   00266E  0E35               	movlw	low _u8_data_i2c_read
  3290   002670  6E43               	movwf	I2C1_WriteRead@readData^(0+1280),c
  3291   002672  0E05               	movlw	high _u8_data_i2c_read
  3292   002674  6E44               	movwf	(I2C1_WriteRead@readData+1)^(0+1280),c
  3293   002676  0E00               	movlw	0
  3294   002678  6E46               	movwf	(I2C1_WriteRead@readLength+1)^(0+1280),c
  3295   00267A  0E01               	movlw	1
  3296   00267C  6E45               	movwf	I2C1_WriteRead@readLength^(0+1280),c
  3297   00267E  EC4F  F015         	call	_I2C1_WriteRead	;wreg free
  3298                           
  3299                           ;mix_sam04.c: 177:    u8_state_i2c = STATE_WAIT_WRITE;
  3300   002682  0E01               	movlw	1
  3301   002684  6E23               	movwf	_u8_state_i2c^(0+1280),c
  3302   002686  0012               	return	
  3303   002688                     l2572:
  3304                           
  3305                           ;mix_sam04.c: 181:   if (!I2C1_IsBusy()) {
  3306   002688  EC7A  F017         	call	_I2C1_IsBusy	;wreg free
  3307   00268C  0900               	iorlw	0
  3308   00268E  A4D8               	btfss	status,2,c
  3309   002690  0012               	return	
  3310                           
  3311                           ;mix_sam04.c: 182:    au8_data_i2c_write[0] = (0x15);
  3312   002692  0E15               	movlw	21
  3313   002694  6E2F               	movwf	_au8_data_i2c_write^(0+1280),c
  3314                           
  3315                           ;mix_sam04.c: 183:    au8_data_i2c_write[1] = u8_data_i2c_read;
  3316   002696  C535  F530         	movff	_u8_data_i2c_read,_au8_data_i2c_write+1
  3317                           
  3318                           ;mix_sam04.c: 184:    I2C1_Write((0x20), &au8_data_i2c_write[0], (2));
  3319   00269A  0E00               	movlw	0
  3320   00269C  6E3E               	movwf	(I2C1_Write@address+1)^(0+1280),c
  3321   00269E  0E20               	movlw	32
  3322   0026A0  6E3D               	movwf	I2C1_Write@address^(0+1280),c
  3323   0026A2  0E2F               	movlw	low _au8_data_i2c_write
  3324   0026A4  6E3F               	movwf	I2C1_Write@data^(0+1280),c
  3325   0026A6  0E05               	movlw	high _au8_data_i2c_write
  3326   0026A8  6E40               	movwf	(I2C1_Write@data+1)^(0+1280),c
  3327   0026AA  0E00               	movlw	0
  3328   0026AC  6E42               	movwf	(I2C1_Write@dataLength+1)^(0+1280),c
  3329   0026AE  0E02               	movlw	2
  3330   0026B0  6E41               	movwf	I2C1_Write@dataLength^(0+1280),c
  3331   0026B2  EC71  F015         	call	_I2C1_Write	;wreg free
  3332   0026B6                     l2580:
  3333                           
  3334                           ;mix_sam04.c: 185:    u8_state_i2c = STATE_WAIT_READ;
  3335   0026B6  0E00               	movlw	0
  3336   0026B8  6E23               	movwf	_u8_state_i2c^(0+1280),c
  3337   0026BA  0012               	return	
  3338   0026BC                     l2586:
  3339   0026BC  5023               	movf	_u8_state_i2c^(0+1280),w,c
  3340   0026BE  6E47               	movwf	??_MCP23017_UpdateState^(0+1280),c
  3341   0026C0  6A48               	clrf	(??_MCP23017_UpdateState+1)^(0+1280),c
  3342                           
  3343                           ; Switch on 2 bytes has been partitioned into a top level switch of size 1, and 1 sub-sw
      +                          itches
  3344                           ; Switch size 1, requested type "simple"
  3345                           ; Number of cases is 1, Range of values is 0 to 0
  3346                           ; switch strategies available:
  3347                           ; Name         Instructions Cycles
  3348                           ; simple_byte            4     3 (average)
  3349                           ;	Chosen strategy is simple_byte
  3350   0026C2  5048               	movf	(??_MCP23017_UpdateState+1)^(0+1280),w,c
  3351   0026C4  0A00               	xorlw	0	; case 0
  3352   0026C6  A4D8               	btfss	status,2,c
  3353   0026C8  D7F6               	goto	l2580
  3354                           
  3355                           ; Switch size 1, requested type "simple"
  3356                           ; Number of cases is 2, Range of values is 0 to 1
  3357                           ; switch strategies available:
  3358                           ; Name         Instructions Cycles
  3359                           ; simple_byte            7     4 (average)
  3360                           ;	Chosen strategy is simple_byte
  3361   0026CA  5047               	movf	??_MCP23017_UpdateState^(0+1280),w,c
  3362   0026CC  0A00               	xorlw	0	; case 0
  3363   0026CE  B4D8               	btfsc	status,2,c
  3364   0026D0  D7BB               	goto	l2564
  3365   0026D2  0A01               	xorlw	1	; case 1
  3366   0026D4  B4D8               	btfsc	status,2,c
  3367   0026D6  D7D8               	goto	l2572
  3368   0026D8  D7EE               	goto	l2580
  3369   0026DA                     __end_of_MCP23017_UpdateState:
  3370                           	callstack 0
  3371                           
  3372 ;; *************** function _I2C1_WriteRead *****************
  3373 ;; Defined at:
  3374 ;;		line 201 in file "mmc/i2c1.c"
  3375 ;; Parameters:    Size  Location     Type
  3376 ;;  address         2    7[COMRAM] unsigned short 
  3377 ;;  writeData       2    9[COMRAM] PTR unsigned char 
  3378 ;;		 -> au8_data_i2c_write(2), 
  3379 ;;  writeLength     2   11[COMRAM] unsigned int 
  3380 ;;  readData        2   13[COMRAM] PTR unsigned char 
  3381 ;;		 -> u8_data_i2c_read(1), 
  3382 ;;  readLength      2   15[COMRAM] unsigned int 
  3383 ;; Auto vars:     Size  Location     Type
  3384 ;;  retStatus       1    0        _Bool 
  3385 ;; Return value:  Size  Location     Type
  3386 ;;                  1    wreg      _Bool 
  3387 ;; Registers used:
  3388 ;;		wreg, status,2, status,0, cstack
  3389 ;; Tracked objects:
  3390 ;;		On entry : 0/3
  3391 ;;		On exit  : 0/0
  3392 ;;		Unchanged: 0/0
  3393 ;; Data sizes:     COMRAM   BANK5   BANK6   BANK7   BANK8   BANK9  BANK10  BANK11  BANK12  BANK13  BANK14  BANK15  BANK1
      +6  BANK17  BANK18  BANK19  BANK20  BANK21  BANK22  BANK23  BANK24  BANK25  BANK26  BANK27  BANK28  BANK29  BANK30  BANK3
      +1  BANK32  BANK33  BANK34  BANK35  BANK36
  3394 ;;      Params:        10       0       0       0       0       0       0       0       0       0       0       0       
      +0       0       0       0       0       0       0       0       0       0       0       0       0       0       0       
      +0       0       0       0       0       0
  3395 ;;      Locals:         0       0       0       0       0       0       0       0       0       0       0       0       
      +0       0       0       0       0       0       0       0       0       0       0       0       0       0       0       
      +0       0       0       0       0       0
  3396 ;;      Temps:          0       0       0       0       0       0       0       0       0       0       0       0       
      +0       0       0       0       0       0       0       0       0       0       0       0       0       0       0       
      +0       0       0       0       0       0
  3397 ;;      Totals:        10       0       0       0       0       0       0       0       0       0       0       0       
      +0       0       0       0       0       0       0       0       0       0       0       0       0       0       0       
      +0       0       0       0       0       0
  3398 ;;Total ram usage:       10 bytes
  3399 ;; Hardware stack levels used: 1
  3400 ;; Hardware stack levels required when called: 5
  3401 ;; This function calls:
  3402 ;;		_I2C1_IsBusy
  3403 ;;		_I2C1_WriteStart
  3404 ;; This function is called by:
  3405 ;;		_MCP23017_UpdateState
  3406 ;; This function uses a non-reentrant model
  3407 ;;
  3408                           
  3409                           	psect	text27
  3410   002A9E                     __ptext27:
  3411                           	callstack 0
  3412   002A9E                     _I2C1_WriteRead:
  3413                           	callstack 119
  3414                           
  3415                           ;mmc/i2c1.c: 204:     if (!I2C1_IsBusy())
  3416                           
  3417                           ;incstack = 0
  3418   002A9E  EC7A  F017         	call	_I2C1_IsBusy	;wreg free
  3419   002AA2  0900               	iorlw	0
  3420   002AA4  A4D8               	btfss	status,2,c
  3421   002AA6  0012               	return	
  3422                           
  3423                           ;mmc/i2c1.c: 205:     {;mmc/i2c1.c: 206:         i2c1Status.busy = 1;
  3424   002AA8  0E01               	movlw	1
  3425   002AAA  6E11               	movwf	_i2c1Status^(0+1280),c	;volatile
  3426                           
  3427                           ;mmc/i2c1.c: 207:         i2c1Status.address = address;
  3428   002AAC  C53D  F512         	movff	I2C1_WriteRead@address,_i2c1Status+1	;volatile
  3429   002AB0  C53E  F513         	movff	I2C1_WriteRead@address+1,_i2c1Status+2	;volatile
  3430                           
  3431                           ;mmc/i2c1.c: 208:         i2c1Status.switchToRead = 1;
  3432   002AB4  0E01               	movlw	1
  3433   002AB6  6E1C               	movwf	(_i2c1Status+11)^(0+1280),c	;volatile
  3434                           
  3435                           ;mmc/i2c1.c: 209:         i2c1Status.writePtr = writeData;
  3436   002AB8  C53F  F514         	movff	I2C1_WriteRead@writeData,_i2c1Status+3	;volatile
  3437   002ABC  C540  F515         	movff	I2C1_WriteRead@writeData+1,_i2c1Status+4	;volatile
  3438                           
  3439                           ;mmc/i2c1.c: 210:         i2c1Status.writeLength = writeLength;
  3440   002AC0  C541  F516         	movff	I2C1_WriteRead@writeLength,_i2c1Status+5	;volatile
  3441   002AC4  C542  F517         	movff	I2C1_WriteRead@writeLength+1,_i2c1Status+6	;volatile
  3442                           
  3443                           ;mmc/i2c1.c: 211:         i2c1Status.readPtr = readData;
  3444   002AC8  C543  F518         	movff	I2C1_WriteRead@readData,_i2c1Status+7	;volatile
  3445   002ACC  C544  F519         	movff	I2C1_WriteRead@readData+1,_i2c1Status+8	;volatile
  3446                           
  3447                           ;mmc/i2c1.c: 212:         i2c1Status.readLength = readLength;
  3448   002AD0  C545  F51A         	movff	I2C1_WriteRead@readLength,_i2c1Status+9	;volatile
  3449   002AD4  C546  F51B         	movff	I2C1_WriteRead@readLength+1,_i2c1Status+10	;volatile
  3450                           
  3451                           ;mmc/i2c1.c: 213:         i2c1Status.errorState = I2C_ERROR_NONE;
  3452   002AD8  0E00               	movlw	0
  3453   002ADA  6E1D               	movwf	(_i2c1Status+12)^(0+1280),c	;volatile
  3454                           
  3455                           ;mmc/i2c1.c: 214:         I2C1_WriteStart();
  3456   002ADC  EC11  F017         	call	_I2C1_WriteStart	;wreg free
  3457                           
  3458                           ; BSR set to: 2
  3459   002AE0  0012               	return		;funcret
  3460   002AE2                     __end_of_I2C1_WriteRead:
  3461                           	callstack 0
  3462                           
  3463 ;; *************** function _I2C1_Write *****************
  3464 ;; Defined at:
  3465 ;;		line 163 in file "mmc/i2c1.c"
  3466 ;; Parameters:    Size  Location     Type
  3467 ;;  address         2    7[COMRAM] unsigned short 
  3468 ;;  data            2    9[COMRAM] PTR unsigned char 
  3469 ;;		 -> au8_data_i2c_write(2), 
  3470 ;;  dataLength      2   11[COMRAM] unsigned int 
  3471 ;; Auto vars:     Size  Location     Type
  3472 ;;  retStatus       1    0        _Bool 
  3473 ;; Return value:  Size  Location     Type
  3474 ;;                  1    wreg      _Bool 
  3475 ;; Registers used:
  3476 ;;		wreg, status,2, status,0, cstack
  3477 ;; Tracked objects:
  3478 ;;		On entry : 0/4
  3479 ;;		On exit  : 0/0
  3480 ;;		Unchanged: 0/0
  3481 ;; Data sizes:     COMRAM   BANK5   BANK6   BANK7   BANK8   BANK9  BANK10  BANK11  BANK12  BANK13  BANK14  BANK15  BANK1
      +6  BANK17  BANK18  BANK19  BANK20  BANK21  BANK22  BANK23  BANK24  BANK25  BANK26  BANK27  BANK28  BANK29  BANK30  BANK3
      +1  BANK32  BANK33  BANK34  BANK35  BANK36
  3482 ;;      Params:         6       0       0       0       0       0       0       0       0       0       0       0       
      +0       0       0       0       0       0       0       0       0       0       0       0       0       0       0       
      +0       0       0       0       0       0
  3483 ;;      Locals:         0       0       0       0       0       0       0       0       0       0       0       0       
      +0       0       0       0       0       0       0       0       0       0       0       0       0       0       0       
      +0       0       0       0       0       0
  3484 ;;      Temps:          0       0       0       0       0       0       0       0       0       0       0       0       
      +0       0       0       0       0       0       0       0       0       0       0       0       0       0       0       
      +0       0       0       0       0       0
  3485 ;;      Totals:         6       0       0       0       0       0       0       0       0       0       0       0       
      +0       0       0       0       0       0       0       0       0       0       0       0       0       0       0       
      +0       0       0       0       0       0
  3486 ;;Total ram usage:        6 bytes
  3487 ;; Hardware stack levels used: 1
  3488 ;; Hardware stack levels required when called: 5
  3489 ;; This function calls:
  3490 ;;		_I2C1_IsBusy
  3491 ;;		_I2C1_WriteStart
  3492 ;; This function is called by:
  3493 ;;		_MCP23017_Write
  3494 ;;		_MCP23017_UpdateState
  3495 ;; This function uses a non-reentrant model
  3496 ;;
  3497                           
  3498                           	psect	text28
  3499   002AE2                     __ptext28:
  3500                           	callstack 0
  3501   002AE2                     _I2C1_Write:
  3502                           	callstack 118
  3503                           
  3504                           ;mmc/i2c1.c: 166:     if (!I2C1_IsBusy())
  3505                           
  3506                           ;incstack = 0
  3507   002AE2  EC7A  F017         	call	_I2C1_IsBusy	;wreg free
  3508   002AE6  0900               	iorlw	0
  3509   002AE8  A4D8               	btfss	status,2,c
  3510   002AEA  0012               	return	
  3511                           
  3512                           ;mmc/i2c1.c: 167:     {;mmc/i2c1.c: 168:         i2c1Status.busy = 1;
  3513   002AEC  0E01               	movlw	1
  3514   002AEE  6E11               	movwf	_i2c1Status^(0+1280),c	;volatile
  3515                           
  3516                           ;mmc/i2c1.c: 169:         i2c1Status.address = address;
  3517   002AF0  C53D  F512         	movff	I2C1_Write@address,_i2c1Status+1	;volatile
  3518   002AF4  C53E  F513         	movff	I2C1_Write@address+1,_i2c1Status+2	;volatile
  3519                           
  3520                           ;mmc/i2c1.c: 170:         i2c1Status.switchToRead = 0;
  3521   002AF8  0E00               	movlw	0
  3522   002AFA  6E1C               	movwf	(_i2c1Status+11)^(0+1280),c	;volatile
  3523                           
  3524                           ;mmc/i2c1.c: 171:         i2c1Status.writePtr = data;
  3525   002AFC  C53F  F514         	movff	I2C1_Write@data,_i2c1Status+3	;volatile
  3526   002B00  C540  F515         	movff	I2C1_Write@data+1,_i2c1Status+4	;volatile
  3527                           
  3528                           ;mmc/i2c1.c: 172:         i2c1Status.writeLength = dataLength;
  3529   002B04  C541  F516         	movff	I2C1_Write@dataLength,_i2c1Status+5	;volatile
  3530   002B08  C542  F517         	movff	I2C1_Write@dataLength+1,_i2c1Status+6	;volatile
  3531                           
  3532                           ;mmc/i2c1.c: 173:         i2c1Status.readPtr = ((void*)0);
  3533   002B0C  0E00               	movlw	0
  3534   002B0E  6E18               	movwf	(_i2c1Status+7)^(0+1280),c	;volatile
  3535   002B10  0E00               	movlw	0
  3536   002B12  6E19               	movwf	(_i2c1Status+8)^(0+1280),c	;volatile
  3537                           
  3538                           ;mmc/i2c1.c: 174:         i2c1Status.readLength = 0;
  3539   002B14  0E00               	movlw	0
  3540   002B16  6E1B               	movwf	(_i2c1Status+10)^(0+1280),c	;volatile
  3541   002B18  0E00               	movlw	0
  3542   002B1A  6E1A               	movwf	(_i2c1Status+9)^(0+1280),c	;volatile
  3543                           
  3544                           ;mmc/i2c1.c: 175:         i2c1Status.errorState = I2C_ERROR_NONE;
  3545   002B1C  0E00               	movlw	0
  3546   002B1E  6E1D               	movwf	(_i2c1Status+12)^(0+1280),c	;volatile
  3547                           
  3548                           ;mmc/i2c1.c: 176:         I2C1_WriteStart();
  3549   002B20  EC11  F017         	call	_I2C1_WriteStart	;wreg free
  3550                           
  3551                           ; BSR set to: 2
  3552   002B24  0012               	return		;funcret
  3553   002B26                     __end_of_I2C1_Write:
  3554                           	callstack 0
  3555                           
  3556 ;; *************** function _I2C1_WriteStart *****************
  3557 ;; Defined at:
  3558 ;;		line 329 in file "mmc/i2c1.c"
  3559 ;; Parameters:    Size  Location     Type
  3560 ;;		None
  3561 ;; Auto vars:     Size  Location     Type
  3562 ;;		None
  3563 ;; Return value:  Size  Location     Type
  3564 ;;                  1    wreg      void 
  3565 ;; Registers used:
  3566 ;;		wreg, status,2, status,0, cstack
  3567 ;; Tracked objects:
  3568 ;;		On entry : 0/3
  3569 ;;		On exit  : 3F/2
  3570 ;;		Unchanged: 0/0
  3571 ;; Data sizes:     COMRAM   BANK5   BANK6   BANK7   BANK8   BANK9  BANK10  BANK11  BANK12  BANK13  BANK14  BANK15  BANK1
      +6  BANK17  BANK18  BANK19  BANK20  BANK21  BANK22  BANK23  BANK24  BANK25  BANK26  BANK27  BANK28  BANK29  BANK30  BANK3
      +1  BANK32  BANK33  BANK34  BANK35  BANK36
  3572 ;;      Params:         0       0       0       0       0       0       0       0       0       0       0       0       
      +0       0       0       0       0       0       0       0       0       0       0       0       0       0       0       
      +0       0       0       0       0       0
  3573 ;;      Locals:         0       0       0       0       0       0       0       0       0       0       0       0       
      +0       0       0       0       0       0       0       0       0       0       0       0       0       0       0       
      +0       0       0       0       0       0
  3574 ;;      Temps:          0       0       0       0       0       0       0       0       0       0       0       0       
      +0       0       0       0       0       0       0       0       0       0       0       0       0       0       0       
      +0       0       0       0       0       0
  3575 ;;      Totals:         0       0       0       0       0       0       0       0       0       0       0       0       
      +0       0       0       0       0       0       0       0       0       0       0       0       0       0       0       
      +0       0       0       0       0       0
  3576 ;;Total ram usage:        0 bytes
  3577 ;; Hardware stack levels used: 1
  3578 ;; Hardware stack levels required when called: 4
  3579 ;; This function calls:
  3580 ;;		_I2C1_AddrTransmit
  3581 ;;		_I2C1_CounterSet
  3582 ;;		_I2C1_RestartEnable
  3583 ;;		_I2C1_StartSend
  3584 ;; This function is called by:
  3585 ;;		_I2C1_Write
  3586 ;;		_I2C1_WriteRead
  3587 ;; This function uses a non-reentrant model
  3588 ;;
  3589                           
  3590                           	psect	text29
  3591   002E22                     __ptext29:
  3592                           	callstack 0
  3593   002E22                     _I2C1_WriteStart:
  3594                           	callstack 118
  3595                           
  3596                           ;mmc/i2c1.c: 331:     if (i2c1Status.writeLength)
  3597                           
  3598                           ;incstack = 0
  3599   002E22  5016               	movf	(_i2c1Status+5)^(0+1280),w,c	;volatile
  3600   002E24  1017               	iorwf	(_i2c1Status+6)^(0+1280),w,c	;volatile
  3601   002E26  B4D8               	btfsc	status,2,c
  3602   002E28  D007               	goto	l1548
  3603                           
  3604                           ;mmc/i2c1.c: 332:     {;mmc/i2c1.c: 333:         I2C1_CounterSet((uint8_t) i2c1Status.wr
      +                          iteLength);
  3605   002E2A  5016               	movf	(_i2c1Status+5)^(0+1280),w,c	;volatile
  3606   002E2C  ECDB  F017         	call	_I2C1_CounterSet
  3607                           
  3608                           ;mmc/i2c1.c: 334:         if (i2c1Status.switchToRead)
  3609   002E30  501C               	movf	(_i2c1Status+11)^(0+1280),w,c	;volatile
  3610   002E32  A4D8               	btfss	status,2,c
  3611                           
  3612                           ;mmc/i2c1.c: 335:         {;mmc/i2c1.c: 336:             I2C1_RestartEnable();
  3613   002E34  ECFE  F017         	call	_I2C1_RestartEnable	;wreg free
  3614   002E38                     l1548:
  3615                           
  3616                           ;mmc/i2c1.c: 340:     I2C1_AddrTransmit((uint8_t) (i2c1Status.address << 1));
  3617   002E38  5012               	movf	(_i2c1Status+1)^(0+1280),w,c	;volatile
  3618   002E3A  2412               	addwf	(_i2c1Status+1)^(0+1280),w,c	;volatile
  3619   002E3C  ECDF  F017         	call	_I2C1_AddrTransmit
  3620                           
  3621                           ;mmc/i2c1.c: 341:     I2C1_StartSend();
  3622   002E40  ECFB  F017         	call	_I2C1_StartSend	;wreg free
  3623                           
  3624                           ; BSR set to: 2
  3625   002E44  0012               	return		;funcret
  3626   002E46                     __end_of_I2C1_WriteStart:
  3627                           	callstack 0
  3628                           
  3629 ;; *************** function _I2C1_StartSend *****************
  3630 ;; Defined at:
  3631 ;;		line 363 in file "mmc/i2c1.c"
  3632 ;; Parameters:    Size  Location     Type
  3633 ;;		None
  3634 ;; Auto vars:     Size  Location     Type
  3635 ;;		None
  3636 ;; Return value:  Size  Location     Type
  3637 ;;                  1    wreg      void 
  3638 ;; Registers used:
  3639 ;;		None
  3640 ;; Tracked objects:
  3641 ;;		On entry : 0/3
  3642 ;;		On exit  : 3F/2
  3643 ;;		Unchanged: 0/0
  3644 ;; Data sizes:     COMRAM   BANK5   BANK6   BANK7   BANK8   BANK9  BANK10  BANK11  BANK12  BANK13  BANK14  BANK15  BANK1
      +6  BANK17  BANK18  BANK19  BANK20  BANK21  BANK22  BANK23  BANK24  BANK25  BANK26  BANK27  BANK28  BANK29  BANK30  BANK3
      +1  BANK32  BANK33  BANK34  BANK35  BANK36
  3645 ;;      Params:         0       0       0       0       0       0       0       0       0       0       0       0       
      +0       0       0       0       0       0       0       0       0       0       0       0       0       0       0       
      +0       0       0       0       0       0
  3646 ;;      Locals:         0       0       0       0       0       0       0       0       0       0       0       0       
      +0       0       0       0       0       0       0       0       0       0       0       0       0       0       0       
      +0       0       0       0       0       0
  3647 ;;      Temps:          0       0       0       0       0       0       0       0       0       0       0       0       
      +0       0       0       0       0       0       0       0       0       0       0       0       0       0       0       
      +0       0       0       0       0       0
  3648 ;;      Totals:         0       0       0       0       0       0       0       0       0       0       0       0       
      +0       0       0       0       0       0       0       0       0       0       0       0       0       0       0       
      +0       0       0       0       0       0
  3649 ;;Total ram usage:        0 bytes
  3650 ;; Hardware stack levels used: 1
  3651 ;; Hardware stack levels required when called: 3
  3652 ;; This function calls:
  3653 ;;		Nothing
  3654 ;; This function is called by:
  3655 ;;		_I2C1_WriteStart
  3656 ;; This function uses a non-reentrant model
  3657 ;;
  3658                           
  3659                           	psect	text30
  3660   002FF6                     __ptext30:
  3661                           	callstack 0
  3662   002FF6                     _I2C1_StartSend:
  3663                           	callstack 118
  3664                           
  3665                           ;mmc/i2c1.c: 365:     I2C1CON0bits.S = 1;
  3666                           
  3667                           ; BSR set to: 2
  3668                           ;incstack = 0
  3669   002FF6  0102               	movlb	2	; () banked
  3670   002FF8  8B94               	bsf	148,5,b	;volatile
  3671                           
  3672                           ; BSR set to: 2
  3673   002FFA  0012               	return		;funcret
  3674   002FFC                     __end_of_I2C1_StartSend:
  3675                           	callstack 0
  3676                           
  3677 ;; *************** function _I2C1_RestartEnable *****************
  3678 ;; Defined at:
  3679 ;;		line 419 in file "mmc/i2c1.c"
  3680 ;; Parameters:    Size  Location     Type
  3681 ;;		None
  3682 ;; Auto vars:     Size  Location     Type
  3683 ;;		None
  3684 ;; Return value:  Size  Location     Type
  3685 ;;                  1    wreg      void 
  3686 ;; Registers used:
  3687 ;;		None
  3688 ;; Tracked objects:
  3689 ;;		On entry : 0/3
  3690 ;;		On exit  : 3F/2
  3691 ;;		Unchanged: 0/0
  3692 ;; Data sizes:     COMRAM   BANK5   BANK6   BANK7   BANK8   BANK9  BANK10  BANK11  BANK12  BANK13  BANK14  BANK15  BANK1
      +6  BANK17  BANK18  BANK19  BANK20  BANK21  BANK22  BANK23  BANK24  BANK25  BANK26  BANK27  BANK28  BANK29  BANK30  BANK3
      +1  BANK32  BANK33  BANK34  BANK35  BANK36
  3693 ;;      Params:         0       0       0       0       0       0       0       0       0       0       0       0       
      +0       0       0       0       0       0       0       0       0       0       0       0       0       0       0       
      +0       0       0       0       0       0
  3694 ;;      Locals:         0       0       0       0       0       0       0       0       0       0       0       0       
      +0       0       0       0       0       0       0       0       0       0       0       0       0       0       0       
      +0       0       0       0       0       0
  3695 ;;      Temps:          0       0       0       0       0       0       0       0       0       0       0       0       
      +0       0       0       0       0       0       0       0       0       0       0       0       0       0       0       
      +0       0       0       0       0       0
  3696 ;;      Totals:         0       0       0       0       0       0       0       0       0       0       0       0       
      +0       0       0       0       0       0       0       0       0       0       0       0       0       0       0       
      +0       0       0       0       0       0
  3697 ;;Total ram usage:        0 bytes
  3698 ;; Hardware stack levels used: 1
  3699 ;; Hardware stack levels required when called: 3
  3700 ;; This function calls:
  3701 ;;		Nothing
  3702 ;; This function is called by:
  3703 ;;		_I2C1_WriteStart
  3704 ;; This function uses a non-reentrant model
  3705 ;;
  3706                           
  3707                           	psect	text31
  3708   002FFC                     __ptext31:
  3709                           	callstack 0
  3710   002FFC                     _I2C1_RestartEnable:
  3711                           	callstack 118
  3712                           
  3713                           ;mmc/i2c1.c: 421:     I2C1CON0bits.RSEN = 1;
  3714                           
  3715                           ; BSR set to: 2
  3716                           ;incstack = 0
  3717   002FFC  0102               	movlb	2	; () banked
  3718   002FFE  8D94               	bsf	148,6,b	;volatile
  3719                           
  3720                           ; BSR set to: 2
  3721   003000  0012               	return		;funcret
  3722   003002                     __end_of_I2C1_RestartEnable:
  3723                           	callstack 0
  3724                           
  3725 ;; *************** function _I2C1_CounterSet *****************
  3726 ;; Defined at:
  3727 ;;		line 383 in file "mmc/i2c1.c"
  3728 ;; Parameters:    Size  Location     Type
  3729 ;;  counter         1    wreg     unsigned char 
  3730 ;; Auto vars:     Size  Location     Type
  3731 ;;  counter         1    6[COMRAM] unsigned char 
  3732 ;; Return value:  Size  Location     Type
  3733 ;;                  1    wreg      void 
  3734 ;; Registers used:
  3735 ;;		wreg
  3736 ;; Tracked objects:
  3737 ;;		On entry : 0/3
  3738 ;;		On exit  : 0/0
  3739 ;;		Unchanged: 0/0
  3740 ;; Data sizes:     COMRAM   BANK5   BANK6   BANK7   BANK8   BANK9  BANK10  BANK11  BANK12  BANK13  BANK14  BANK15  BANK1
      +6  BANK17  BANK18  BANK19  BANK20  BANK21  BANK22  BANK23  BANK24  BANK25  BANK26  BANK27  BANK28  BANK29  BANK30  BANK3
      +1  BANK32  BANK33  BANK34  BANK35  BANK36
  3741 ;;      Params:         0       0       0       0       0       0       0       0       0       0       0       0       
      +0       0       0       0       0       0       0       0       0       0       0       0       0       0       0       
      +0       0       0       0       0       0
  3742 ;;      Locals:         1       0       0       0       0       0       0       0       0       0       0       0       
      +0       0       0       0       0       0       0       0       0       0       0       0       0       0       0       
      +0       0       0       0       0       0
  3743 ;;      Temps:          0       0       0       0       0       0       0       0       0       0       0       0       
      +0       0       0       0       0       0       0       0       0       0       0       0       0       0       0       
      +0       0       0       0       0       0
  3744 ;;      Totals:         1       0       0       0       0       0       0       0       0       0       0       0       
      +0       0       0       0       0       0       0       0       0       0       0       0       0       0       0       
      +0       0       0       0       0       0
  3745 ;;Total ram usage:        1 bytes
  3746 ;; Hardware stack levels used: 1
  3747 ;; Hardware stack levels required when called: 3
  3748 ;; This function calls:
  3749 ;;		Nothing
  3750 ;; This function is called by:
  3751 ;;		_I2C1_WriteStart
  3752 ;; This function uses a non-reentrant model
  3753 ;;
  3754                           
  3755                           	psect	text32
  3756   002FB6                     __ptext32:
  3757                           	callstack 0
  3758   002FB6                     _I2C1_CounterSet:
  3759                           	callstack 118
  3760                           
  3761                           ; BSR set to: 2
  3762                           ;incstack = 0
  3763                           ;I2C1_CounterSet@counter stored from wreg
  3764   002FB6  6E3C               	movwf	I2C1_CounterSet@counter^(0+1280),c
  3765                           
  3766                           ;mmc/i2c1.c: 383: static void I2C1_CounterSet(uint8_t counter);mmc/i2c1.c: 384: {;mmc/i2
      +                          c1.c: 385:     I2C1CNT = counter;
  3767   002FB8  C53C  F28D         	movff	I2C1_CounterSet@counter,653	;volatile
  3768   002FBC  0012               	return		;funcret
  3769   002FBE                     __end_of_I2C1_CounterSet:
  3770                           	callstack 0
  3771                           
  3772 ;; *************** function _I2C1_AddrTransmit *****************
  3773 ;; Defined at:
  3774 ;;		line 368 in file "mmc/i2c1.c"
  3775 ;; Parameters:    Size  Location     Type
  3776 ;;  addr            1    wreg     unsigned char 
  3777 ;; Auto vars:     Size  Location     Type
  3778 ;;  addr            1    6[COMRAM] unsigned char 
  3779 ;; Return value:  Size  Location     Type
  3780 ;;                  1    wreg      void 
  3781 ;; Registers used:
  3782 ;;		wreg
  3783 ;; Tracked objects:
  3784 ;;		On entry : 0/3
  3785 ;;		On exit  : 0/0
  3786 ;;		Unchanged: 0/0
  3787 ;; Data sizes:     COMRAM   BANK5   BANK6   BANK7   BANK8   BANK9  BANK10  BANK11  BANK12  BANK13  BANK14  BANK15  BANK1
      +6  BANK17  BANK18  BANK19  BANK20  BANK21  BANK22  BANK23  BANK24  BANK25  BANK26  BANK27  BANK28  BANK29  BANK30  BANK3
      +1  BANK32  BANK33  BANK34  BANK35  BANK36
  3788 ;;      Params:         0       0       0       0       0       0       0       0       0       0       0       0       
      +0       0       0       0       0       0       0       0       0       0       0       0       0       0       0       
      +0       0       0       0       0       0
  3789 ;;      Locals:         1       0       0       0       0       0       0       0       0       0       0       0       
      +0       0       0       0       0       0       0       0       0       0       0       0       0       0       0       
      +0       0       0       0       0       0
  3790 ;;      Temps:          0       0       0       0       0       0       0       0       0       0       0       0       
      +0       0       0       0       0       0       0       0       0       0       0       0       0       0       0       
      +0       0       0       0       0       0
  3791 ;;      Totals:         1       0       0       0       0       0       0       0       0       0       0       0       
      +0       0       0       0       0       0       0       0       0       0       0       0       0       0       0       
      +0       0       0       0       0       0
  3792 ;;Total ram usage:        1 bytes
  3793 ;; Hardware stack levels used: 1
  3794 ;; Hardware stack levels required when called: 3
  3795 ;; This function calls:
  3796 ;;		Nothing
  3797 ;; This function is called by:
  3798 ;;		_I2C1_WriteStart
  3799 ;; This function uses a non-reentrant model
  3800 ;;
  3801                           
  3802                           	psect	text33
  3803   002FBE                     __ptext33:
  3804                           	callstack 0
  3805   002FBE                     _I2C1_AddrTransmit:
  3806                           	callstack 118
  3807                           
  3808                           ;incstack = 0
  3809                           ;I2C1_AddrTransmit@addr stored from wreg
  3810   002FBE  6E3C               	movwf	I2C1_AddrTransmit@addr^(0+1280),c
  3811                           
  3812                           ;mmc/i2c1.c: 368: static void I2C1_AddrTransmit(uint8_t addr);mmc/i2c1.c: 369: {;mmc/i2c
      +                          1.c: 370:     I2C1ADB1 = addr;
  3813   002FC0  C53C  F28F         	movff	I2C1_AddrTransmit@addr,655	;volatile
  3814   002FC4  0012               	return		;funcret
  3815   002FC6                     __end_of_I2C1_AddrTransmit:
  3816                           	callstack 0
  3817                           
  3818 ;; *************** function _I2C1_IsBusy *****************
  3819 ;; Defined at:
  3820 ;;		line 227 in file "mmc/i2c1.c"
  3821 ;; Parameters:    Size  Location     Type
  3822 ;;		None
  3823 ;; Auto vars:     Size  Location     Type
  3824 ;;		None
  3825 ;; Return value:  Size  Location     Type
  3826 ;;                  1    wreg      _Bool 
  3827 ;; Registers used:
  3828 ;;		wreg, status,2
  3829 ;; Tracked objects:
  3830 ;;		On entry : 0/4
  3831 ;;		On exit  : 0/0
  3832 ;;		Unchanged: 0/0
  3833 ;; Data sizes:     COMRAM   BANK5   BANK6   BANK7   BANK8   BANK9  BANK10  BANK11  BANK12  BANK13  BANK14  BANK15  BANK1
      +6  BANK17  BANK18  BANK19  BANK20  BANK21  BANK22  BANK23  BANK24  BANK25  BANK26  BANK27  BANK28  BANK29  BANK30  BANK3
      +1  BANK32  BANK33  BANK34  BANK35  BANK36
  3834 ;;      Params:         0       0       0       0       0       0       0       0       0       0       0       0       
      +0       0       0       0       0       0       0       0       0       0       0       0       0       0       0       
      +0       0       0       0       0       0
  3835 ;;      Locals:         1       0       0       0       0       0       0       0       0       0       0       0       
      +0       0       0       0       0       0       0       0       0       0       0       0       0       0       0       
      +0       0       0       0       0       0
  3836 ;;      Temps:          0       0       0       0       0       0       0       0       0       0       0       0       
      +0       0       0       0       0       0       0       0       0       0       0       0       0       0       0       
      +0       0       0       0       0       0
  3837 ;;      Totals:         1       0       0       0       0       0       0       0       0       0       0       0       
      +0       0       0       0       0       0       0       0       0       0       0       0       0       0       0       
      +0       0       0       0       0       0
  3838 ;;Total ram usage:        1 bytes
  3839 ;; Hardware stack levels used: 1
  3840 ;; Hardware stack levels required when called: 3
  3841 ;; This function calls:
  3842 ;;		Nothing
  3843 ;; This function is called by:
  3844 ;;		_I2C1_Write
  3845 ;;		_I2C1_WriteRead
  3846 ;;		_MCP23017_Write
  3847 ;;		_MCP23017_UpdateState
  3848 ;;		_I2C1_Read
  3849 ;; This function uses a non-reentrant model
  3850 ;;
  3851                           
  3852                           	psect	text34
  3853   002EF4                     __ptext34:
  3854                           	callstack 0
  3855   002EF4                     _I2C1_IsBusy:
  3856                           	callstack 119
  3857                           
  3858                           ;mmc/i2c1.c: 229:     return i2c1Status.busy || !I2C1STAT0bits.BFRE;
  3859                           
  3860                           ;incstack = 0
  3861   002EF4  0E01               	movlw	1
  3862   002EF6  6E3C               	movwf	_I2C1_IsBusy$613^(0+1280),c
  3863   002EF8  5011               	movf	_i2c1Status^(0+1280),w,c	;volatile
  3864   002EFA  A4D8               	btfss	status,2,c
  3865   002EFC  D005               	goto	l161
  3866   002EFE  0102               	movlb	2	; () banked
  3867   002F00  AF98               	btfss	152,7,b	;volatile
  3868   002F02  D002               	goto	l161
  3869                           
  3870                           ; BSR set to: 2
  3871   002F04  0E00               	movlw	0
  3872   002F06  6E3C               	movwf	_I2C1_IsBusy$613^(0+1280),c
  3873   002F08                     l161:
  3874   002F08  503C               	movf	_I2C1_IsBusy$613^(0+1280),w,c
  3875   002F0A  0012               	return		;funcret
  3876   002F0C                     __end_of_I2C1_IsBusy:
  3877                           	callstack 0
  3878                           
  3879 ;; *************** function _TMR2_Initialize *****************
  3880 ;; Defined at:
  3881 ;;		line 106 in file "mmc/system.c"
  3882 ;; Parameters:    Size  Location     Type
  3883 ;;		None
  3884 ;; Auto vars:     Size  Location     Type
  3885 ;;		None
  3886 ;; Return value:  Size  Location     Type
  3887 ;;                  1    wreg      void 
  3888 ;; Registers used:
  3889 ;;		wreg, status,2
  3890 ;; Tracked objects:
  3891 ;;		On entry : 0/0
  3892 ;;		On exit  : 3F/3
  3893 ;;		Unchanged: 0/0
  3894 ;; Data sizes:     COMRAM   BANK5   BANK6   BANK7   BANK8   BANK9  BANK10  BANK11  BANK12  BANK13  BANK14  BANK15  BANK1
      +6  BANK17  BANK18  BANK19  BANK20  BANK21  BANK22  BANK23  BANK24  BANK25  BANK26  BANK27  BANK28  BANK29  BANK30  BANK3
      +1  BANK32  BANK33  BANK34  BANK35  BANK36
  3895 ;;      Params:         0       0       0       0       0       0       0       0       0       0       0       0       
      +0       0       0       0       0       0       0       0       0       0       0       0       0       0       0       
      +0       0       0       0       0       0
  3896 ;;      Locals:         0       0       0       0       0       0       0       0       0       0       0       0       
      +0       0       0       0       0       0       0       0       0       0       0       0       0       0       0       
      +0       0       0       0       0       0
  3897 ;;      Temps:          0       0       0       0       0       0       0       0       0       0       0       0       
      +0       0       0       0       0       0       0       0       0       0       0       0       0       0       0       
      +0       0       0       0       0       0
  3898 ;;      Totals:         0       0       0       0       0       0       0       0       0       0       0       0       
      +0       0       0       0       0       0       0       0       0       0       0       0       0       0       0       
      +0       0       0       0       0       0
  3899 ;;Total ram usage:        0 bytes
  3900 ;; Hardware stack levels used: 1
  3901 ;; Hardware stack levels required when called: 3
  3902 ;; This function calls:
  3903 ;;		Nothing
  3904 ;; This function is called by:
  3905 ;;		_main
  3906 ;; This function uses a non-reentrant model
  3907 ;;
  3908                           
  3909                           	psect	text35
  3910   002E6C                     __ptext35:
  3911                           	callstack 0
  3912   002E6C                     _TMR2_Initialize:
  3913                           	callstack 123
  3914                           
  3915                           ;mmc/system.c: 108:  T2CLKCON = 0x1;
  3916                           
  3917                           ;incstack = 0
  3918   002E6C  0E01               	movlw	1
  3919   002E6E  0103               	movlb	3	; () banked
  3920   002E70  6F26               	movwf	38,b	;volatile
  3921                           
  3922                           ;mmc/system.c: 111:  T2HLT = 0x0;
  3923   002E72  0E00               	movlw	0
  3924   002E74  6F25               	movwf	37,b	;volatile
  3925                           
  3926                           ;mmc/system.c: 113:  T2RST = 0x0;
  3927   002E76  0E00               	movlw	0
  3928   002E78  6F27               	movwf	39,b	;volatile
  3929                           
  3930                           ;mmc/system.c: 115:  T2PR = 0x7C;
  3931   002E7A  0E7C               	movlw	124
  3932   002E7C  6F23               	movwf	35,b	;volatile
  3933                           
  3934                           ;mmc/system.c: 117:  T2TMR = 0x0;
  3935   002E7E  0E00               	movlw	0
  3936   002E80  6F22               	movwf	34,b	;volatile
  3937                           
  3938                           ; BSR set to: 3
  3939                           ;mmc/system.c: 119:  PIR3bits.TMR2IF = 0;
  3940   002E82  96B1               	bcf	177,3,c	;volatile
  3941                           
  3942                           ; BSR set to: 3
  3943                           ;mmc/system.c: 121:  PIE3bits.TMR2IE = 1;
  3944   002E84  86A1               	bsf	161,3,c	;volatile
  3945                           
  3946                           ;mmc/system.c: 123:  T2CON = 0xF0;
  3947   002E86  0EF0               	movlw	240
  3948   002E88  6F24               	movwf	36,b	;volatile
  3949                           
  3950                           ; BSR set to: 3
  3951   002E8A  0012               	return		;funcret
  3952   002E8C                     __end_of_TMR2_Initialize:
  3953                           	callstack 0
  3954                           
  3955 ;; *************** function _I2C1_ISR *****************
  3956 ;; Defined at:
  3957 ;;		line 240 in file "mmc/i2c1.c"
  3958 ;; Parameters:    Size  Location     Type
  3959 ;;		None
  3960 ;; Auto vars:     Size  Location     Type
  3961 ;;		None
  3962 ;; Return value:  Size  Location     Type
  3963 ;;                  1    wreg      void 
  3964 ;; Registers used:
  3965 ;;		wreg, status,2, status,0, cstack
  3966 ;; Tracked objects:
  3967 ;;		On entry : 0/0
  3968 ;;		On exit  : 3F/2
  3969 ;;		Unchanged: 0/0
  3970 ;; Data sizes:     COMRAM   BANK5   BANK6   BANK7   BANK8   BANK9  BANK10  BANK11  BANK12  BANK13  BANK14  BANK15  BANK1
      +6  BANK17  BANK18  BANK19  BANK20  BANK21  BANK22  BANK23  BANK24  BANK25  BANK26  BANK27  BANK28  BANK29  BANK30  BANK3
      +1  BANK32  BANK33  BANK34  BANK35  BANK36
  3971 ;;      Params:         0       0       0       0       0       0       0       0       0       0       0       0       
      +0       0       0       0       0       0       0       0       0       0       0       0       0       0       0       
      +0       0       0       0       0       0
  3972 ;;      Locals:         0       0       0       0       0       0       0       0       0       0       0       0       
      +0       0       0       0       0       0       0       0       0       0       0       0       0       0       0       
      +0       0       0       0       0       0
  3973 ;;      Temps:          0       0       0       0       0       0       0       0       0       0       0       0       
      +0       0       0       0       0       0       0       0       0       0       0       0       0       0       0       
      +0       0       0       0       0       0
  3974 ;;      Totals:         0       0       0       0       0       0       0       0       0       0       0       0       
      +0       0       0       0       0       0       0       0       0       0       0       0       0       0       0       
      +0       0       0       0       0       0
  3975 ;;Total ram usage:        0 bytes
  3976 ;; Hardware stack levels used: 1
  3977 ;; Hardware stack levels required when called: 2
  3978 ;; This function calls:
  3979 ;;		_I2C1_Close
  3980 ;;		_I2C1_ReadStart
  3981 ;;		_I2C1_RestartDisable
  3982 ;;		_I2C1_StopSend
  3983 ;; This function is called by:
  3984 ;;		Interrupt level 2
  3985 ;; This function uses a non-reentrant model
  3986 ;;
  3987                           
  3988                           	psect	text36
  3989   002B64                     __ptext36:
  3990                           	callstack 0
  3991   002B64                     _I2C1_ISR:
  3992                           	callstack 118
  3993                           
  3994                           ;mmc/i2c1.c: 242:     if (I2C1PIEbits.PCIE && I2C1PIRbits.PCIF)
  3995                           
  3996                           ; BSR set to: 3
  3997                           ;incstack = 0
  3998   002B64  0102               	movlb	2	; () banked
  3999   002B66  B59B               	btfsc	155,2,b	;volatile
  4000                           
  4001                           ; BSR set to: 2
  4002   002B68  A59A               	btfss	154,2,b	;volatile
  4003   002B6A  D003               	goto	i2l171
  4004   002B6C                     i2u83_40:
  4005                           
  4006                           ;mmc/i2c1.c: 243:     {;mmc/i2c1.c: 244:         I2C1_Close();
  4007   002B6C  ECC4  F016         	call	_I2C1_Close	;wreg free
  4008                           
  4009                           ;mmc/i2c1.c: 245:     }
  4010   002B70  0011               	retfie		f
  4011   002B72                     i2l171:
  4012                           
  4013                           ; BSR set to: 2
  4014   002B72  BF9B               	btfsc	155,7,b	;volatile
  4015                           
  4016                           ; BSR set to: 2
  4017   002B74  AF9A               	btfss	154,7,b	;volatile
  4018   002B76  D00D               	goto	i2l173
  4019                           
  4020                           ; BSR set to: 2
  4021                           ;mmc/i2c1.c: 247:     {;mmc/i2c1.c: 249:         if (i2c1Status.switchToRead)
  4022   002B78  501C               	movf	(_i2c1Status+11)^(0+1280),w,c	;volatile
  4023   002B7A  B4D8               	btfsc	status,2,c
  4024   002B7C  D007               	goto	i2l2736
  4025                           
  4026                           ; BSR set to: 2
  4027                           ;mmc/i2c1.c: 250:         {;mmc/i2c1.c: 251:             i2c1Status.switchToRead = 0;
  4028   002B7E  0E00               	movlw	0
  4029   002B80  6E1C               	movwf	(_i2c1Status+11)^(0+1280),c	;volatile
  4030                           
  4031                           ; BSR set to: 2
  4032                           ;mmc/i2c1.c: 252:             I2C1PIRbits.SCIF = 0;
  4033   002B82  919A               	bcf	154,0,b	;volatile
  4034                           
  4035                           ; BSR set to: 2
  4036                           ;mmc/i2c1.c: 253:             I2C1PIRbits.CNTIF = 0;
  4037   002B84  9F9A               	bcf	154,7,b	;volatile
  4038                           
  4039                           ; BSR set to: 2
  4040                           ;mmc/i2c1.c: 254:             I2C1_ReadStart();
  4041   002B86  EC54  F017         	call	_I2C1_ReadStart	;wreg free
  4042                           
  4043                           ;mmc/i2c1.c: 255:         }
  4044   002B8A  0011               	retfie		f
  4045   002B8C                     i2l2736:
  4046                           
  4047                           ; BSR set to: 2
  4048                           ;mmc/i2c1.c: 257:         {;mmc/i2c1.c: 258:             I2C1_StopSend();
  4049   002B8C  EC46  F017         	call	_I2C1_StopSend	;wreg free
  4050   002B90  D7ED               	goto	i2u83_40
  4051   002B92                     i2l173:
  4052                           
  4053                           ; BSR set to: 2
  4054   002B92  A39B               	btfss	155,1,b	;volatile
  4055   002B94  0011               	retfie		f
  4056                           
  4057                           ; BSR set to: 2
  4058   002B96  A39A               	btfss	154,1,b	;volatile
  4059   002B98  0011               	retfie		f
  4060                           
  4061                           ; BSR set to: 2
  4062                           ;mmc/i2c1.c: 263:     {;mmc/i2c1.c: 264:         I2C1_RestartDisable();
  4063   002B9A  EC01  F018         	call	_I2C1_RestartDisable	;wreg free
  4064                           
  4065                           ; BSR set to: 2
  4066                           ;mmc/i2c1.c: 265:         I2C1PIRbits.RSCIF = 0;
  4067   002B9E  939A               	bcf	154,1,b	;volatile
  4068                           
  4069                           ; BSR set to: 2
  4070   002BA0  0011               	retfie		f
  4071   002BA2                     __end_of_I2C1_ISR:
  4072                           	callstack 0
  4073                           
  4074 ;; *************** function _I2C1_StopSend *****************
  4075 ;; Defined at:
  4076 ;;		line 429 in file "mmc/i2c1.c"
  4077 ;; Parameters:    Size  Location     Type
  4078 ;;		None
  4079 ;; Auto vars:     Size  Location     Type
  4080 ;;		None
  4081 ;; Return value:  Size  Location     Type
  4082 ;;                  1    wreg      void 
  4083 ;; Registers used:
  4084 ;;		wreg, status,2, cstack
  4085 ;; Tracked objects:
  4086 ;;		On entry : 0/2
  4087 ;;		On exit  : 0/0
  4088 ;;		Unchanged: 0/0
  4089 ;; Data sizes:     COMRAM   BANK5   BANK6   BANK7   BANK8   BANK9  BANK10  BANK11  BANK12  BANK13  BANK14  BANK15  BANK1
      +6  BANK17  BANK18  BANK19  BANK20  BANK21  BANK22  BANK23  BANK24  BANK25  BANK26  BANK27  BANK28  BANK29  BANK30  BANK3
      +1  BANK32  BANK33  BANK34  BANK35  BANK36
  4090 ;;      Params:         0       0       0       0       0       0       0       0       0       0       0       0       
      +0       0       0       0       0       0       0       0       0       0       0       0       0       0       0       
      +0       0       0       0       0       0
  4091 ;;      Locals:         0       0       0       0       0       0       0       0       0       0       0       0       
      +0       0       0       0       0       0       0       0       0       0       0       0       0       0       0       
      +0       0       0       0       0       0
  4092 ;;      Temps:          0       0       0       0       0       0       0       0       0       0       0       0       
      +0       0       0       0       0       0       0       0       0       0       0       0       0       0       0       
      +0       0       0       0       0       0
  4093 ;;      Totals:         0       0       0       0       0       0       0       0       0       0       0       0       
      +0       0       0       0       0       0       0       0       0       0       0       0       0       0       0       
      +0       0       0       0       0       0
  4094 ;;Total ram usage:        0 bytes
  4095 ;; Hardware stack levels used: 1
  4096 ;; Hardware stack levels required when called: 1
  4097 ;; This function calls:
  4098 ;;		_I2C1_CounterGet
  4099 ;;		_I2C1_DataTransmit
  4100 ;;		_I2C1_RestartDisable
  4101 ;;		i2_I2C1_CounterSet
  4102 ;; This function is called by:
  4103 ;;		_I2C1_ISR
  4104 ;;		_I2C1_ERROR_ISR
  4105 ;; This function uses a non-reentrant model
  4106 ;;
  4107                           
  4108                           	psect	text37
  4109   002E8C                     __ptext37:
  4110                           	callstack 0
  4111   002E8C                     _I2C1_StopSend:
  4112                           	callstack 118
  4113                           
  4114                           ;mmc/i2c1.c: 431:     I2C1_RestartDisable();
  4115                           
  4116                           ; BSR set to: 2
  4117                           ;incstack = 0
  4118   002E8C  EC01  F018         	call	_I2C1_RestartDisable	;wreg free
  4119                           
  4120                           ; BSR set to: 2
  4121                           ;mmc/i2c1.c: 432:     if (I2C1_CounterGet())
  4122   002E90  EC13  F018         	call	_I2C1_CounterGet	;wreg free
  4123   002E94  0900               	iorlw	0
  4124   002E96  B4D8               	btfsc	status,2,c
  4125   002E98  0012               	return	
  4126                           
  4127                           ; BSR set to: 2
  4128                           ;mmc/i2c1.c: 433:     {;mmc/i2c1.c: 434:         I2C1_CounterSet(0);
  4129   002E9A  0E00               	movlw	0
  4130   002E9C  ECE7  F017         	call	i2_I2C1_CounterSet
  4131                           
  4132                           ;mmc/i2c1.c: 435:         I2C1_DataTransmit(0);
  4133   002EA0  0E00               	movlw	0
  4134   002EA2  ECE3  F017         	call	_I2C1_DataTransmit
  4135   002EA6  0012               	return		;funcret
  4136   002EA8                     __end_of_I2C1_StopSend:
  4137                           	callstack 0
  4138                           
  4139 ;; *************** function _I2C1_RestartDisable *****************
  4140 ;; Defined at:
  4141 ;;		line 424 in file "mmc/i2c1.c"
  4142 ;; Parameters:    Size  Location     Type
  4143 ;;		None
  4144 ;; Auto vars:     Size  Location     Type
  4145 ;;		None
  4146 ;; Return value:  Size  Location     Type
  4147 ;;                  1    wreg      void 
  4148 ;; Registers used:
  4149 ;;		None
  4150 ;; Tracked objects:
  4151 ;;		On entry : 0/2
  4152 ;;		On exit  : 3F/2
  4153 ;;		Unchanged: 0/0
  4154 ;; Data sizes:     COMRAM   BANK5   BANK6   BANK7   BANK8   BANK9  BANK10  BANK11  BANK12  BANK13  BANK14  BANK15  BANK1
      +6  BANK17  BANK18  BANK19  BANK20  BANK21  BANK22  BANK23  BANK24  BANK25  BANK26  BANK27  BANK28  BANK29  BANK30  BANK3
      +1  BANK32  BANK33  BANK34  BANK35  BANK36
  4155 ;;      Params:         0       0       0       0       0       0       0       0       0       0       0       0       
      +0       0       0       0       0       0       0       0       0       0       0       0       0       0       0       
      +0       0       0       0       0       0
  4156 ;;      Locals:         0       0       0       0       0       0       0       0       0       0       0       0       
      +0       0       0       0       0       0       0       0       0       0       0       0       0       0       0       
      +0       0       0       0       0       0
  4157 ;;      Temps:          0       0       0       0       0       0       0       0       0       0       0       0       
      +0       0       0       0       0       0       0       0       0       0       0       0       0       0       0       
      +0       0       0       0       0       0
  4158 ;;      Totals:         0       0       0       0       0       0       0       0       0       0       0       0       
      +0       0       0       0       0       0       0       0       0       0       0       0       0       0       0       
      +0       0       0       0       0       0
  4159 ;;Total ram usage:        0 bytes
  4160 ;; Hardware stack levels used: 1
  4161 ;; This function calls:
  4162 ;;		Nothing
  4163 ;; This function is called by:
  4164 ;;		_I2C1_ISR
  4165 ;;		_I2C1_StopSend
  4166 ;; This function uses a non-reentrant model
  4167 ;;
  4168                           
  4169                           	psect	text38
  4170   003002                     __ptext38:
  4171                           	callstack 0
  4172   003002                     _I2C1_RestartDisable:
  4173                           	callstack 118
  4174                           
  4175                           ;mmc/i2c1.c: 426:     I2C1CON0bits.RSEN = 0;
  4176                           
  4177                           ;incstack = 0
  4178   003002  0102               	movlb	2	; () banked
  4179   003004  9D94               	bcf	148,6,b	;volatile
  4180                           
  4181                           ; BSR set to: 2
  4182   003006  0012               	return		;funcret
  4183   003008                     __end_of_I2C1_RestartDisable:
  4184                           	callstack 0
  4185                           
  4186 ;; *************** function _I2C1_DataTransmit *****************
  4187 ;; Defined at:
  4188 ;;		line 373 in file "mmc/i2c1.c"
  4189 ;; Parameters:    Size  Location     Type
  4190 ;;  data            1    wreg     unsigned char 
  4191 ;; Auto vars:     Size  Location     Type
  4192 ;;  data            1    4[COMRAM] unsigned char 
  4193 ;; Return value:  Size  Location     Type
  4194 ;;                  1    wreg      void 
  4195 ;; Registers used:
  4196 ;;		wreg
  4197 ;; Tracked objects:
  4198 ;;		On entry : 0/2
  4199 ;;		On exit  : 0/0
  4200 ;;		Unchanged: 0/0
  4201 ;; Data sizes:     COMRAM   BANK5   BANK6   BANK7   BANK8   BANK9  BANK10  BANK11  BANK12  BANK13  BANK14  BANK15  BANK1
      +6  BANK17  BANK18  BANK19  BANK20  BANK21  BANK22  BANK23  BANK24  BANK25  BANK26  BANK27  BANK28  BANK29  BANK30  BANK3
      +1  BANK32  BANK33  BANK34  BANK35  BANK36
  4202 ;;      Params:         0       0       0       0       0       0       0       0       0       0       0       0       
      +0       0       0       0       0       0       0       0       0       0       0       0       0       0       0       
      +0       0       0       0       0       0
  4203 ;;      Locals:         1       0       0       0       0       0       0       0       0       0       0       0       
      +0       0       0       0       0       0       0       0       0       0       0       0       0       0       0       
      +0       0       0       0       0       0
  4204 ;;      Temps:          0       0       0       0       0       0       0       0       0       0       0       0       
      +0       0       0       0       0       0       0       0       0       0       0       0       0       0       0       
      +0       0       0       0       0       0
  4205 ;;      Totals:         1       0       0       0       0       0       0       0       0       0       0       0       
      +0       0       0       0       0       0       0       0       0       0       0       0       0       0       0       
      +0       0       0       0       0       0
  4206 ;;Total ram usage:        1 bytes
  4207 ;; Hardware stack levels used: 1
  4208 ;; This function calls:
  4209 ;;		Nothing
  4210 ;; This function is called by:
  4211 ;;		_I2C1_TX_ISR
  4212 ;;		_I2C1_StopSend
  4213 ;; This function uses a non-reentrant model
  4214 ;;
  4215                           
  4216                           	psect	text39
  4217   002FC6                     __ptext39:
  4218                           	callstack 0
  4219   002FC6                     _I2C1_DataTransmit:
  4220                           	callstack 119
  4221                           
  4222                           ; BSR set to: 2
  4223                           ;incstack = 0
  4224                           ;I2C1_DataTransmit@data stored from wreg
  4225   002FC6  6E3A               	movwf	I2C1_DataTransmit@data^(0+1280),c
  4226                           
  4227                           ;mmc/i2c1.c: 373: static void I2C1_DataTransmit(uint8_t data);mmc/i2c1.c: 374: {;mmc/i2c
      +                          1.c: 375:     I2C1TXB = data;
  4228   002FC8  C53A  F28C         	movff	I2C1_DataTransmit@data,652	;volatile
  4229   002FCC  0012               	return		;funcret
  4230   002FCE                     __end_of_I2C1_DataTransmit:
  4231                           	callstack 0
  4232                           
  4233 ;; *************** function _I2C1_CounterGet *****************
  4234 ;; Defined at:
  4235 ;;		line 388 in file "mmc/i2c1.c"
  4236 ;; Parameters:    Size  Location     Type
  4237 ;;		None
  4238 ;; Auto vars:     Size  Location     Type
  4239 ;;		None
  4240 ;; Return value:  Size  Location     Type
  4241 ;;                  1    wreg      unsigned char 
  4242 ;; Registers used:
  4243 ;;		wreg, status,2
  4244 ;; Tracked objects:
  4245 ;;		On entry : 3F/2
  4246 ;;		On exit  : 3F/2
  4247 ;;		Unchanged: 0/0
  4248 ;; Data sizes:     COMRAM   BANK5   BANK6   BANK7   BANK8   BANK9  BANK10  BANK11  BANK12  BANK13  BANK14  BANK15  BANK1
      +6  BANK17  BANK18  BANK19  BANK20  BANK21  BANK22  BANK23  BANK24  BANK25  BANK26  BANK27  BANK28  BANK29  BANK30  BANK3
      +1  BANK32  BANK33  BANK34  BANK35  BANK36
  4249 ;;      Params:         0       0       0       0       0       0       0       0       0       0       0       0       
      +0       0       0       0       0       0       0       0       0       0       0       0       0       0       0       
      +0       0       0       0       0       0
  4250 ;;      Locals:         0       0       0       0       0       0       0       0       0       0       0       0       
      +0       0       0       0       0       0       0       0       0       0       0       0       0       0       0       
      +0       0       0       0       0       0
  4251 ;;      Temps:          0       0       0       0       0       0       0       0       0       0       0       0       
      +0       0       0       0       0       0       0       0       0       0       0       0       0       0       0       
      +0       0       0       0       0       0
  4252 ;;      Totals:         0       0       0       0       0       0       0       0       0       0       0       0       
      +0       0       0       0       0       0       0       0       0       0       0       0       0       0       0       
      +0       0       0       0       0       0
  4253 ;;Total ram usage:        0 bytes
  4254 ;; Hardware stack levels used: 1
  4255 ;; This function calls:
  4256 ;;		Nothing
  4257 ;; This function is called by:
  4258 ;;		_I2C1_StopSend
  4259 ;; This function uses a non-reentrant model
  4260 ;;
  4261                           
  4262                           	psect	text40
  4263   003026                     __ptext40:
  4264                           	callstack 0
  4265   003026                     _I2C1_CounterGet:
  4266                           	callstack 118
  4267                           
  4268                           ; BSR set to: 2
  4269                           ;mmc/i2c1.c: 390:     return (uint8_t) I2C1CNT;
  4270                           
  4271                           ;incstack = 0
  4272   003026  518D               	movf	141,w,b	;volatile
  4273                           
  4274                           ; BSR set to: 2
  4275   003028  0012               	return		;funcret
  4276   00302A                     __end_of_I2C1_CounterGet:
  4277                           	callstack 0
  4278                           
  4279 ;; *************** function _I2C1_ReadStart *****************
  4280 ;; Defined at:
  4281 ;;		line 318 in file "mmc/i2c1.c"
  4282 ;; Parameters:    Size  Location     Type
  4283 ;;		None
  4284 ;; Auto vars:     Size  Location     Type
  4285 ;;		None
  4286 ;; Return value:  Size  Location     Type
  4287 ;;                  1    wreg      void 
  4288 ;; Registers used:
  4289 ;;		wreg, status,2, status,0, cstack
  4290 ;; Tracked objects:
  4291 ;;		On entry : 3F/2
  4292 ;;		On exit  : 3F/2
  4293 ;;		Unchanged: 0/0
  4294 ;; Data sizes:     COMRAM   BANK5   BANK6   BANK7   BANK8   BANK9  BANK10  BANK11  BANK12  BANK13  BANK14  BANK15  BANK1
      +6  BANK17  BANK18  BANK19  BANK20  BANK21  BANK22  BANK23  BANK24  BANK25  BANK26  BANK27  BANK28  BANK29  BANK30  BANK3
      +1  BANK32  BANK33  BANK34  BANK35  BANK36
  4295 ;;      Params:         0       0       0       0       0       0       0       0       0       0       0       0       
      +0       0       0       0       0       0       0       0       0       0       0       0       0       0       0       
      +0       0       0       0       0       0
  4296 ;;      Locals:         0       0       0       0       0       0       0       0       0       0       0       0       
      +0       0       0       0       0       0       0       0       0       0       0       0       0       0       0       
      +0       0       0       0       0       0
  4297 ;;      Temps:          0       0       0       0       0       0       0       0       0       0       0       0       
      +0       0       0       0       0       0       0       0       0       0       0       0       0       0       0       
      +0       0       0       0       0       0
  4298 ;;      Totals:         0       0       0       0       0       0       0       0       0       0       0       0       
      +0       0       0       0       0       0       0       0       0       0       0       0       0       0       0       
      +0       0       0       0       0       0
  4299 ;;Total ram usage:        0 bytes
  4300 ;; Hardware stack levels used: 1
  4301 ;; Hardware stack levels required when called: 1
  4302 ;; This function calls:
  4303 ;;		i2_I2C1_AddrTransmit
  4304 ;;		i2_I2C1_CounterSet
  4305 ;;		i2_I2C1_StartSend
  4306 ;; This function is called by:
  4307 ;;		_I2C1_ISR
  4308 ;;		_I2C1_Read
  4309 ;; This function uses a non-reentrant model
  4310 ;;
  4311                           
  4312                           	psect	text41
  4313   002EA8                     __ptext41:
  4314                           	callstack 0
  4315   002EA8                     _I2C1_ReadStart:
  4316                           	callstack 118
  4317                           
  4318                           ; BSR set to: 2
  4319                           ;mmc/i2c1.c: 320:     if (i2c1Status.readLength)
  4320                           
  4321                           ; BSR set to: 2
  4322                           ;incstack = 0
  4323   002EA8  501A               	movf	(_i2c1Status+9)^(0+1280),w,c	;volatile
  4324   002EAA  101B               	iorwf	(_i2c1Status+10)^(0+1280),w,c	;volatile
  4325   002EAC  B4D8               	btfsc	status,2,c
  4326   002EAE  D003               	goto	i2l2620
  4327                           
  4328                           ; BSR set to: 2
  4329                           ;mmc/i2c1.c: 321:     {;mmc/i2c1.c: 322:         I2C1_CounterSet((uint8_t) i2c1Status.re
      +                          adLength);
  4330   002EB0  501A               	movf	(_i2c1Status+9)^(0+1280),w,c	;volatile
  4331   002EB2  ECE7  F017         	call	i2_I2C1_CounterSet
  4332   002EB6                     i2l2620:
  4333                           
  4334                           ;mmc/i2c1.c: 325:     I2C1_AddrTransmit((uint8_t) (i2c1Status.address << 1 | 1));
  4335   002EB6  80D8               	bsf	status,0,c
  4336   002EB8  3412               	rlcf	(_i2c1Status+1)^(0+1280),w,c	;volatile
  4337   002EBA  ECEB  F017         	call	i2_I2C1_AddrTransmit
  4338                           
  4339                           ;mmc/i2c1.c: 326:     I2C1_StartSend();
  4340   002EBE  EC04  F018         	call	i2_I2C1_StartSend	;wreg free
  4341                           
  4342                           ; BSR set to: 2
  4343   002EC2  0012               	return		;funcret
  4344   002EC4                     __end_of_I2C1_ReadStart:
  4345                           	callstack 0
  4346                           
  4347 ;; *************** function i2_I2C1_StartSend *****************
  4348 ;; Defined at:
  4349 ;;		line 363 in file "mmc/i2c1.c"
  4350 ;; Parameters:    Size  Location     Type
  4351 ;;		None
  4352 ;; Auto vars:     Size  Location     Type
  4353 ;;		None
  4354 ;; Return value:  Size  Location     Type
  4355 ;;                  1    wreg      void 
  4356 ;; Registers used:
  4357 ;;		None
  4358 ;; Tracked objects:
  4359 ;;		On entry : 0/2
  4360 ;;		On exit  : 3F/2
  4361 ;;		Unchanged: 0/0
  4362 ;; Data sizes:     COMRAM   BANK5   BANK6   BANK7   BANK8   BANK9  BANK10  BANK11  BANK12  BANK13  BANK14  BANK15  BANK1
      +6  BANK17  BANK18  BANK19  BANK20  BANK21  BANK22  BANK23  BANK24  BANK25  BANK26  BANK27  BANK28  BANK29  BANK30  BANK3
      +1  BANK32  BANK33  BANK34  BANK35  BANK36
  4363 ;;      Params:         0       0       0       0       0       0       0       0       0       0       0       0       
      +0       0       0       0       0       0       0       0       0       0       0       0       0       0       0       
      +0       0       0       0       0       0
  4364 ;;      Locals:         0       0       0       0       0       0       0       0       0       0       0       0       
      +0       0       0       0       0       0       0       0       0       0       0       0       0       0       0       
      +0       0       0       0       0       0
  4365 ;;      Temps:          0       0       0       0       0       0       0       0       0       0       0       0       
      +0       0       0       0       0       0       0       0       0       0       0       0       0       0       0       
      +0       0       0       0       0       0
  4366 ;;      Totals:         0       0       0       0       0       0       0       0       0       0       0       0       
      +0       0       0       0       0       0       0       0       0       0       0       0       0       0       0       
      +0       0       0       0       0       0
  4367 ;;Total ram usage:        0 bytes
  4368 ;; Hardware stack levels used: 1
  4369 ;; This function calls:
  4370 ;;		Nothing
  4371 ;; This function is called by:
  4372 ;;		_I2C1_ReadStart
  4373 ;; This function uses a non-reentrant model
  4374 ;;
  4375                           
  4376                           	psect	text42
  4377   003008                     __ptext42:
  4378                           	callstack 0
  4379   003008                     i2_I2C1_StartSend:
  4380                           	callstack 118
  4381                           
  4382                           ;mmc/i2c1.c: 365:     I2C1CON0bits.S = 1;
  4383                           
  4384                           ; BSR set to: 2
  4385                           ;incstack = 0
  4386   003008  0102               	movlb	2	; () banked
  4387   00300A  8B94               	bsf	148,5,b	;volatile
  4388                           
  4389                           ; BSR set to: 2
  4390   00300C  0012               	return		;funcret
  4391   00300E                     __end_ofi2_I2C1_StartSend:
  4392                           	callstack 0
  4393                           
  4394 ;; *************** function i2_I2C1_CounterSet *****************
  4395 ;; Defined at:
  4396 ;;		line 383 in file "mmc/i2c1.c"
  4397 ;; Parameters:    Size  Location     Type
  4398 ;;  counter         1    wreg     unsigned char 
  4399 ;; Auto vars:     Size  Location     Type
  4400 ;;  counter         1    1[COMRAM] unsigned char 
  4401 ;; Return value:  Size  Location     Type
  4402 ;;                  1    wreg      void 
  4403 ;; Registers used:
  4404 ;;		wreg
  4405 ;; Tracked objects:
  4406 ;;		On entry : 3F/2
  4407 ;;		On exit  : 0/0
  4408 ;;		Unchanged: 0/0
  4409 ;; Data sizes:     COMRAM   BANK5   BANK6   BANK7   BANK8   BANK9  BANK10  BANK11  BANK12  BANK13  BANK14  BANK15  BANK1
      +6  BANK17  BANK18  BANK19  BANK20  BANK21  BANK22  BANK23  BANK24  BANK25  BANK26  BANK27  BANK28  BANK29  BANK30  BANK3
      +1  BANK32  BANK33  BANK34  BANK35  BANK36
  4410 ;;      Params:         0       0       0       0       0       0       0       0       0       0       0       0       
      +0       0       0       0       0       0       0       0       0       0       0       0       0       0       0       
      +0       0       0       0       0       0
  4411 ;;      Locals:         1       0       0       0       0       0       0       0       0       0       0       0       
      +0       0       0       0       0       0       0       0       0       0       0       0       0       0       0       
      +0       0       0       0       0       0
  4412 ;;      Temps:          0       0       0       0       0       0       0       0       0       0       0       0       
      +0       0       0       0       0       0       0       0       0       0       0       0       0       0       0       
      +0       0       0       0       0       0
  4413 ;;      Totals:         1       0       0       0       0       0       0       0       0       0       0       0       
      +0       0       0       0       0       0       0       0       0       0       0       0       0       0       0       
      +0       0       0       0       0       0
  4414 ;;Total ram usage:        1 bytes
  4415 ;; Hardware stack levels used: 1
  4416 ;; This function calls:
  4417 ;;		Nothing
  4418 ;; This function is called by:
  4419 ;;		_I2C1_ReadStart
  4420 ;;		_I2C1_StopSend
  4421 ;; This function uses a non-reentrant model
  4422 ;;
  4423                           
  4424                           	psect	text43
  4425   002FCE                     __ptext43:
  4426                           	callstack 0
  4427   002FCE                     i2_I2C1_CounterSet:
  4428                           	callstack 118
  4429                           
  4430                           ; BSR set to: 2
  4431                           ;incstack = 0
  4432                           ;i2I2C1_CounterSet@counter stored from wreg
  4433   002FCE  6E37               	movwf	i2I2C1_CounterSet@counter^(0+1280),c
  4434                           
  4435                           ;mmc/i2c1.c: 383: static void I2C1_CounterSet(uint8_t counter);mmc/i2c1.c: 384: {;mmc/i2
      +                          c1.c: 385:     I2C1CNT = counter;
  4436   002FD0  C537  F28D         	movff	i2I2C1_CounterSet@counter,653	;volatile
  4437   002FD4  0012               	return		;funcret
  4438   002FD6                     __end_ofi2_I2C1_CounterSet:
  4439                           	callstack 0
  4440                           
  4441 ;; *************** function i2_I2C1_AddrTransmit *****************
  4442 ;; Defined at:
  4443 ;;		line 368 in file "mmc/i2c1.c"
  4444 ;; Parameters:    Size  Location     Type
  4445 ;;  addr            1    wreg     unsigned char 
  4446 ;; Auto vars:     Size  Location     Type
  4447 ;;  addr            1    0[COMRAM] unsigned char 
  4448 ;; Return value:  Size  Location     Type
  4449 ;;                  1    wreg      void 
  4450 ;; Registers used:
  4451 ;;		wreg
  4452 ;; Tracked objects:
  4453 ;;		On entry : 0/2
  4454 ;;		On exit  : 0/0
  4455 ;;		Unchanged: 0/0
  4456 ;; Data sizes:     COMRAM   BANK5   BANK6   BANK7   BANK8   BANK9  BANK10  BANK11  BANK12  BANK13  BANK14  BANK15  BANK1
      +6  BANK17  BANK18  BANK19  BANK20  BANK21  BANK22  BANK23  BANK24  BANK25  BANK26  BANK27  BANK28  BANK29  BANK30  BANK3
      +1  BANK32  BANK33  BANK34  BANK35  BANK36
  4457 ;;      Params:         0       0       0       0       0       0       0       0       0       0       0       0       
      +0       0       0       0       0       0       0       0       0       0       0       0       0       0       0       
      +0       0       0       0       0       0
  4458 ;;      Locals:         1       0       0       0       0       0       0       0       0       0       0       0       
      +0       0       0       0       0       0       0       0       0       0       0       0       0       0       0       
      +0       0       0       0       0       0
  4459 ;;      Temps:          0       0       0       0       0       0       0       0       0       0       0       0       
      +0       0       0       0       0       0       0       0       0       0       0       0       0       0       0       
      +0       0       0       0       0       0
  4460 ;;      Totals:         1       0       0       0       0       0       0       0       0       0       0       0       
      +0       0       0       0       0       0       0       0       0       0       0       0       0       0       0       
      +0       0       0       0       0       0
  4461 ;;Total ram usage:        1 bytes
  4462 ;; Hardware stack levels used: 1
  4463 ;; This function calls:
  4464 ;;		Nothing
  4465 ;; This function is called by:
  4466 ;;		_I2C1_ReadStart
  4467 ;; This function uses a non-reentrant model
  4468 ;;
  4469                           
  4470                           	psect	text44
  4471   002FD6                     __ptext44:
  4472                           	callstack 0
  4473   002FD6                     i2_I2C1_AddrTransmit:
  4474                           	callstack 118
  4475                           
  4476                           ;incstack = 0
  4477                           ;i2I2C1_AddrTransmit@addr stored from wreg
  4478   002FD6  6E36               	movwf	i2I2C1_AddrTransmit@addr^(0+1280),c
  4479                           
  4480                           ;mmc/i2c1.c: 368: static void I2C1_AddrTransmit(uint8_t addr);mmc/i2c1.c: 369: {;mmc/i2c
      +                          1.c: 370:     I2C1ADB1 = addr;
  4481   002FD8  C536  F28F         	movff	i2I2C1_AddrTransmit@addr,655	;volatile
  4482   002FDC  0012               	return		;funcret
  4483   002FDE                     __end_ofi2_I2C1_AddrTransmit:
  4484                           	callstack 0
  4485                           
  4486 ;; *************** function _I2C1_Close *****************
  4487 ;; Defined at:
  4488 ;;		line 344 in file "mmc/i2c1.c"
  4489 ;; Parameters:    Size  Location     Type
  4490 ;;		None
  4491 ;; Auto vars:     Size  Location     Type
  4492 ;;		None
  4493 ;; Return value:  Size  Location     Type
  4494 ;;                  1    wreg      void 
  4495 ;; Registers used:
  4496 ;;		wreg, status,2, status,0, cstack
  4497 ;; Tracked objects:
  4498 ;;		On entry : 0/2
  4499 ;;		On exit  : 3F/2
  4500 ;;		Unchanged: 0/0
  4501 ;; Data sizes:     COMRAM   BANK5   BANK6   BANK7   BANK8   BANK9  BANK10  BANK11  BANK12  BANK13  BANK14  BANK15  BANK1
      +6  BANK17  BANK18  BANK19  BANK20  BANK21  BANK22  BANK23  BANK24  BANK25  BANK26  BANK27  BANK28  BANK29  BANK30  BANK3
      +1  BANK32  BANK33  BANK34  BANK35  BANK36
  4502 ;;      Params:         0       0       0       0       0       0       0       0       0       0       0       0       
      +0       0       0       0       0       0       0       0       0       0       0       0       0       0       0       
      +0       0       0       0       0       0
  4503 ;;      Locals:         0       0       0       0       0       0       0       0       0       0       0       0       
      +0       0       0       0       0       0       0       0       0       0       0       0       0       0       0       
      +0       0       0       0       0       0
  4504 ;;      Temps:          0       0       0       0       0       0       0       0       0       0       0       0       
      +0       0       0       0       0       0       0       0       0       0       0       0       0       0       0       
      +0       0       0       0       0       0
  4505 ;;      Totals:         0       0       0       0       0       0       0       0       0       0       0       0       
      +0       0       0       0       0       0       0       0       0       0       0       0       0       0       0       
      +0       0       0       0       0       0
  4506 ;;Total ram usage:        0 bytes
  4507 ;; Hardware stack levels used: 1
  4508 ;; Hardware stack levels required when called: 1
  4509 ;; This function calls:
  4510 ;;		_I2C1_BufferClear
  4511 ;;		_I2C1_ErrorFlagsClear
  4512 ;;		_I2C1_InterruptsClear
  4513 ;; This function is called by:
  4514 ;;		_I2C1_ISR
  4515 ;; This function uses a non-reentrant model
  4516 ;;
  4517                           
  4518                           	psect	text45
  4519   002D88                     __ptext45:
  4520                           	callstack 0
  4521   002D88                     _I2C1_Close:
  4522                           	callstack 118
  4523                           
  4524                           ;mmc/i2c1.c: 346:     i2c1Status.busy = 0;
  4525                           
  4526                           ;incstack = 0
  4527   002D88  0E00               	movlw	0
  4528   002D8A  6E11               	movwf	_i2c1Status^(0+1280),c	;volatile
  4529                           
  4530                           ;mmc/i2c1.c: 347:     i2c1Status.address = 0xFF;
  4531   002D8C  0E00               	movlw	0
  4532   002D8E  6E13               	movwf	(_i2c1Status+2)^(0+1280),c	;volatile
  4533   002D90  6812               	setf	(_i2c1Status+1)^(0+1280),c	;volatile
  4534                           
  4535                           ;mmc/i2c1.c: 348:     i2c1Status.writePtr = ((void*)0);
  4536   002D92  0E00               	movlw	0
  4537   002D94  6E14               	movwf	(_i2c1Status+3)^(0+1280),c	;volatile
  4538   002D96  0E00               	movlw	0
  4539   002D98  6E15               	movwf	(_i2c1Status+4)^(0+1280),c	;volatile
  4540                           
  4541                           ;mmc/i2c1.c: 349:     i2c1Status.readPtr = ((void*)0);
  4542   002D9A  0E00               	movlw	0
  4543   002D9C  6E18               	movwf	(_i2c1Status+7)^(0+1280),c	;volatile
  4544   002D9E  0E00               	movlw	0
  4545   002DA0  6E19               	movwf	(_i2c1Status+8)^(0+1280),c	;volatile
  4546                           
  4547                           ;mmc/i2c1.c: 350:     I2C1_InterruptsClear();
  4548   002DA2  ECEF  F017         	call	_I2C1_InterruptsClear	;wreg free
  4549                           
  4550                           ;mmc/i2c1.c: 351:     I2C1_ErrorFlagsClear();
  4551   002DA6  ECF3  F017         	call	_I2C1_ErrorFlagsClear	;wreg free
  4552                           
  4553                           ; BSR set to: 2
  4554                           ;mmc/i2c1.c: 352:     I2C1_BufferClear();
  4555   002DAA  ECF7  F017         	call	_I2C1_BufferClear	;wreg free
  4556                           
  4557                           ; BSR set to: 2
  4558   002DAE  0012               	return		;funcret
  4559   002DB0                     __end_of_I2C1_Close:
  4560                           	callstack 0
  4561                           
  4562 ;; *************** function _I2C1_InterruptsClear *****************
  4563 ;; Defined at:
  4564 ;;		line 487 in file "mmc/i2c1.c"
  4565 ;; Parameters:    Size  Location     Type
  4566 ;;		None
  4567 ;; Auto vars:     Size  Location     Type
  4568 ;;		None
  4569 ;; Return value:  Size  Location     Type
  4570 ;;                  1    wreg      void 
  4571 ;; Registers used:
  4572 ;;		wreg, status,2
  4573 ;; Tracked objects:
  4574 ;;		On entry : 0/2
  4575 ;;		On exit  : 3F/2
  4576 ;;		Unchanged: 0/0
  4577 ;; Data sizes:     COMRAM   BANK5   BANK6   BANK7   BANK8   BANK9  BANK10  BANK11  BANK12  BANK13  BANK14  BANK15  BANK1
      +6  BANK17  BANK18  BANK19  BANK20  BANK21  BANK22  BANK23  BANK24  BANK25  BANK26  BANK27  BANK28  BANK29  BANK30  BANK3
      +1  BANK32  BANK33  BANK34  BANK35  BANK36
  4578 ;;      Params:         0       0       0       0       0       0       0       0       0       0       0       0       
      +0       0       0       0       0       0       0       0       0       0       0       0       0       0       0       
      +0       0       0       0       0       0
  4579 ;;      Locals:         0       0       0       0       0       0       0       0       0       0       0       0       
      +0       0       0       0       0       0       0       0       0       0       0       0       0       0       0       
      +0       0       0       0       0       0
  4580 ;;      Temps:          0       0       0       0       0       0       0       0       0       0       0       0       
      +0       0       0       0       0       0       0       0       0       0       0       0       0       0       0       
      +0       0       0       0       0       0
  4581 ;;      Totals:         0       0       0       0       0       0       0       0       0       0       0       0       
      +0       0       0       0       0       0       0       0       0       0       0       0       0       0       0       
      +0       0       0       0       0       0
  4582 ;;Total ram usage:        0 bytes
  4583 ;; Hardware stack levels used: 1
  4584 ;; This function calls:
  4585 ;;		Nothing
  4586 ;; This function is called by:
  4587 ;;		_I2C1_Close
  4588 ;;		_I2C1_BusReset
  4589 ;; This function uses a non-reentrant model
  4590 ;;
  4591                           
  4592                           	psect	text46
  4593   002FDE                     __ptext46:
  4594                           	callstack 0
  4595   002FDE                     _I2C1_InterruptsClear:
  4596                           	callstack 118
  4597                           
  4598                           ;mmc/i2c1.c: 489:     I2C1PIR = 0x00;
  4599                           
  4600                           ; BSR set to: 2
  4601                           ;incstack = 0
  4602   002FDE  0E00               	movlw	0
  4603   002FE0  0102               	movlb	2	; () banked
  4604   002FE2  6F9A               	movwf	154,b	;volatile
  4605                           
  4606                           ; BSR set to: 2
  4607   002FE4  0012               	return		;funcret
  4608   002FE6                     __end_of_I2C1_InterruptsClear:
  4609                           	callstack 0
  4610                           
  4611 ;; *************** function _I2C1_ErrorFlagsClear *****************
  4612 ;; Defined at:
  4613 ;;		line 492 in file "mmc/i2c1.c"
  4614 ;; Parameters:    Size  Location     Type
  4615 ;;		None
  4616 ;; Auto vars:     Size  Location     Type
  4617 ;;		None
  4618 ;; Return value:  Size  Location     Type
  4619 ;;                  1    wreg      void 
  4620 ;; Registers used:
  4621 ;;		None
  4622 ;; Tracked objects:
  4623 ;;		On entry : 3F/2
  4624 ;;		On exit  : 3F/2
  4625 ;;		Unchanged: 0/0
  4626 ;; Data sizes:     COMRAM   BANK5   BANK6   BANK7   BANK8   BANK9  BANK10  BANK11  BANK12  BANK13  BANK14  BANK15  BANK1
      +6  BANK17  BANK18  BANK19  BANK20  BANK21  BANK22  BANK23  BANK24  BANK25  BANK26  BANK27  BANK28  BANK29  BANK30  BANK3
      +1  BANK32  BANK33  BANK34  BANK35  BANK36
  4627 ;;      Params:         0       0       0       0       0       0       0       0       0       0       0       0       
      +0       0       0       0       0       0       0       0       0       0       0       0       0       0       0       
      +0       0       0       0       0       0
  4628 ;;      Locals:         0       0       0       0       0       0       0       0       0       0       0       0       
      +0       0       0       0       0       0       0       0       0       0       0       0       0       0       0       
      +0       0       0       0       0       0
  4629 ;;      Temps:          0       0       0       0       0       0       0       0       0       0       0       0       
      +0       0       0       0       0       0       0       0       0       0       0       0       0       0       0       
      +0       0       0       0       0       0
  4630 ;;      Totals:         0       0       0       0       0       0       0       0       0       0       0       0       
      +0       0       0       0       0       0       0       0       0       0       0       0       0       0       0       
      +0       0       0       0       0       0
  4631 ;;Total ram usage:        0 bytes
  4632 ;; Hardware stack levels used: 1
  4633 ;; This function calls:
  4634 ;;		Nothing
  4635 ;; This function is called by:
  4636 ;;		_I2C1_Close
  4637 ;;		_I2C1_BusReset
  4638 ;; This function uses a non-reentrant model
  4639 ;;
  4640                           
  4641                           	psect	text47
  4642   002FE6                     __ptext47:
  4643                           	callstack 0
  4644   002FE6                     _I2C1_ErrorFlagsClear:
  4645                           	callstack 118
  4646                           
  4647                           ; BSR set to: 2
  4648                           ;mmc/i2c1.c: 494:     I2C1ERRbits.BCLIF = 0;
  4649                           
  4650                           ; BSR set to: 2
  4651                           ;incstack = 0
  4652   002FE6  9B97               	bcf	151,5,b	;volatile
  4653                           
  4654                           ;mmc/i2c1.c: 495:     I2C1ERRbits.BTOIF = 0;
  4655   002FE8  9D97               	bcf	151,6,b	;volatile
  4656                           
  4657                           ;mmc/i2c1.c: 496:     I2C1ERRbits.NACKIF = 0;
  4658   002FEA  9997               	bcf	151,4,b	;volatile
  4659                           
  4660                           ; BSR set to: 2
  4661   002FEC  0012               	return		;funcret
  4662   002FEE                     __end_of_I2C1_ErrorFlagsClear:
  4663                           	callstack 0
  4664                           
  4665 ;; *************** function _I2C1_BufferClear *****************
  4666 ;; Defined at:
  4667 ;;		line 499 in file "mmc/i2c1.c"
  4668 ;; Parameters:    Size  Location     Type
  4669 ;;		None
  4670 ;; Auto vars:     Size  Location     Type
  4671 ;;		None
  4672 ;; Return value:  Size  Location     Type
  4673 ;;                  1    wreg      void 
  4674 ;; Registers used:
  4675 ;;		wreg, status,2
  4676 ;; Tracked objects:
  4677 ;;		On entry : 3F/2
  4678 ;;		On exit  : 3F/2
  4679 ;;		Unchanged: 0/0
  4680 ;; Data sizes:     COMRAM   BANK5   BANK6   BANK7   BANK8   BANK9  BANK10  BANK11  BANK12  BANK13  BANK14  BANK15  BANK1
      +6  BANK17  BANK18  BANK19  BANK20  BANK21  BANK22  BANK23  BANK24  BANK25  BANK26  BANK27  BANK28  BANK29  BANK30  BANK3
      +1  BANK32  BANK33  BANK34  BANK35  BANK36
  4681 ;;      Params:         0       0       0       0       0       0       0       0       0       0       0       0       
      +0       0       0       0       0       0       0       0       0       0       0       0       0       0       0       
      +0       0       0       0       0       0
  4682 ;;      Locals:         0       0       0       0       0       0       0       0       0       0       0       0       
      +0       0       0       0       0       0       0       0       0       0       0       0       0       0       0       
      +0       0       0       0       0       0
  4683 ;;      Temps:          0       0       0       0       0       0       0       0       0       0       0       0       
      +0       0       0       0       0       0       0       0       0       0       0       0       0       0       0       
      +0       0       0       0       0       0
  4684 ;;      Totals:         0       0       0       0       0       0       0       0       0       0       0       0       
      +0       0       0       0       0       0       0       0       0       0       0       0       0       0       0       
      +0       0       0       0       0       0
  4685 ;;Total ram usage:        0 bytes
  4686 ;; Hardware stack levels used: 1
  4687 ;; This function calls:
  4688 ;;		Nothing
  4689 ;; This function is called by:
  4690 ;;		_I2C1_Close
  4691 ;;		_I2C1_BusReset
  4692 ;; This function uses a non-reentrant model
  4693 ;;
  4694                           
  4695                           	psect	text48
  4696   002FEE                     __ptext48:
  4697                           	callstack 0
  4698   002FEE                     _I2C1_BufferClear:
  4699                           	callstack 118
  4700                           
  4701                           ; BSR set to: 2
  4702                           ;mmc/i2c1.c: 501:     I2C1STAT1 = 0x00;
  4703                           
  4704                           ; BSR set to: 2
  4705                           ;incstack = 0
  4706   002FEE  0E00               	movlw	0
  4707   002FF0  6F99               	movwf	153,b	;volatile
  4708                           
  4709                           ; BSR set to: 2
  4710                           ;mmc/i2c1.c: 502:     I2C1STAT1bits.CLRBF = 1;
  4711   002FF2  8599               	bsf	153,2,b	;volatile
  4712                           
  4713                           ; BSR set to: 2
  4714   002FF4  0012               	return		;funcret
  4715   002FF6                     __end_of_I2C1_BufferClear:
  4716                           	callstack 0
  4717                           
  4718 ;; *************** function _I2C1_ERROR_ISR *****************
  4719 ;; Defined at:
  4720 ;;		line 269 in file "mmc/i2c1.c"
  4721 ;; Parameters:    Size  Location     Type
  4722 ;;		None
  4723 ;; Auto vars:     Size  Location     Type
  4724 ;;		None
  4725 ;; Return value:  Size  Location     Type
  4726 ;;                  1    wreg      void 
  4727 ;; Registers used:
  4728 ;;		wreg, status,2, pcl, pclath, pclatu, tosl, cstack
  4729 ;; Tracked objects:
  4730 ;;		On entry : 0/0
  4731 ;;		On exit  : 0/0
  4732 ;;		Unchanged: 0/0
  4733 ;; Data sizes:     COMRAM   BANK5   BANK6   BANK7   BANK8   BANK9  BANK10  BANK11  BANK12  BANK13  BANK14  BANK15  BANK1
      +6  BANK17  BANK18  BANK19  BANK20  BANK21  BANK22  BANK23  BANK24  BANK25  BANK26  BANK27  BANK28  BANK29  BANK30  BANK3
      +1  BANK32  BANK33  BANK34  BANK35  BANK36
  4734 ;;      Params:         0       0       0       0       0       0       0       0       0       0       0       0       
      +0       0       0       0       0       0       0       0       0       0       0       0       0       0       0       
      +0       0       0       0       0       0
  4735 ;;      Locals:         0       0       0       0       0       0       0       0       0       0       0       0       
      +0       0       0       0       0       0       0       0       0       0       0       0       0       0       0       
      +0       0       0       0       0       0
  4736 ;;      Temps:          2       0       0       0       0       0       0       0       0       0       0       0       
      +0       0       0       0       0       0       0       0       0       0       0       0       0       0       0       
      +0       0       0       0       0       0
  4737 ;;      Totals:         2       0       0       0       0       0       0       0       0       0       0       0       
      +0       0       0       0       0       0       0       0       0       0       0       0       0       0       0       
      +0       0       0       0       0       0
  4738 ;;Total ram usage:        2 bytes
  4739 ;; Hardware stack levels used: 1
  4740 ;; Hardware stack levels required when called: 2
  4741 ;; This function calls:
  4742 ;;		NULL
  4743 ;;		_I2C1_BusReset
  4744 ;;		_I2C1_DefaultCallback
  4745 ;;		_I2C1_IsAddr
  4746 ;;		_I2C1_IsBusCol
  4747 ;;		_I2C1_IsBusTimeOut
  4748 ;;		_I2C1_IsData
  4749 ;;		_I2C1_IsNack
  4750 ;;		_I2C1_StopSend
  4751 ;; This function is called by:
  4752 ;;		Interrupt level 2
  4753 ;; This function uses a non-reentrant model
  4754 ;;
  4755                           
  4756                           	psect	text49
  4757   0026DC                     __ptext49:
  4758                           	callstack 0
  4759   0026DC                     _I2C1_ERROR_ISR:
  4760                           	callstack 118
  4761                           
  4762                           ; BSR set to: 2
  4763                           ;incstack = 0
  4764   0026DC  C4FA F538          	movff	pclath,??_I2C1_ERROR_ISR
  4765   0026E0  C4FB F539          	movff	pclatu,??_I2C1_ERROR_ISR+1
  4766                           
  4767                           ;mmc/i2c1.c: 271:     if (I2C1_IsBusCol())
  4768   0026E4  ECBC  F017         	call	_I2C1_IsBusCol	;wreg free
  4769   0026E8  0900               	iorlw	0
  4770   0026EA  B4D8               	btfsc	status,2,c
  4771   0026EC  D006               	goto	i2l2754
  4772                           
  4773                           ; BSR set to: 2
  4774                           ;mmc/i2c1.c: 272:     {;mmc/i2c1.c: 273:         i2c1Status.errorState = I2C_ERROR_BUS_C
      +                          OLLISION;
  4775   0026EE  0E03               	movlw	3
  4776   0026F0  6E1D               	movwf	(_i2c1Status+12)^(0+1280),c	;volatile
  4777                           
  4778                           ; BSR set to: 2
  4779                           ;mmc/i2c1.c: 274:         I2C1ERRbits.BCLIF = 0;
  4780   0026F2  9B97               	bcf	151,5,b	;volatile
  4781                           
  4782                           ; BSR set to: 2
  4783                           ;mmc/i2c1.c: 275:         I2C1_BusReset();
  4784   0026F4  ECEF  F015         	call	_I2C1_BusReset	;wreg free
  4785                           
  4786                           ;mmc/i2c1.c: 276:     }
  4787   0026F8  D026               	goto	i2l2780
  4788   0026FA                     i2l2754:
  4789                           
  4790                           ; BSR set to: 2
  4791   0026FA  ECD5  F017         	call	_I2C1_IsAddr	;wreg free
  4792   0026FE  0900               	iorlw	0
  4793   002700  B4D8               	btfsc	status,2,c
  4794   002702  D00B               	goto	i2l2764
  4795                           
  4796                           ; BSR set to: 2
  4797   002704  ECC3  F017         	call	_I2C1_IsNack	;wreg free
  4798   002708  0900               	iorlw	0
  4799   00270A  B4D8               	btfsc	status,2,c
  4800   00270C  D006               	goto	i2l2764
  4801                           
  4802                           ; BSR set to: 2
  4803                           ;mmc/i2c1.c: 278:     {;mmc/i2c1.c: 279:         i2c1Status.errorState = I2C_ERROR_ADDR_
      +                          NACK;
  4804   00270E  0E01               	movlw	1
  4805   002710  6E1D               	movwf	(_i2c1Status+12)^(0+1280),c	;volatile
  4806                           
  4807                           ; BSR set to: 2
  4808                           ;mmc/i2c1.c: 280:         I2C1ERRbits.NACKIF = 0;
  4809   002712  9997               	bcf	151,4,b	;volatile
  4810                           
  4811                           ; BSR set to: 2
  4812                           ;mmc/i2c1.c: 281:         I2C1_StopSend();
  4813   002714  EC46  F017         	call	_I2C1_StopSend	;wreg free
  4814                           
  4815                           ;mmc/i2c1.c: 282:     }
  4816   002718  D016               	goto	i2l2780
  4817   00271A                     i2l2764:
  4818                           
  4819                           ; BSR set to: 2
  4820   00271A  ECC9  F017         	call	_I2C1_IsData	;wreg free
  4821   00271E  0900               	iorlw	0
  4822   002720  B4D8               	btfsc	status,2,c
  4823   002722  D007               	goto	i2l2774
  4824                           
  4825                           ; BSR set to: 2
  4826   002724  ECC3  F017         	call	_I2C1_IsNack	;wreg free
  4827   002728  0900               	iorlw	0
  4828   00272A  B4D8               	btfsc	status,2,c
  4829   00272C  D002               	goto	i2l2774
  4830                           
  4831                           ; BSR set to: 2
  4832                           ;mmc/i2c1.c: 284:     {;mmc/i2c1.c: 285:         i2c1Status.errorState = I2C_ERROR_DATA_
      +                          NACK;
  4833   00272E  0E02               	movlw	2
  4834   002730  D7EF               	goto	L1
  4835   002732                     i2l2774:
  4836                           
  4837                           ; BSR set to: 2
  4838   002732  ECCF  F017         	call	_I2C1_IsBusTimeOut	;wreg free
  4839   002736  0900               	iorlw	0
  4840   002738  B4D8               	btfsc	status,2,c
  4841   00273A  D004               	goto	i2l189
  4842                           
  4843                           ; BSR set to: 2
  4844                           ;mmc/i2c1.c: 290:     {;mmc/i2c1.c: 291:         i2c1Status.errorState = I2C_ERROR_BUS_C
      +                          OLLISION;
  4845   00273C  0E03               	movlw	3
  4846   00273E  6E1D               	movwf	(_i2c1Status+12)^(0+1280),c	;volatile
  4847                           
  4848                           ; BSR set to: 2
  4849                           ;mmc/i2c1.c: 292:         I2C1ERRbits.BTOIF = 0;
  4850   002740  9D97               	bcf	151,6,b	;volatile
  4851                           
  4852                           ;mmc/i2c1.c: 293:     }
  4853   002742  D001               	goto	i2l2780
  4854   002744                     i2l189:
  4855                           
  4856                           ; BSR set to: 2
  4857                           ;mmc/i2c1.c: 295:     {;mmc/i2c1.c: 296:         I2C1ERRbits.NACKIF = 0;
  4858   002744  9997               	bcf	151,4,b	;volatile
  4859   002746                     i2l2780:
  4860                           
  4861                           ;mmc/i2c1.c: 299:     if (i2c1Status.errorState != I2C_ERROR_NONE)
  4862   002746  501D               	movf	(_i2c1Status+12)^(0+1280),w,c	;volatile
  4863   002748  B4D8               	btfsc	status,2,c
  4864   00274A  D00C               	goto	i2u96_49
  4865                           
  4866                           ;mmc/i2c1.c: 300:     {;mmc/i2c1.c: 301:         I2C1_Callback();
  4867   00274C  D801               	call	i2u96_48
  4868   00274E  D00A               	goto	i2u96_49
  4869   002750                     i2u96_48:
  4870   002750  0005               	push	
  4871   002752  6EFA               	movwf	pclath,c
  4872   002754  501E               	movf	_I2C1_Callback^(0+1280),w,c
  4873   002756  6EFD               	movwf	tosl,c
  4874   002758  501F               	movf	(_I2C1_Callback+1)^(0+1280),w,c
  4875   00275A  6EFE               	movwf	tosh,c
  4876   00275C  5020               	movf	(_I2C1_Callback+2)^(0+1280),w,c
  4877   00275E  6EFF               	movwf	tosu,c
  4878   002760  50FA               	movf	pclath,w,c
  4879   002762  0012               	return		;indir
  4880   002764                     i2u96_49:
  4881   002764  C539  F4FB         	movff	??_I2C1_ERROR_ISR+1,pclatu
  4882   002768  C538  F4FA         	movff	??_I2C1_ERROR_ISR,pclath
  4883   00276C  0011               	retfie		f
  4884   00276E                     __end_of_I2C1_ERROR_ISR:
  4885                           	callstack 0
  4886                           
  4887 ;; *************** function _I2C1_IsNack *****************
  4888 ;; Defined at:
  4889 ;;		line 439 in file "mmc/i2c1.c"
  4890 ;; Parameters:    Size  Location     Type
  4891 ;;		None
  4892 ;; Auto vars:     Size  Location     Type
  4893 ;;		None
  4894 ;; Return value:  Size  Location     Type
  4895 ;;                  1    wreg      _Bool 
  4896 ;; Registers used:
  4897 ;;		wreg
  4898 ;; Tracked objects:
  4899 ;;		On entry : 3F/2
  4900 ;;		On exit  : 3F/2
  4901 ;;		Unchanged: 0/0
  4902 ;; Data sizes:     COMRAM   BANK5   BANK6   BANK7   BANK8   BANK9  BANK10  BANK11  BANK12  BANK13  BANK14  BANK15  BANK1
      +6  BANK17  BANK18  BANK19  BANK20  BANK21  BANK22  BANK23  BANK24  BANK25  BANK26  BANK27  BANK28  BANK29  BANK30  BANK3
      +1  BANK32  BANK33  BANK34  BANK35  BANK36
  4903 ;;      Params:         0       0       0       0       0       0       0       0       0       0       0       0       
      +0       0       0       0       0       0       0       0       0       0       0       0       0       0       0       
      +0       0       0       0       0       0
  4904 ;;      Locals:         0       0       0       0       0       0       0       0       0       0       0       0       
      +0       0       0       0       0       0       0       0       0       0       0       0       0       0       0       
      +0       0       0       0       0       0
  4905 ;;      Temps:          0       0       0       0       0       0       0       0       0       0       0       0       
      +0       0       0       0       0       0       0       0       0       0       0       0       0       0       0       
      +0       0       0       0       0       0
  4906 ;;      Totals:         0       0       0       0       0       0       0       0       0       0       0       0       
      +0       0       0       0       0       0       0       0       0       0       0       0       0       0       0       
      +0       0       0       0       0       0
  4907 ;;Total ram usage:        0 bytes
  4908 ;; Hardware stack levels used: 1
  4909 ;; This function calls:
  4910 ;;		Nothing
  4911 ;; This function is called by:
  4912 ;;		_I2C1_ERROR_ISR
  4913 ;; This function uses a non-reentrant model
  4914 ;;
  4915                           
  4916                           	psect	text50
  4917   002F86                     __ptext50:
  4918                           	callstack 0
  4919   002F86                     _I2C1_IsNack:
  4920                           	callstack 119
  4921                           
  4922                           ; BSR set to: 2
  4923                           ;mmc/i2c1.c: 441:     return I2C1CON1bits.ACKSTAT;
  4924                           
  4925                           ;incstack = 0
  4926   002F86  AB95               	btfss	149,5,b	;volatile
  4927   002F88  D002               	goto	i2u28_40
  4928   002F8A  0E01               	movlw	1
  4929   002F8C  0012               	return	
  4930   002F8E                     i2u28_40:
  4931   002F8E  0E00               	movlw	0
  4932                           
  4933                           ; BSR set to: 2
  4934   002F90  0012               	return		;funcret
  4935   002F92                     __end_of_I2C1_IsNack:
  4936                           	callstack 0
  4937                           
  4938 ;; *************** function _I2C1_IsData *****************
  4939 ;; Defined at:
  4940 ;;		line 454 in file "mmc/i2c1.c"
  4941 ;; Parameters:    Size  Location     Type
  4942 ;;		None
  4943 ;; Auto vars:     Size  Location     Type
  4944 ;;		None
  4945 ;; Return value:  Size  Location     Type
  4946 ;;                  1    wreg      _Bool 
  4947 ;; Registers used:
  4948 ;;		wreg
  4949 ;; Tracked objects:
  4950 ;;		On entry : 3F/2
  4951 ;;		On exit  : 3F/2
  4952 ;;		Unchanged: 0/0
  4953 ;; Data sizes:     COMRAM   BANK5   BANK6   BANK7   BANK8   BANK9  BANK10  BANK11  BANK12  BANK13  BANK14  BANK15  BANK1
      +6  BANK17  BANK18  BANK19  BANK20  BANK21  BANK22  BANK23  BANK24  BANK25  BANK26  BANK27  BANK28  BANK29  BANK30  BANK3
      +1  BANK32  BANK33  BANK34  BANK35  BANK36
  4954 ;;      Params:         0       0       0       0       0       0       0       0       0       0       0       0       
      +0       0       0       0       0       0       0       0       0       0       0       0       0       0       0       
      +0       0       0       0       0       0
  4955 ;;      Locals:         0       0       0       0       0       0       0       0       0       0       0       0       
      +0       0       0       0       0       0       0       0       0       0       0       0       0       0       0       
      +0       0       0       0       0       0
  4956 ;;      Temps:          0       0       0       0       0       0       0       0       0       0       0       0       
      +0       0       0       0       0       0       0       0       0       0       0       0       0       0       0       
      +0       0       0       0       0       0
  4957 ;;      Totals:         0       0       0       0       0       0       0       0       0       0       0       0       
      +0       0       0       0       0       0       0       0       0       0       0       0       0       0       0       
      +0       0       0       0       0       0
  4958 ;;Total ram usage:        0 bytes
  4959 ;; Hardware stack levels used: 1
  4960 ;; This function calls:
  4961 ;;		Nothing
  4962 ;; This function is called by:
  4963 ;;		_I2C1_ERROR_ISR
  4964 ;; This function uses a non-reentrant model
  4965 ;;
  4966                           
  4967                           	psect	text51
  4968   002F92                     __ptext51:
  4969                           	callstack 0
  4970   002F92                     _I2C1_IsData:
  4971                           	callstack 119
  4972                           
  4973                           ; BSR set to: 2
  4974                           ;mmc/i2c1.c: 456:     return I2C1STAT0bits.D;
  4975                           
  4976                           ; BSR set to: 2
  4977                           ;incstack = 0
  4978   002F92  A798               	btfss	152,3,b	;volatile
  4979   002F94  D002               	goto	i2u29_40
  4980   002F96  0E01               	movlw	1
  4981   002F98  0012               	return	
  4982   002F9A                     i2u29_40:
  4983   002F9A  0E00               	movlw	0
  4984                           
  4985                           ; BSR set to: 2
  4986   002F9C  0012               	return		;funcret
  4987   002F9E                     __end_of_I2C1_IsData:
  4988                           	callstack 0
  4989                           
  4990 ;; *************** function _I2C1_IsBusTimeOut *****************
  4991 ;; Defined at:
  4992 ;;		line 449 in file "mmc/i2c1.c"
  4993 ;; Parameters:    Size  Location     Type
  4994 ;;		None
  4995 ;; Auto vars:     Size  Location     Type
  4996 ;;		None
  4997 ;; Return value:  Size  Location     Type
  4998 ;;                  1    wreg      _Bool 
  4999 ;; Registers used:
  5000 ;;		wreg
  5001 ;; Tracked objects:
  5002 ;;		On entry : 3F/2
  5003 ;;		On exit  : 3F/2
  5004 ;;		Unchanged: 0/0
  5005 ;; Data sizes:     COMRAM   BANK5   BANK6   BANK7   BANK8   BANK9  BANK10  BANK11  BANK12  BANK13  BANK14  BANK15  BANK1
      +6  BANK17  BANK18  BANK19  BANK20  BANK21  BANK22  BANK23  BANK24  BANK25  BANK26  BANK27  BANK28  BANK29  BANK30  BANK3
      +1  BANK32  BANK33  BANK34  BANK35  BANK36
  5006 ;;      Params:         0       0       0       0       0       0       0       0       0       0       0       0       
      +0       0       0       0       0       0       0       0       0       0       0       0       0       0       0       
      +0       0       0       0       0       0
  5007 ;;      Locals:         0       0       0       0       0       0       0       0       0       0       0       0       
      +0       0       0       0       0       0       0       0       0       0       0       0       0       0       0       
      +0       0       0       0       0       0
  5008 ;;      Temps:          0       0       0       0       0       0       0       0       0       0       0       0       
      +0       0       0       0       0       0       0       0       0       0       0       0       0       0       0       
      +0       0       0       0       0       0
  5009 ;;      Totals:         0       0       0       0       0       0       0       0       0       0       0       0       
      +0       0       0       0       0       0       0       0       0       0       0       0       0       0       0       
      +0       0       0       0       0       0
  5010 ;;Total ram usage:        0 bytes
  5011 ;; Hardware stack levels used: 1
  5012 ;; This function calls:
  5013 ;;		Nothing
  5014 ;; This function is called by:
  5015 ;;		_I2C1_ERROR_ISR
  5016 ;; This function uses a non-reentrant model
  5017 ;;
  5018                           
  5019                           	psect	text52
  5020   002F9E                     __ptext52:
  5021                           	callstack 0
  5022   002F9E                     _I2C1_IsBusTimeOut:
  5023                           	callstack 119
  5024                           
  5025                           ; BSR set to: 2
  5026                           ;mmc/i2c1.c: 451:     return I2C1ERRbits.BTOIF;
  5027                           
  5028                           ; BSR set to: 2
  5029                           ;incstack = 0
  5030   002F9E  AD97               	btfss	151,6,b	;volatile
  5031   002FA0  D002               	goto	i2u30_40
  5032   002FA2  0E01               	movlw	1
  5033   002FA4  0012               	return	
  5034   002FA6                     i2u30_40:
  5035   002FA6  0E00               	movlw	0
  5036                           
  5037                           ; BSR set to: 2
  5038   002FA8  0012               	return		;funcret
  5039   002FAA                     __end_of_I2C1_IsBusTimeOut:
  5040                           	callstack 0
  5041                           
  5042 ;; *************** function _I2C1_IsBusCol *****************
  5043 ;; Defined at:
  5044 ;;		line 444 in file "mmc/i2c1.c"
  5045 ;; Parameters:    Size  Location     Type
  5046 ;;		None
  5047 ;; Auto vars:     Size  Location     Type
  5048 ;;		None
  5049 ;; Return value:  Size  Location     Type
  5050 ;;                  1    wreg      _Bool 
  5051 ;; Registers used:
  5052 ;;		wreg
  5053 ;; Tracked objects:
  5054 ;;		On entry : 0/0
  5055 ;;		On exit  : 3F/2
  5056 ;;		Unchanged: 0/0
  5057 ;; Data sizes:     COMRAM   BANK5   BANK6   BANK7   BANK8   BANK9  BANK10  BANK11  BANK12  BANK13  BANK14  BANK15  BANK1
      +6  BANK17  BANK18  BANK19  BANK20  BANK21  BANK22  BANK23  BANK24  BANK25  BANK26  BANK27  BANK28  BANK29  BANK30  BANK3
      +1  BANK32  BANK33  BANK34  BANK35  BANK36
  5058 ;;      Params:         0       0       0       0       0       0       0       0       0       0       0       0       
      +0       0       0       0       0       0       0       0       0       0       0       0       0       0       0       
      +0       0       0       0       0       0
  5059 ;;      Locals:         0       0       0       0       0       0       0       0       0       0       0       0       
      +0       0       0       0       0       0       0       0       0       0       0       0       0       0       0       
      +0       0       0       0       0       0
  5060 ;;      Temps:          0       0       0       0       0       0       0       0       0       0       0       0       
      +0       0       0       0       0       0       0       0       0       0       0       0       0       0       0       
      +0       0       0       0       0       0
  5061 ;;      Totals:         0       0       0       0       0       0       0       0       0       0       0       0       
      +0       0       0       0       0       0       0       0       0       0       0       0       0       0       0       
      +0       0       0       0       0       0
  5062 ;;Total ram usage:        0 bytes
  5063 ;; Hardware stack levels used: 1
  5064 ;; This function calls:
  5065 ;;		Nothing
  5066 ;; This function is called by:
  5067 ;;		_I2C1_ERROR_ISR
  5068 ;; This function uses a non-reentrant model
  5069 ;;
  5070                           
  5071                           	psect	text53
  5072   002F78                     __ptext53:
  5073                           	callstack 0
  5074   002F78                     _I2C1_IsBusCol:
  5075                           	callstack 119
  5076                           
  5077                           ;mmc/i2c1.c: 446:     return I2C1ERRbits.BCLIF;
  5078                           
  5079                           ; BSR set to: 2
  5080                           ;incstack = 0
  5081   002F78  0102               	movlb	2	; () banked
  5082   002F7A  AB97               	btfss	151,5,b	;volatile
  5083   002F7C  D002               	goto	i2u25_40
  5084   002F7E  0E01               	movlw	1
  5085   002F80  0012               	return	
  5086   002F82                     i2u25_40:
  5087   002F82  0E00               	movlw	0
  5088                           
  5089                           ; BSR set to: 2
  5090   002F84  0012               	return		;funcret
  5091   002F86                     __end_of_I2C1_IsBusCol:
  5092                           	callstack 0
  5093                           
  5094 ;; *************** function _I2C1_IsAddr *****************
  5095 ;; Defined at:
  5096 ;;		line 459 in file "mmc/i2c1.c"
  5097 ;; Parameters:    Size  Location     Type
  5098 ;;		None
  5099 ;; Auto vars:     Size  Location     Type
  5100 ;;		None
  5101 ;; Return value:  Size  Location     Type
  5102 ;;                  1    wreg      _Bool 
  5103 ;; Registers used:
  5104 ;;		wreg
  5105 ;; Tracked objects:
  5106 ;;		On entry : 3F/2
  5107 ;;		On exit  : 3F/2
  5108 ;;		Unchanged: 0/0
  5109 ;; Data sizes:     COMRAM   BANK5   BANK6   BANK7   BANK8   BANK9  BANK10  BANK11  BANK12  BANK13  BANK14  BANK15  BANK1
      +6  BANK17  BANK18  BANK19  BANK20  BANK21  BANK22  BANK23  BANK24  BANK25  BANK26  BANK27  BANK28  BANK29  BANK30  BANK3
      +1  BANK32  BANK33  BANK34  BANK35  BANK36
  5110 ;;      Params:         0       0       0       0       0       0       0       0       0       0       0       0       
      +0       0       0       0       0       0       0       0       0       0       0       0       0       0       0       
      +0       0       0       0       0       0
  5111 ;;      Locals:         0       0       0       0       0       0       0       0       0       0       0       0       
      +0       0       0       0       0       0       0       0       0       0       0       0       0       0       0       
      +0       0       0       0       0       0
  5112 ;;      Temps:          0       0       0       0       0       0       0       0       0       0       0       0       
      +0       0       0       0       0       0       0       0       0       0       0       0       0       0       0       
      +0       0       0       0       0       0
  5113 ;;      Totals:         0       0       0       0       0       0       0       0       0       0       0       0       
      +0       0       0       0       0       0       0       0       0       0       0       0       0       0       0       
      +0       0       0       0       0       0
  5114 ;;Total ram usage:        0 bytes
  5115 ;; Hardware stack levels used: 1
  5116 ;; This function calls:
  5117 ;;		Nothing
  5118 ;; This function is called by:
  5119 ;;		_I2C1_ERROR_ISR
  5120 ;; This function uses a non-reentrant model
  5121 ;;
  5122                           
  5123                           	psect	text54
  5124   002FAA                     __ptext54:
  5125                           	callstack 0
  5126   002FAA                     _I2C1_IsAddr:
  5127                           	callstack 119
  5128                           
  5129                           ; BSR set to: 2
  5130                           ;mmc/i2c1.c: 461:     return !I2C1STAT0bits.D;
  5131                           
  5132                           ; BSR set to: 2
  5133                           ;incstack = 0
  5134   002FAA  B798               	btfsc	152,3,b	;volatile
  5135   002FAC  D002               	goto	i2u26_40
  5136   002FAE  0E01               	movlw	1
  5137   002FB0  0012               	return	
  5138   002FB2                     i2u26_40:
  5139   002FB2  0E00               	movlw	0
  5140                           
  5141                           ; BSR set to: 2
  5142   002FB4  0012               	return		;funcret
  5143   002FB6                     __end_of_I2C1_IsAddr:
  5144                           	callstack 0
  5145                           
  5146 ;; *************** function _I2C1_DefaultCallback *****************
  5147 ;; Defined at:
  5148 ;;		line 355 in file "mmc/i2c1.c"
  5149 ;; Parameters:    Size  Location     Type
  5150 ;;		None
  5151 ;; Auto vars:     Size  Location     Type
  5152 ;;		None
  5153 ;; Return value:  Size  Location     Type
  5154 ;;                  1    wreg      void 
  5155 ;; Registers used:
  5156 ;;		None
  5157 ;; Tracked objects:
  5158 ;;		On entry : 0/2
  5159 ;;		On exit  : 0/0
  5160 ;;		Unchanged: 0/0
  5161 ;; Data sizes:     COMRAM   BANK5   BANK6   BANK7   BANK8   BANK9  BANK10  BANK11  BANK12  BANK13  BANK14  BANK15  BANK1
      +6  BANK17  BANK18  BANK19  BANK20  BANK21  BANK22  BANK23  BANK24  BANK25  BANK26  BANK27  BANK28  BANK29  BANK30  BANK3
      +1  BANK32  BANK33  BANK34  BANK35  BANK36
  5162 ;;      Params:         0       0       0       0       0       0       0       0       0       0       0       0       
      +0       0       0       0       0       0       0       0       0       0       0       0       0       0       0       
      +0       0       0       0       0       0
  5163 ;;      Locals:         0       0       0       0       0       0       0       0       0       0       0       0       
      +0       0       0       0       0       0       0       0       0       0       0       0       0       0       0       
      +0       0       0       0       0       0
  5164 ;;      Temps:          0       0       0       0       0       0       0       0       0       0       0       0       
      +0       0       0       0       0       0       0       0       0       0       0       0       0       0       0       
      +0       0       0       0       0       0
  5165 ;;      Totals:         0       0       0       0       0       0       0       0       0       0       0       0       
      +0       0       0       0       0       0       0       0       0       0       0       0       0       0       0       
      +0       0       0       0       0       0
  5166 ;;Total ram usage:        0 bytes
  5167 ;; Hardware stack levels used: 1
  5168 ;; This function calls:
  5169 ;;		Nothing
  5170 ;; This function is called by:
  5171 ;;		_I2C1_Initialize
  5172 ;;		_I2C1_Deinitialize
  5173 ;;		_I2C1_ERROR_ISR
  5174 ;; This function uses a non-reentrant model
  5175 ;;
  5176                           
  5177                           	psect	text55
  5178   003030                     __ptext55:
  5179                           	callstack 0
  5180   003030                     _I2C1_DefaultCallback:
  5181                           	callstack 119
  5182                           
  5183                           ; BSR set to: 2
  5184                           ;incstack = 0
  5185   003030  0012               	return		;funcret
  5186   003032                     __end_of_I2C1_DefaultCallback:
  5187                           	callstack 0
  5188                           
  5189 ;; *************** function _I2C1_BusReset *****************
  5190 ;; Defined at:
  5191 ;;		line 393 in file "mmc/i2c1.c"
  5192 ;; Parameters:    Size  Location     Type
  5193 ;;		None
  5194 ;; Auto vars:     Size  Location     Type
  5195 ;;		None
  5196 ;; Return value:  Size  Location     Type
  5197 ;;                  1    wreg      void 
  5198 ;; Registers used:
  5199 ;;		wreg, status,2, cstack
  5200 ;; Tracked objects:
  5201 ;;		On entry : 3F/2
  5202 ;;		On exit  : 3F/2
  5203 ;;		Unchanged: 0/0
  5204 ;; Data sizes:     COMRAM   BANK5   BANK6   BANK7   BANK8   BANK9  BANK10  BANK11  BANK12  BANK13  BANK14  BANK15  BANK1
      +6  BANK17  BANK18  BANK19  BANK20  BANK21  BANK22  BANK23  BANK24  BANK25  BANK26  BANK27  BANK28  BANK29  BANK30  BANK3
      +1  BANK32  BANK33  BANK34  BANK35  BANK36
  5205 ;;      Params:         0       0       0       0       0       0       0       0       0       0       0       0       
      +0       0       0       0       0       0       0       0       0       0       0       0       0       0       0       
      +0       0       0       0       0       0
  5206 ;;      Locals:         0       0       0       0       0       0       0       0       0       0       0       0       
      +0       0       0       0       0       0       0       0       0       0       0       0       0       0       0       
      +0       0       0       0       0       0
  5207 ;;      Temps:          0       0       0       0       0       0       0       0       0       0       0       0       
      +0       0       0       0       0       0       0       0       0       0       0       0       0       0       0       
      +0       0       0       0       0       0
  5208 ;;      Totals:         0       0       0       0       0       0       0       0       0       0       0       0       
      +0       0       0       0       0       0       0       0       0       0       0       0       0       0       0       
      +0       0       0       0       0       0
  5209 ;;Total ram usage:        0 bytes
  5210 ;; Hardware stack levels used: 1
  5211 ;; Hardware stack levels required when called: 1
  5212 ;; This function calls:
  5213 ;;		_I2C1_BufferClear
  5214 ;;		_I2C1_ErrorFlagsClear
  5215 ;;		_I2C1_InterruptsClear
  5216 ;;		_I2C1_InterruptsDisable
  5217 ;;		i2_I2C1_InterruptsEnable
  5218 ;; This function is called by:
  5219 ;;		_I2C1_ERROR_ISR
  5220 ;; This function uses a non-reentrant model
  5221 ;;
  5222                           
  5223                           	psect	text56
  5224   002BDE                     __ptext56:
  5225                           	callstack 0
  5226   002BDE                     _I2C1_BusReset:
  5227                           	callstack 118
  5228                           
  5229                           ; BSR set to: 2
  5230                           ;mmc/i2c1.c: 395:     I2C1_InterruptsClear();
  5231                           
  5232                           ;incstack = 0
  5233   002BDE  ECEF  F017         	call	_I2C1_InterruptsClear	;wreg free
  5234                           
  5235                           ; BSR set to: 2
  5236                           ;mmc/i2c1.c: 396:     I2C1_ErrorFlagsClear();
  5237   002BE2  ECF3  F017         	call	_I2C1_ErrorFlagsClear	;wreg free
  5238                           
  5239                           ; BSR set to: 2
  5240                           ;mmc/i2c1.c: 397:     I2C1_InterruptsDisable();
  5241   002BE6  ECAC  F017         	call	_I2C1_InterruptsDisable	;wreg free
  5242                           
  5243                           ; BSR set to: 2
  5244                           ;mmc/i2c1.c: 398:     I2C1_BufferClear();
  5245   002BEA  ECF7  F017         	call	_I2C1_BufferClear	;wreg free
  5246                           
  5247                           ; BSR set to: 2
  5248                           ;mmc/i2c1.c: 399:     I2C1CON0bits.EN = 0;
  5249   002BEE  9F94               	bcf	148,7,b	;volatile
  5250                           
  5251                           ; BSR set to: 2
  5252                           ;mmc/i2c1.c: 400:     I2C1_InterruptsEnable();
  5253   002BF0  ECA3  F017         	call	i2_I2C1_InterruptsEnable	;wreg free
  5254                           
  5255                           ; BSR set to: 2
  5256                           ;mmc/i2c1.c: 404:     I2C1PIEbits.SCIE = 0;
  5257   002BF4  919B               	bcf	155,0,b	;volatile
  5258                           
  5259                           ; BSR set to: 2
  5260                           ;mmc/i2c1.c: 405:     I2C1PIEbits.PCIE = 0;
  5261   002BF6  959B               	bcf	155,2,b	;volatile
  5262                           
  5263                           ; BSR set to: 2
  5264                           ;mmc/i2c1.c: 406:     I2C1CON0bits.EN = 1;
  5265   002BF8  8F94               	bsf	148,7,b	;volatile
  5266                           
  5267                           ; BSR set to: 2
  5268                           ;mmc/i2c1.c: 407:     _delay((unsigned long)((1)*((64000000)/4000000.0)));
  5269   002BFA  0E05               	movlw	5
  5270   002BFC                     i2u100_47:
  5271   002BFC  2EE8               	decfsz	wreg,f,c
  5272   002BFE  D7FE               	bra	i2u100_47
  5273   002C00  0000               	nop	
  5274                           
  5275                           ;mmc/i2c1.c: 408:     __nop();
  5276   002C02  0000               	nop	
  5277                           
  5278                           ;mmc/i2c1.c: 409:     __nop();
  5279   002C04  0000               	nop	
  5280                           
  5281                           ;mmc/i2c1.c: 410:     __nop();
  5282   002C06  0000               	nop	
  5283                           
  5284                           ;mmc/i2c1.c: 411:     __nop();
  5285   002C08  0000               	nop	
  5286                           
  5287                           ;mmc/i2c1.c: 412:     __nop();
  5288   002C0A  0000               	nop	
  5289                           
  5290                           ;mmc/i2c1.c: 413:     __nop();
  5291   002C0C  0000               	nop	
  5292                           
  5293                           ;mmc/i2c1.c: 414:     I2C1PIRbits.SCIF = 0;
  5294   002C0E  0102               	movlb	2	; () banked
  5295   002C10  919A               	bcf	154,0,b	;volatile
  5296                           
  5297                           ; BSR set to: 2
  5298                           ;mmc/i2c1.c: 415:     I2C1PIRbits.PCIF = 0;
  5299   002C12  959A               	bcf	154,2,b	;volatile
  5300                           
  5301                           ; BSR set to: 2
  5302                           ;mmc/i2c1.c: 416:     I2C1PIEbits.PCIE = 1;
  5303   002C14  859B               	bsf	155,2,b	;volatile
  5304                           
  5305                           ; BSR set to: 2
  5306   002C16  0012               	return		;funcret
  5307   002C18                     __end_of_I2C1_BusReset:
  5308                           	callstack 0
  5309                           
  5310 ;; *************** function i2_I2C1_InterruptsEnable *****************
  5311 ;; Defined at:
  5312 ;;		line 464 in file "mmc/i2c1.c"
  5313 ;; Parameters:    Size  Location     Type
  5314 ;;		None
  5315 ;; Auto vars:     Size  Location     Type
  5316 ;;		None
  5317 ;; Return value:  Size  Location     Type
  5318 ;;                  1    wreg      void 
  5319 ;; Registers used:
  5320 ;;		None
  5321 ;; Tracked objects:
  5322 ;;		On entry : 3F/2
  5323 ;;		On exit  : 3F/2
  5324 ;;		Unchanged: 0/0
  5325 ;; Data sizes:     COMRAM   BANK5   BANK6   BANK7   BANK8   BANK9  BANK10  BANK11  BANK12  BANK13  BANK14  BANK15  BANK1
      +6  BANK17  BANK18  BANK19  BANK20  BANK21  BANK22  BANK23  BANK24  BANK25  BANK26  BANK27  BANK28  BANK29  BANK30  BANK3
      +1  BANK32  BANK33  BANK34  BANK35  BANK36
  5326 ;;      Params:         0       0       0       0       0       0       0       0       0       0       0       0       
      +0       0       0       0       0       0       0       0       0       0       0       0       0       0       0       
      +0       0       0       0       0       0
  5327 ;;      Locals:         0       0       0       0       0       0       0       0       0       0       0       0       
      +0       0       0       0       0       0       0       0       0       0       0       0       0       0       0       
      +0       0       0       0       0       0
  5328 ;;      Temps:          0       0       0       0       0       0       0       0       0       0       0       0       
      +0       0       0       0       0       0       0       0       0       0       0       0       0       0       0       
      +0       0       0       0       0       0
  5329 ;;      Totals:         0       0       0       0       0       0       0       0       0       0       0       0       
      +0       0       0       0       0       0       0       0       0       0       0       0       0       0       0       
      +0       0       0       0       0       0
  5330 ;;Total ram usage:        0 bytes
  5331 ;; Hardware stack levels used: 1
  5332 ;; This function calls:
  5333 ;;		Nothing
  5334 ;; This function is called by:
  5335 ;;		_I2C1_BusReset
  5336 ;; This function uses a non-reentrant model
  5337 ;;
  5338                           
  5339                           	psect	text57
  5340   002F46                     __ptext57:
  5341                           	callstack 0
  5342   002F46                     i2_I2C1_InterruptsEnable:
  5343                           	callstack 118
  5344                           
  5345                           ; BSR set to: 2
  5346                           ;mmc/i2c1.c: 466:     PIE7bits.I2C1IE = 1;
  5347                           
  5348                           ; BSR set to: 2
  5349                           ;incstack = 0
  5350   002F46  84A5               	bsf	165,2,c	;volatile
  5351                           
  5352                           ;mmc/i2c1.c: 467:     PIE7bits.I2C1EIE = 1;
  5353   002F48  86A5               	bsf	165,3,c	;volatile
  5354                           
  5355                           ;mmc/i2c1.c: 468:     PIE7bits.I2C1RXIE = 1;
  5356   002F4A  80A5               	bsf	165,0,c	;volatile
  5357                           
  5358                           ;mmc/i2c1.c: 469:     PIE7bits.I2C1TXIE = 1;
  5359   002F4C  82A5               	bsf	165,1,c	;volatile
  5360                           
  5361                           ;mmc/i2c1.c: 471:     I2C1PIEbits.PCIE = 1;
  5362   002F4E  859B               	bsf	155,2,b	;volatile
  5363                           
  5364                           ;mmc/i2c1.c: 472:     I2C1PIEbits.RSCIE = 1;
  5365   002F50  839B               	bsf	155,1,b	;volatile
  5366                           
  5367                           ;mmc/i2c1.c: 473:     I2C1PIEbits.CNTIE = 1;
  5368   002F52  8F9B               	bsf	155,7,b	;volatile
  5369                           
  5370                           ;mmc/i2c1.c: 474:     I2C1ERRbits.NACKIE = 1;
  5371   002F54  8197               	bsf	151,0,b	;volatile
  5372                           
  5373                           ; BSR set to: 2
  5374   002F56  0012               	return		;funcret
  5375   002F58                     __end_ofi2_I2C1_InterruptsEnable:
  5376                           	callstack 0
  5377                           
  5378 ;; *************** function _I2C1_InterruptsDisable *****************
  5379 ;; Defined at:
  5380 ;;		line 477 in file "mmc/i2c1.c"
  5381 ;; Parameters:    Size  Location     Type
  5382 ;;		None
  5383 ;; Auto vars:     Size  Location     Type
  5384 ;;		None
  5385 ;; Return value:  Size  Location     Type
  5386 ;;                  1    wreg      void 
  5387 ;; Registers used:
  5388 ;;		wreg, status,2
  5389 ;; Tracked objects:
  5390 ;;		On entry : 3F/2
  5391 ;;		On exit  : 3F/2
  5392 ;;		Unchanged: 0/0
  5393 ;; Data sizes:     COMRAM   BANK5   BANK6   BANK7   BANK8   BANK9  BANK10  BANK11  BANK12  BANK13  BANK14  BANK15  BANK1
      +6  BANK17  BANK18  BANK19  BANK20  BANK21  BANK22  BANK23  BANK24  BANK25  BANK26  BANK27  BANK28  BANK29  BANK30  BANK3
      +1  BANK32  BANK33  BANK34  BANK35  BANK36
  5394 ;;      Params:         0       0       0       0       0       0       0       0       0       0       0       0       
      +0       0       0       0       0       0       0       0       0       0       0       0       0       0       0       
      +0       0       0       0       0       0
  5395 ;;      Locals:         0       0       0       0       0       0       0       0       0       0       0       0       
      +0       0       0       0       0       0       0       0       0       0       0       0       0       0       0       
      +0       0       0       0       0       0
  5396 ;;      Temps:          0       0       0       0       0       0       0       0       0       0       0       0       
      +0       0       0       0       0       0       0       0       0       0       0       0       0       0       0       
      +0       0       0       0       0       0
  5397 ;;      Totals:         0       0       0       0       0       0       0       0       0       0       0       0       
      +0       0       0       0       0       0       0       0       0       0       0       0       0       0       0       
      +0       0       0       0       0       0
  5398 ;;Total ram usage:        0 bytes
  5399 ;; Hardware stack levels used: 1
  5400 ;; This function calls:
  5401 ;;		Nothing
  5402 ;; This function is called by:
  5403 ;;		_I2C1_BusReset
  5404 ;;		_I2C1_Deinitialize
  5405 ;; This function uses a non-reentrant model
  5406 ;;
  5407                           
  5408                           	psect	text58
  5409   002F58                     __ptext58:
  5410                           	callstack 0
  5411   002F58                     _I2C1_InterruptsDisable:
  5412                           	callstack 118
  5413                           
  5414                           ; BSR set to: 2
  5415                           ;mmc/i2c1.c: 479:     PIE7bits.I2C1IE = 0;
  5416                           
  5417                           ; BSR set to: 2
  5418                           ;incstack = 0
  5419   002F58  94A5               	bcf	165,2,c	;volatile
  5420                           
  5421                           ;mmc/i2c1.c: 480:     PIE7bits.I2C1EIE = 0;
  5422   002F5A  96A5               	bcf	165,3,c	;volatile
  5423                           
  5424                           ;mmc/i2c1.c: 481:     PIE7bits.I2C1RXIE = 0;
  5425   002F5C  90A5               	bcf	165,0,c	;volatile
  5426                           
  5427                           ;mmc/i2c1.c: 482:     PIE7bits.I2C1TXIE = 0;
  5428   002F5E  92A5               	bcf	165,1,c	;volatile
  5429                           
  5430                           ; BSR set to: 2
  5431                           ;mmc/i2c1.c: 483:     I2C1PIE = 0x00;
  5432   002F60  0E00               	movlw	0
  5433   002F62  6F9B               	movwf	155,b	;volatile
  5434                           
  5435                           ;mmc/i2c1.c: 484:     I2C1ERR = 0x00;
  5436   002F64  0E00               	movlw	0
  5437   002F66  6F97               	movwf	151,b	;volatile
  5438                           
  5439                           ; BSR set to: 2
  5440   002F68  0012               	return		;funcret
  5441   002F6A                     __end_of_I2C1_InterruptsDisable:
  5442                           	callstack 0
  5443                           
  5444 ;; *************** function _I2C1_RX_ISR *****************
  5445 ;; Defined at:
  5446 ;;		line 305 in file "mmc/i2c1.c"
  5447 ;; Parameters:    Size  Location     Type
  5448 ;;		None
  5449 ;; Auto vars:     Size  Location     Type
  5450 ;;		None
  5451 ;; Return value:  Size  Location     Type
  5452 ;;                  1    wreg      void 
  5453 ;; Registers used:
  5454 ;;		wreg, fsr2l, fsr2h, status,2, status,0, cstack
  5455 ;; Tracked objects:
  5456 ;;		On entry : 0/0
  5457 ;;		On exit  : 3F/2
  5458 ;;		Unchanged: 0/0
  5459 ;; Data sizes:     COMRAM   BANK5   BANK6   BANK7   BANK8   BANK9  BANK10  BANK11  BANK12  BANK13  BANK14  BANK15  BANK1
      +6  BANK17  BANK18  BANK19  BANK20  BANK21  BANK22  BANK23  BANK24  BANK25  BANK26  BANK27  BANK28  BANK29  BANK30  BANK3
      +1  BANK32  BANK33  BANK34  BANK35  BANK36
  5460 ;;      Params:         0       0       0       0       0       0       0       0       0       0       0       0       
      +0       0       0       0       0       0       0       0       0       0       0       0       0       0       0       
      +0       0       0       0       0       0
  5461 ;;      Locals:         0       0       0       0       0       0       0       0       0       0       0       0       
      +0       0       0       0       0       0       0       0       0       0       0       0       0       0       0       
      +0       0       0       0       0       0
  5462 ;;      Temps:          0       0       0       0       0       0       0       0       0       0       0       0       
      +0       0       0       0       0       0       0       0       0       0       0       0       0       0       0       
      +0       0       0       0       0       0
  5463 ;;      Totals:         0       0       0       0       0       0       0       0       0       0       0       0       
      +0       0       0       0       0       0       0       0       0       0       0       0       0       0       0       
      +0       0       0       0       0       0
  5464 ;;Total ram usage:        0 bytes
  5465 ;; Hardware stack levels used: 1
  5466 ;; Hardware stack levels required when called: 1
  5467 ;; This function calls:
  5468 ;;		_I2C1_DataReceive
  5469 ;; This function is called by:
  5470 ;;		Interrupt level 2
  5471 ;; This function uses a non-reentrant model
  5472 ;;
  5473                           
  5474                           	psect	text59
  5475   002F0C                     __ptext59:
  5476                           	callstack 0
  5477   002F0C                     _I2C1_RX_ISR:
  5478                           	callstack 119
  5479                           
  5480                           ;mmc/i2c1.c: 307:     *i2c1Status.readPtr++ = I2C1_DataReceive();
  5481                           
  5482                           ; BSR set to: 2
  5483                           ;incstack = 0
  5484   002F0C  EC07  F018         	call	_I2C1_DataReceive	;wreg free
  5485   002F10  C518  F4D9         	movff	_i2c1Status+7,fsr2l	;volatile
  5486   002F14  C519  F4DA         	movff	_i2c1Status+8,fsr2h	;volatile
  5487   002F18  6EDF               	movwf	indf2,c
  5488                           
  5489                           ; BSR set to: 2
  5490   002F1A  4A18               	infsnz	(_i2c1Status+7)^(0+1280),f,c	;volatile
  5491   002F1C  2A19               	incf	(_i2c1Status+8)^(0+1280),f,c	;volatile
  5492                           
  5493                           ; BSR set to: 2
  5494   002F1E  0011               	retfie		f
  5495   002F20                     __end_of_I2C1_RX_ISR:
  5496                           	callstack 0
  5497                           
  5498 ;; *************** function _I2C1_DataReceive *****************
  5499 ;; Defined at:
  5500 ;;		line 378 in file "mmc/i2c1.c"
  5501 ;; Parameters:    Size  Location     Type
  5502 ;;		None
  5503 ;; Auto vars:     Size  Location     Type
  5504 ;;		None
  5505 ;; Return value:  Size  Location     Type
  5506 ;;                  1    wreg      unsigned char 
  5507 ;; Registers used:
  5508 ;;		wreg, status,2
  5509 ;; Tracked objects:
  5510 ;;		On entry : 0/0
  5511 ;;		On exit  : 3F/2
  5512 ;;		Unchanged: 0/0
  5513 ;; Data sizes:     COMRAM   BANK5   BANK6   BANK7   BANK8   BANK9  BANK10  BANK11  BANK12  BANK13  BANK14  BANK15  BANK1
      +6  BANK17  BANK18  BANK19  BANK20  BANK21  BANK22  BANK23  BANK24  BANK25  BANK26  BANK27  BANK28  BANK29  BANK30  BANK3
      +1  BANK32  BANK33  BANK34  BANK35  BANK36
  5514 ;;      Params:         0       0       0       0       0       0       0       0       0       0       0       0       
      +0       0       0       0       0       0       0       0       0       0       0       0       0       0       0       
      +0       0       0       0       0       0
  5515 ;;      Locals:         0       0       0       0       0       0       0       0       0       0       0       0       
      +0       0       0       0       0       0       0       0       0       0       0       0       0       0       0       
      +0       0       0       0       0       0
  5516 ;;      Temps:          0       0       0       0       0       0       0       0       0       0       0       0       
      +0       0       0       0       0       0       0       0       0       0       0       0       0       0       0       
      +0       0       0       0       0       0
  5517 ;;      Totals:         0       0       0       0       0       0       0       0       0       0       0       0       
      +0       0       0       0       0       0       0       0       0       0       0       0       0       0       0       
      +0       0       0       0       0       0
  5518 ;;Total ram usage:        0 bytes
  5519 ;; Hardware stack levels used: 1
  5520 ;; This function calls:
  5521 ;;		Nothing
  5522 ;; This function is called by:
  5523 ;;		_I2C1_RX_ISR
  5524 ;; This function uses a non-reentrant model
  5525 ;;
  5526                           
  5527                           	psect	text60
  5528   00300E                     __ptext60:
  5529                           	callstack 0
  5530   00300E                     _I2C1_DataReceive:
  5531                           	callstack 119
  5532                           
  5533                           ;mmc/i2c1.c: 380:     return I2C1RXB;
  5534                           
  5535                           ; BSR set to: 2
  5536                           ;incstack = 0
  5537   00300E  0102               	movlb	2	; () banked
  5538   003010  518B               	movf	139,w,b	;volatile
  5539                           
  5540                           ; BSR set to: 2
  5541   003012  0012               	return		;funcret
  5542   003014                     __end_of_I2C1_DataReceive:
  5543                           	callstack 0
  5544                           
  5545 ;; *************** function _I2C1_TX_ISR *****************
  5546 ;; Defined at:
  5547 ;;		line 310 in file "mmc/i2c1.c"
  5548 ;; Parameters:    Size  Location     Type
  5549 ;;		None
  5550 ;; Auto vars:     Size  Location     Type
  5551 ;;		None
  5552 ;; Return value:  Size  Location     Type
  5553 ;;                  1    wreg      void 
  5554 ;; Registers used:
  5555 ;;		wreg, fsr2l, fsr2h, status,2, status,0, cstack
  5556 ;; Tracked objects:
  5557 ;;		On entry : 0/0
  5558 ;;		On exit  : 0/0
  5559 ;;		Unchanged: 0/0
  5560 ;; Data sizes:     COMRAM   BANK5   BANK6   BANK7   BANK8   BANK9  BANK10  BANK11  BANK12  BANK13  BANK14  BANK15  BANK1
      +6  BANK17  BANK18  BANK19  BANK20  BANK21  BANK22  BANK23  BANK24  BANK25  BANK26  BANK27  BANK28  BANK29  BANK30  BANK3
      +1  BANK32  BANK33  BANK34  BANK35  BANK36
  5561 ;;      Params:         0       0       0       0       0       0       0       0       0       0       0       0       
      +0       0       0       0       0       0       0       0       0       0       0       0       0       0       0       
      +0       0       0       0       0       0
  5562 ;;      Locals:         0       0       0       0       0       0       0       0       0       0       0       0       
      +0       0       0       0       0       0       0       0       0       0       0       0       0       0       0       
      +0       0       0       0       0       0
  5563 ;;      Temps:          0       0       0       0       0       0       0       0       0       0       0       0       
      +0       0       0       0       0       0       0       0       0       0       0       0       0       0       0       
      +0       0       0       0       0       0
  5564 ;;      Totals:         0       0       0       0       0       0       0       0       0       0       0       0       
      +0       0       0       0       0       0       0       0       0       0       0       0       0       0       0       
      +0       0       0       0       0       0
  5565 ;;Total ram usage:        0 bytes
  5566 ;; Hardware stack levels used: 1
  5567 ;; Hardware stack levels required when called: 1
  5568 ;; This function calls:
  5569 ;;		_I2C1_DataTransmit
  5570 ;; This function is called by:
  5571 ;;		Interrupt level 2
  5572 ;; This function uses a non-reentrant model
  5573 ;;
  5574                           
  5575                           	psect	text61
  5576   002F20                     __ptext61:
  5577                           	callstack 0
  5578   002F20                     _I2C1_TX_ISR:
  5579                           	callstack 119
  5580                           
  5581                           ;mmc/i2c1.c: 312:     I2C1_DataTransmit(*i2c1Status.writePtr++);
  5582                           
  5583                           ; BSR set to: 2
  5584                           ;incstack = 0
  5585   002F20  C514  F4D9         	movff	_i2c1Status+3,fsr2l	;volatile
  5586   002F24  C515  F4DA         	movff	_i2c1Status+4,fsr2h	;volatile
  5587   002F28  4A14               	infsnz	(_i2c1Status+3)^(0+1280),f,c	;volatile
  5588   002F2A  2A15               	incf	(_i2c1Status+4)^(0+1280),f,c	;volatile
  5589   002F2C  50DF               	movf	indf2,w,c
  5590   002F2E  ECE3  F017         	call	_I2C1_DataTransmit
  5591   002F32  0011               	retfie		f
  5592   002F34                     __end_of_I2C1_TX_ISR:
  5593                           	callstack 0
  5594                           
  5595 ;; *************** function _DEFAULT_ISR *****************
  5596 ;; Defined at:
  5597 ;;		line 73 in file "mmc/system.c"
  5598 ;; Parameters:    Size  Location     Type
  5599 ;;		None
  5600 ;; Auto vars:     Size  Location     Type
  5601 ;;		None
  5602 ;; Return value:  Size  Location     Type
  5603 ;;                  1    wreg      void 
  5604 ;; Registers used:
  5605 ;;		None
  5606 ;; Tracked objects:
  5607 ;;		On entry : 0/0
  5608 ;;		On exit  : 0/0
  5609 ;;		Unchanged: 0/0
  5610 ;; Data sizes:     COMRAM   BANK5   BANK6   BANK7   BANK8   BANK9  BANK10  BANK11  BANK12  BANK13  BANK14  BANK15  BANK1
      +6  BANK17  BANK18  BANK19  BANK20  BANK21  BANK22  BANK23  BANK24  BANK25  BANK26  BANK27  BANK28  BANK29  BANK30  BANK3
      +1  BANK32  BANK33  BANK34  BANK35  BANK36
  5611 ;;      Params:         0       0       0       0       0       0       0       0       0       0       0       0       
      +0       0       0       0       0       0       0       0       0       0       0       0       0       0       0       
      +0       0       0       0       0       0
  5612 ;;      Locals:         0       0       0       0       0       0       0       0       0       0       0       0       
      +0       0       0       0       0       0       0       0       0       0       0       0       0       0       0       
      +0       0       0       0       0       0
  5613 ;;      Temps:          0       0       0       0       0       0       0       0       0       0       0       0       
      +0       0       0       0       0       0       0       0       0       0       0       0       0       0       0       
      +0       0       0       0       0       0
  5614 ;;      Totals:         0       0       0       0       0       0       0       0       0       0       0       0       
      +0       0       0       0       0       0       0       0       0       0       0       0       0       0       0       
      +0       0       0       0       0       0
  5615 ;;Total ram usage:        0 bytes
  5616 ;; Hardware stack levels used: 1
  5617 ;; This function calls:
  5618 ;;		Nothing
  5619 ;; This function is called by:
  5620 ;;		Interrupt level 2
  5621 ;; This function uses a non-reentrant model
  5622 ;;
  5623                           
  5624                           	psect	text62
  5625   003034                     __ptext62:
  5626                           	callstack 0
  5627   003034                     _DEFAULT_ISR:
  5628                           	callstack 120
  5629                           
  5630                           ;incstack = 0
  5631   003034  0011               	retfie		f
  5632   003036                     __end_of_DEFAULT_ISR:
  5633                           	callstack 0
  5634                           
  5635 ;; *************** function _TMR2_ISR *****************
  5636 ;; Defined at:
  5637 ;;		line 76 in file "mmc/system.c"
  5638 ;; Parameters:    Size  Location     Type
  5639 ;;		None
  5640 ;; Auto vars:     Size  Location     Type
  5641 ;;		None
  5642 ;; Return value:  Size  Location     Type
  5643 ;;                  1    wreg      void 
  5644 ;; Registers used:
  5645 ;;		status,2, status,0
  5646 ;; Tracked objects:
  5647 ;;		On entry : 0/0
  5648 ;;		On exit  : 0/0
  5649 ;;		Unchanged: 0/0
  5650 ;; Data sizes:     COMRAM   BANK5   BANK6   BANK7   BANK8   BANK9  BANK10  BANK11  BANK12  BANK13  BANK14  BANK15  BANK1
      +6  BANK17  BANK18  BANK19  BANK20  BANK21  BANK22  BANK23  BANK24  BANK25  BANK26  BANK27  BANK28  BANK29  BANK30  BANK3
      +1  BANK32  BANK33  BANK34  BANK35  BANK36
  5651 ;;      Params:         0       0       0       0       0       0       0       0       0       0       0       0       
      +0       0       0       0       0       0       0       0       0       0       0       0       0       0       0       
      +0       0       0       0       0       0
  5652 ;;      Locals:         0       0       0       0       0       0       0       0       0       0       0       0       
      +0       0       0       0       0       0       0       0       0       0       0       0       0       0       0       
      +0       0       0       0       0       0
  5653 ;;      Temps:          0       0       0       0       0       0       0       0       0       0       0       0       
      +0       0       0       0       0       0       0       0       0       0       0       0       0       0       0       
      +0       0       0       0       0       0
  5654 ;;      Totals:         0       0       0       0       0       0       0       0       0       0       0       0       
      +0       0       0       0       0       0       0       0       0       0       0       0       0       0       0       
      +0       0       0       0       0       0
  5655 ;;Total ram usage:        0 bytes
  5656 ;; Hardware stack levels used: 1
  5657 ;; This function calls:
  5658 ;;		Nothing
  5659 ;; This function is called by:
  5660 ;;		Interrupt level 2
  5661 ;; This function uses a non-reentrant model
  5662 ;;
  5663                           
  5664                           	psect	text63
  5665   003014                     __ptext63:
  5666                           	callstack 0
  5667   003014                     _TMR2_ISR:
  5668                           	callstack 120
  5669                           
  5670                           ;mmc/system.c: 78:  TMR2IF = 0;
  5671                           
  5672                           ;incstack = 0
  5673   003014  96B1               	bcf	1201,3,c	;volatile
  5674                           
  5675                           ;mmc/system.c: 80:  u8_sys_counter++;
  5676   003016  2A2B               	incf	_u8_sys_counter^(0+1280),f,c	;volatile
  5677   003018  0011               	retfie		f
  5678   00301A                     __end_of_TMR2_ISR:
  5679                           	callstack 0
  5680                           
  5681 ;; *************** function _U3RX_ISR *****************
  5682 ;; Defined at:
  5683 ;;		line 22 in file "mmc/uart3.c"
  5684 ;; Parameters:    Size  Location     Type
  5685 ;;		None
  5686 ;; Auto vars:     Size  Location     Type
  5687 ;;  data            1    5[COMRAM] unsigned char 
  5688 ;; Return value:  Size  Location     Type
  5689 ;;                  1    wreg      void 
  5690 ;; Registers used:
  5691 ;;		wreg, fsr2l, fsr2h, status,2, status,0
  5692 ;; Tracked objects:
  5693 ;;		On entry : 0/0
  5694 ;;		On exit  : 0/0
  5695 ;;		Unchanged: 0/0
  5696 ;; Data sizes:     COMRAM   BANK5   BANK6   BANK7   BANK8   BANK9  BANK10  BANK11  BANK12  BANK13  BANK14  BANK15  BANK1
      +6  BANK17  BANK18  BANK19  BANK20  BANK21  BANK22  BANK23  BANK24  BANK25  BANK26  BANK27  BANK28  BANK29  BANK30  BANK3
      +1  BANK32  BANK33  BANK34  BANK35  BANK36
  5697 ;;      Params:         0       0       0       0       0       0       0       0       0       0       0       0       
      +0       0       0       0       0       0       0       0       0       0       0       0       0       0       0       
      +0       0       0       0       0       0
  5698 ;;      Locals:         1       0       0       0       0       0       0       0       0       0       0       0       
      +0       0       0       0       0       0       0       0       0       0       0       0       0       0       0       
      +0       0       0       0       0       0
  5699 ;;      Temps:          0       0       0       0       0       0       0       0       0       0       0       0       
      +0       0       0       0       0       0       0       0       0       0       0       0       0       0       0       
      +0       0       0       0       0       0
  5700 ;;      Totals:         1       0       0       0       0       0       0       0       0       0       0       0       
      +0       0       0       0       0       0       0       0       0       0       0       0       0       0       0       
      +0       0       0       0       0       0
  5701 ;;Total ram usage:        1 bytes
  5702 ;; Hardware stack levels used: 1
  5703 ;; This function calls:
  5704 ;;		Nothing
  5705 ;; This function is called by:
  5706 ;;		Interrupt level 2
  5707 ;; This function uses a non-reentrant model
  5708 ;;
  5709                           
  5710                           	psect	text64
  5711   002E48                     __ptext64:
  5712                           	callstack 0
  5713   002E48                     _U3RX_ISR:
  5714                           	callstack 120
  5715                           
  5716                           ;mmc/uart3.c: 23:  uint8_t data;;mmc/uart3.c: 25:  data = U3RXB;
  5717                           
  5718                           ;incstack = 0
  5719   002E48  C2C7 F53B          	movff	711,U3RX_ISR@data	;volatile
  5720                           
  5721                           ;mmc/uart3.c: 26:  if (u8_rx_count < (16)) {
  5722   002E4C  0E10               	movlw	16
  5723   002E4E  6028               	cpfslt	_u8_rx_count^(0+1280),c	;volatile
  5724   002E50  0011               	retfie		f
  5725                           
  5726                           ;mmc/uart3.c: 27:   au8_rx_buffer[u8_rx_head] = data;
  5727   002E52  0E01               	movlw	low _au8_rx_buffer
  5728   002E54  242A               	addwf	_u8_rx_head^(0+1280),w,c	;volatile
  5729   002E56  6ED9               	movwf	fsr2l,c
  5730   002E58  6ADA               	clrf	fsr2h,c
  5731   002E5A  0E05               	movlw	high _au8_rx_buffer
  5732   002E5C  22DA               	addwfc	fsr2h,f,c
  5733   002E5E  C53B  F4DF         	movff	U3RX_ISR@data,indf2
  5734                           
  5735                           ;mmc/uart3.c: 28:   u8_rx_head = (u8_rx_head + 1) & ((16) - 1);
  5736   002E62  282A               	incf	_u8_rx_head^(0+1280),w,c	;volatile
  5737   002E64  0B0F               	andlw	15
  5738   002E66  6E2A               	movwf	_u8_rx_head^(0+1280),c	;volatile
  5739                           
  5740                           ;mmc/uart3.c: 29:   u8_rx_count++;
  5741   002E68  2A28               	incf	_u8_rx_count^(0+1280),f,c	;volatile
  5742   002E6A  0011               	retfie		f
  5743   002E6C                     __end_of_U3RX_ISR:
  5744                           	callstack 0
  5745                           
  5746 ;; *************** function _U3TX_ISR *****************
  5747 ;; Defined at:
  5748 ;;		line 33 in file "mmc/uart3.c"
  5749 ;; Parameters:    Size  Location     Type
  5750 ;;		None
  5751 ;; Auto vars:     Size  Location     Type
  5752 ;;		None
  5753 ;; Return value:  Size  Location     Type
  5754 ;;                  1    wreg      void 
  5755 ;; Registers used:
  5756 ;;		wreg, fsr2l, fsr2h, status,2, status,0
  5757 ;; Tracked objects:
  5758 ;;		On entry : 0/0
  5759 ;;		On exit  : 0/0
  5760 ;;		Unchanged: 0/0
  5761 ;; Data sizes:     COMRAM   BANK5   BANK6   BANK7   BANK8   BANK9  BANK10  BANK11  BANK12  BANK13  BANK14  BANK15  BANK1
      +6  BANK17  BANK18  BANK19  BANK20  BANK21  BANK22  BANK23  BANK24  BANK25  BANK26  BANK27  BANK28  BANK29  BANK30  BANK3
      +1  BANK32  BANK33  BANK34  BANK35  BANK36
  5762 ;;      Params:         0       0       0       0       0       0       0       0       0       0       0       0       
      +0       0       0       0       0       0       0       0       0       0       0       0       0       0       0       
      +0       0       0       0       0       0
  5763 ;;      Locals:         0       0       0       0       0       0       0       0       0       0       0       0       
      +0       0       0       0       0       0       0       0       0       0       0       0       0       0       0       
      +0       0       0       0       0       0
  5764 ;;      Temps:          0       0       0       0       0       0       0       0       0       0       0       0       
      +0       0       0       0       0       0       0       0       0       0       0       0       0       0       0       
      +0       0       0       0       0       0
  5765 ;;      Totals:         0       0       0       0       0       0       0       0       0       0       0       0       
      +0       0       0       0       0       0       0       0       0       0       0       0       0       0       0       
      +0       0       0       0       0       0
  5766 ;;Total ram usage:        0 bytes
  5767 ;; Hardware stack levels used: 1
  5768 ;; This function calls:
  5769 ;;		Nothing
  5770 ;; This function is called by:
  5771 ;;		Interrupt level 2
  5772 ;; This function uses a non-reentrant model
  5773 ;;
  5774                           
  5775                           	psect	text65
  5776   002DFC                     __ptext65:
  5777                           	callstack 0
  5778   002DFC                     _U3TX_ISR:
  5779                           	callstack 120
  5780                           
  5781                           ;mmc/uart3.c: 35:  if (u8_tx_count > 0) {
  5782                           
  5783                           ;incstack = 0
  5784   002DFC  5025               	movf	_u8_tx_count^(0+1280),w,c	;volatile
  5785   002DFE  B4D8               	btfsc	status,2,c
  5786   002E00  D00E               	goto	i2l420
  5787                           
  5788                           ;mmc/uart3.c: 36:   U3TXB = au8_tx_buffer[u8_tx_tail];
  5789   002E02  0E60               	movlw	low _au8_tx_buffer
  5790   002E04  2426               	addwf	_u8_tx_tail^(0+1280),w,c	;volatile
  5791   002E06  6ED9               	movwf	fsr2l,c
  5792   002E08  6ADA               	clrf	fsr2h,c
  5793   002E0A  0E05               	movlw	high _au8_tx_buffer
  5794   002E0C  22DA               	addwfc	fsr2h,f,c
  5795   002E0E  50DF               	movf	indf2,w,c
  5796   002E10  0102               	movlb	2	; () banked
  5797   002E12  6FC9               	movwf	201,b	;volatile
  5798                           
  5799                           ; BSR set to: 2
  5800                           ;mmc/uart3.c: 37:   u8_tx_tail = (u8_tx_tail + 1) & ((16) - 1);
  5801   002E14  2826               	incf	_u8_tx_tail^(0+1280),w,c	;volatile
  5802   002E16  0B0F               	andlw	15
  5803   002E18  6E26               	movwf	_u8_tx_tail^(0+1280),c	;volatile
  5804                           
  5805                           ; BSR set to: 2
  5806                           ;mmc/uart3.c: 38:   u8_tx_count--;
  5807   002E1A  0625               	decf	_u8_tx_count^(0+1280),f,c	;volatile
  5808                           
  5809                           ;mmc/uart3.c: 39:  }
  5810   002E1C  0011               	retfie		f
  5811   002E1E                     i2l420:
  5812                           
  5813                           ;mmc/uart3.c: 41:   U3TXIE = 0;
  5814   002E1E  92A7               	bcf	1191,1,c	;volatile
  5815   002E20  0011               	retfie		f
  5816   002E22                     __end_of_U3TX_ISR:
  5817                           	callstack 0
  5818                           
  5819 ;; *************** function _INT0_ISR *****************
  5820 ;; Defined at:
  5821 ;;		line 72 in file "mix_sam04.c"
  5822 ;; Parameters:    Size  Location     Type
  5823 ;;		None
  5824 ;; Auto vars:     Size  Location     Type
  5825 ;;		None
  5826 ;; Return value:  Size  Location     Type
  5827 ;;                  1    wreg      void 
  5828 ;; Registers used:
  5829 ;;		status,2, status,0
  5830 ;; Tracked objects:
  5831 ;;		On entry : 0/0
  5832 ;;		On exit  : 0/0
  5833 ;;		Unchanged: 0/0
  5834 ;; Data sizes:     COMRAM   BANK5   BANK6   BANK7   BANK8   BANK9  BANK10  BANK11  BANK12  BANK13  BANK14  BANK15  BANK1
      +6  BANK17  BANK18  BANK19  BANK20  BANK21  BANK22  BANK23  BANK24  BANK25  BANK26  BANK27  BANK28  BANK29  BANK30  BANK3
      +1  BANK32  BANK33  BANK34  BANK35  BANK36
  5835 ;;      Params:         0       0       0       0       0       0       0       0       0       0       0       0       
      +0       0       0       0       0       0       0       0       0       0       0       0       0       0       0       
      +0       0       0       0       0       0
  5836 ;;      Locals:         0       0       0       0       0       0       0       0       0       0       0       0       
      +0       0       0       0       0       0       0       0       0       0       0       0       0       0       0       
      +0       0       0       0       0       0
  5837 ;;      Temps:          0       0       0       0       0       0       0       0       0       0       0       0       
      +0       0       0       0       0       0       0       0       0       0       0       0       0       0       0       
      +0       0       0       0       0       0
  5838 ;;      Totals:         0       0       0       0       0       0       0       0       0       0       0       0       
      +0       0       0       0       0       0       0       0       0       0       0       0       0       0       0       
      +0       0       0       0       0       0
  5839 ;;Total ram usage:        0 bytes
  5840 ;; Hardware stack levels used: 1
  5841 ;; This function calls:
  5842 ;;		Nothing
  5843 ;; This function is called by:
  5844 ;;		Interrupt level 2
  5845 ;; This function uses a non-reentrant model
  5846 ;;
  5847                           
  5848                           	psect	text66
  5849   00301C                     __ptext66:
  5850                           	callstack 0
  5851   00301C                     _INT0_ISR:
  5852                           	callstack 120
  5853                           
  5854                           ;mix_sam04.c: 74:  INT0IF = 0;
  5855                           
  5856                           ;incstack = 0
  5857   00301C  90AF               	bcf	1199,0,c	;volatile
  5858                           
  5859                           ;mix_sam04.c: 76:  u8_count_out++;
  5860   00301E  2A24               	incf	_u8_count_out^(0+1280),f,c	;volatile
  5861   003020  0011               	retfie		f
  5862   003022                     __end_of_INT0_ISR:
  5863                           	callstack 0
  5864                           
  5865 ;; *************** function _NCO1_ISR *****************
  5866 ;; Defined at:
  5867 ;;		line 63 in file "mmc/nco1.c"
  5868 ;; Parameters:    Size  Location     Type
  5869 ;;		None
  5870 ;; Auto vars:     Size  Location     Type
  5871 ;;		None
  5872 ;; Return value:  Size  Location     Type
  5873 ;;                  1    wreg      void 
  5874 ;; Registers used:
  5875 ;;		None
  5876 ;; Tracked objects:
  5877 ;;		On entry : 0/0
  5878 ;;		On exit  : 0/0
  5879 ;;		Unchanged: 0/0
  5880 ;; Data sizes:     COMRAM   BANK5   BANK6   BANK7   BANK8   BANK9  BANK10  BANK11  BANK12  BANK13  BANK14  BANK15  BANK1
      +6  BANK17  BANK18  BANK19  BANK20  BANK21  BANK22  BANK23  BANK24  BANK25  BANK26  BANK27  BANK28  BANK29  BANK30  BANK3
      +1  BANK32  BANK33  BANK34  BANK35  BANK36
  5881 ;;      Params:         0       0       0       0       0       0       0       0       0       0       0       0       
      +0       0       0       0       0       0       0       0       0       0       0       0       0       0       0       
      +0       0       0       0       0       0
  5882 ;;      Locals:         0       0       0       0       0       0       0       0       0       0       0       0       
      +0       0       0       0       0       0       0       0       0       0       0       0       0       0       0       
      +0       0       0       0       0       0
  5883 ;;      Temps:          0       0       0       0       0       0       0       0       0       0       0       0       
      +0       0       0       0       0       0       0       0       0       0       0       0       0       0       0       
      +0       0       0       0       0       0
  5884 ;;      Totals:         0       0       0       0       0       0       0       0       0       0       0       0       
      +0       0       0       0       0       0       0       0       0       0       0       0       0       0       0       
      +0       0       0       0       0       0
  5885 ;;Total ram usage:        0 bytes
  5886 ;; Hardware stack levels used: 1
  5887 ;; This function calls:
  5888 ;;		Nothing
  5889 ;; This function is called by:
  5890 ;;		Interrupt level 2
  5891 ;; This function uses a non-reentrant model
  5892 ;;
  5893                           
  5894                           	psect	text67
  5895   00302C                     __ptext67:
  5896                           	callstack 0
  5897   00302C                     _NCO1_ISR:
  5898                           	callstack 120
  5899                           
  5900                           ;mmc/nco1.c: 66:     PIR6bits.NCO1IF = 0;
  5901                           
  5902                           ;incstack = 0
  5903   00302C  96B4               	bcf	180,3,c	;volatile
  5904   00302E  0011               	retfie		f
  5905   003030                     __end_of_NCO1_ISR:
  5906                           	callstack 0
  5907                           
  5908                           ;
  5909                           ; Interrupt Vector Table @ 0x8
  5910                           ;
  5911                           
  5912                           	psect	ivt0x8
  5913   000008                     __pivt0x8:
  5914                           	callstack 0
  5915   000008                     ivt0x8_base:
  5916                           	callstack 0
  5917                           
  5918                           ; Vector 0 : SWINT
  5919   000008  0C0D               	dw	_DEFAULT_ISR shr (0+2)
  5920                           
  5921                           ; Vector 1 : HLVD
  5922   00000A  0C0D               	dw	_DEFAULT_ISR shr (0+2)
  5923                           
  5924                           ; Vector 2 : OSF
  5925   00000C  0C0D               	dw	_DEFAULT_ISR shr (0+2)
  5926                           
  5927                           ; Vector 3 : CSW
  5928   00000E  0C0D               	dw	_DEFAULT_ISR shr (0+2)
  5929                           
  5930                           ; Vector 4 : Undefined
  5931   000010  0040               	dw	ivt0x8_undefint shr (0+2)
  5932                           
  5933                           ; Vector 5 : CLC1
  5934   000012  0C0D               	dw	_DEFAULT_ISR shr (0+2)
  5935                           
  5936                           ; Vector 6 : Undefined
  5937   000014  0040               	dw	ivt0x8_undefint shr (0+2)
  5938                           
  5939                           ; Vector 7 : IOC
  5940   000016  0C0D               	dw	_DEFAULT_ISR shr (0+2)
  5941                           
  5942                           ; Vector 8 : INT0
  5943   000018  0C07               	dw	_INT0_ISR shr (0+2)
  5944                           
  5945                           ; Vector 9 : ZCD
  5946   00001A  0C0D               	dw	_DEFAULT_ISR shr (0+2)
  5947                           
  5948                           ; Vector 10 : AD
  5949   00001C  0C0D               	dw	_DEFAULT_ISR shr (0+2)
  5950                           
  5951                           ; Vector 11 : ACT
  5952   00001E  0C0D               	dw	_DEFAULT_ISR shr (0+2)
  5953                           
  5954                           ; Vector 12 : CMP1
  5955   000020  0C0D               	dw	_DEFAULT_ISR shr (0+2)
  5956                           
  5957                           ; Vector 13 : SMT1
  5958   000022  0C0D               	dw	_DEFAULT_ISR shr (0+2)
  5959                           
  5960                           ; Vector 14 : SMT1PRA
  5961   000024  0C0D               	dw	_DEFAULT_ISR shr (0+2)
  5962                           
  5963                           ; Vector 15 : SMT1PRW
  5964   000026  0C0D               	dw	_DEFAULT_ISR shr (0+2)
  5965                           
  5966                           ; Vector 16 : ADT
  5967   000028  0C0D               	dw	_DEFAULT_ISR shr (0+2)
  5968                           
  5969                           ; Vector 17 : Undefined
  5970   00002A  0040               	dw	ivt0x8_undefint shr (0+2)
  5971                           
  5972                           ; Vector 18 : Undefined
  5973   00002C  0040               	dw	ivt0x8_undefint shr (0+2)
  5974                           
  5975                           ; Vector 19 : Undefined
  5976   00002E  0040               	dw	ivt0x8_undefint shr (0+2)
  5977                           
  5978                           ; Vector 20 : DMA1SCNT
  5979   000030  0C0D               	dw	_DEFAULT_ISR shr (0+2)
  5980                           
  5981                           ; Vector 21 : DMA1DCNT
  5982   000032  0C0D               	dw	_DEFAULT_ISR shr (0+2)
  5983                           
  5984                           ; Vector 22 : DMA1OR
  5985   000034  0C0D               	dw	_DEFAULT_ISR shr (0+2)
  5986                           
  5987                           ; Vector 23 : DMA1A
  5988   000036  0C0D               	dw	_DEFAULT_ISR shr (0+2)
  5989                           
  5990                           ; Vector 24 : SPI1RX
  5991   000038  0C0D               	dw	_DEFAULT_ISR shr (0+2)
  5992                           
  5993                           ; Vector 25 : SPI1TX
  5994   00003A  0C0D               	dw	_DEFAULT_ISR shr (0+2)
  5995                           
  5996                           ; Vector 26 : SPI1
  5997   00003C  0C0D               	dw	_DEFAULT_ISR shr (0+2)
  5998                           
  5999                           ; Vector 27 : TMR2
  6000   00003E  0C05               	dw	_TMR2_ISR shr (0+2)
  6001                           
  6002                           ; Vector 28 : TMR1
  6003   000040  0C0D               	dw	_DEFAULT_ISR shr (0+2)
  6004                           
  6005                           ; Vector 29 : TMR1G
  6006   000042  0C0D               	dw	_DEFAULT_ISR shr (0+2)
  6007                           
  6008                           ; Vector 30 : CCP1
  6009   000044  0C0D               	dw	_DEFAULT_ISR shr (0+2)
  6010                           
  6011                           ; Vector 31 : TMR0
  6012   000046  0C0D               	dw	_DEFAULT_ISR shr (0+2)
  6013                           
  6014                           ; Vector 32 : U1RX
  6015   000048  0C0D               	dw	_DEFAULT_ISR shr (0+2)
  6016                           
  6017                           ; Vector 33 : U1TX
  6018   00004A  0C0D               	dw	_DEFAULT_ISR shr (0+2)
  6019                           
  6020                           ; Vector 34 : U1E
  6021   00004C  0C0D               	dw	_DEFAULT_ISR shr (0+2)
  6022                           
  6023                           ; Vector 35 : U1
  6024   00004E  0C0D               	dw	_DEFAULT_ISR shr (0+2)
  6025                           
  6026                           ; Vector 36 : Undefined
  6027   000050  0040               	dw	ivt0x8_undefint shr (0+2)
  6028                           
  6029                           ; Vector 37 : Undefined
  6030   000052  0040               	dw	ivt0x8_undefint shr (0+2)
  6031                           
  6032                           ; Vector 38 : PWM1PR
  6033   000054  0C0D               	dw	_DEFAULT_ISR shr (0+2)
  6034                           
  6035                           ; Vector 39 : PWM1
  6036   000056  0C0D               	dw	_DEFAULT_ISR shr (0+2)
  6037                           
  6038                           ; Vector 40 : SPI2RX
  6039   000058  0C0D               	dw	_DEFAULT_ISR shr (0+2)
  6040                           
  6041                           ; Vector 41 : SPI2TX
  6042   00005A  0C0D               	dw	_DEFAULT_ISR shr (0+2)
  6043                           
  6044                           ; Vector 42 : SPI2
  6045   00005C  0C0D               	dw	_DEFAULT_ISR shr (0+2)
  6046                           
  6047                           ; Vector 43 : Undefined
  6048   00005E  0040               	dw	ivt0x8_undefint shr (0+2)
  6049                           
  6050                           ; Vector 44 : TMR3
  6051   000060  0C0D               	dw	_DEFAULT_ISR shr (0+2)
  6052                           
  6053                           ; Vector 45 : TMR3G
  6054   000062  0C0D               	dw	_DEFAULT_ISR shr (0+2)
  6055                           
  6056                           ; Vector 46 : PWM2PR
  6057   000064  0C0D               	dw	_DEFAULT_ISR shr (0+2)
  6058                           
  6059                           ; Vector 47 : PWM2
  6060   000066  0C0D               	dw	_DEFAULT_ISR shr (0+2)
  6061                           
  6062                           ; Vector 48 : INT1
  6063   000068  0C0D               	dw	_DEFAULT_ISR shr (0+2)
  6064                           
  6065                           ; Vector 49 : CLC2
  6066   00006A  0C0D               	dw	_DEFAULT_ISR shr (0+2)
  6067                           
  6068                           ; Vector 50 : CWG1
  6069   00006C  0C0D               	dw	_DEFAULT_ISR shr (0+2)
  6070                           
  6071                           ; Vector 51 : NCO1
  6072   00006E  0C0B               	dw	_NCO1_ISR shr (0+2)
  6073                           
  6074                           ; Vector 52 : DMA2SCNT
  6075   000070  0C0D               	dw	_DEFAULT_ISR shr (0+2)
  6076                           
  6077                           ; Vector 53 : DMA2DCNT
  6078   000072  0C0D               	dw	_DEFAULT_ISR shr (0+2)
  6079                           
  6080                           ; Vector 54 : DMA2OR
  6081   000074  0C0D               	dw	_DEFAULT_ISR shr (0+2)
  6082                           
  6083                           ; Vector 55 : DMA2A
  6084   000076  0C0D               	dw	_DEFAULT_ISR shr (0+2)
  6085                           
  6086                           ; Vector 56 : I2C1RX
  6087   000078  0BC3               	dw	_I2C1_RX_ISR shr (0+2)
  6088                           
  6089                           ; Vector 57 : I2C1TX
  6090   00007A  0BC8               	dw	_I2C1_TX_ISR shr (0+2)
  6091                           
  6092                           ; Vector 58 : I2C1
  6093   00007C  0AD9               	dw	_I2C1_ISR shr (0+2)
  6094                           
  6095                           ; Vector 59 : I2C1E
  6096   00007E  09B7               	dw	_I2C1_ERROR_ISR shr (0+2)
  6097                           
  6098                           ; Vector 60 : Undefined
  6099   000080  0040               	dw	ivt0x8_undefint shr (0+2)
  6100                           
  6101                           ; Vector 61 : CLC3
  6102   000082  0C0D               	dw	_DEFAULT_ISR shr (0+2)
  6103                           
  6104                           ; Vector 62 : PWM3PR
  6105   000084  0C0D               	dw	_DEFAULT_ISR shr (0+2)
  6106                           
  6107                           ; Vector 63 : PWM3
  6108   000086  0C0D               	dw	_DEFAULT_ISR shr (0+2)
  6109                           
  6110                           ; Vector 64 : U2RX
  6111   000088  0C0D               	dw	_DEFAULT_ISR shr (0+2)
  6112                           
  6113                           ; Vector 65 : U2TX
  6114   00008A  0C0D               	dw	_DEFAULT_ISR shr (0+2)
  6115                           
  6116                           ; Vector 66 : U2E
  6117   00008C  0C0D               	dw	_DEFAULT_ISR shr (0+2)
  6118                           
  6119                           ; Vector 67 : U2
  6120   00008E  0C0D               	dw	_DEFAULT_ISR shr (0+2)
  6121                           
  6122                           ; Vector 68 : TMR5
  6123   000090  0C0D               	dw	_DEFAULT_ISR shr (0+2)
  6124                           
  6125                           ; Vector 69 : TMR5G
  6126   000092  0C0D               	dw	_DEFAULT_ISR shr (0+2)
  6127                           
  6128                           ; Vector 70 : CCP2
  6129   000094  0C0D               	dw	_DEFAULT_ISR shr (0+2)
  6130                           
  6131                           ; Vector 71 : SCAN
  6132   000096  0C0D               	dw	_DEFAULT_ISR shr (0+2)
  6133                           
  6134                           ; Vector 72 : U3RX
  6135   000098  0B92               	dw	_U3RX_ISR shr (0+2)
  6136                           
  6137                           ; Vector 73 : U3TX
  6138   00009A  0B7F               	dw	_U3TX_ISR shr (0+2)
  6139                           
  6140                           ; Vector 74 : U3E
  6141   00009C  0C0D               	dw	_DEFAULT_ISR shr (0+2)
  6142                           
  6143                           ; Vector 75 : U3
  6144   00009E  0C0D               	dw	_DEFAULT_ISR shr (0+2)
  6145                           
  6146                           ; Vector 76 : Undefined
  6147   0000A0  0040               	dw	ivt0x8_undefint shr (0+2)
  6148                           
  6149                           ; Vector 77 : CLC4
  6150   0000A2  0C0D               	dw	_DEFAULT_ISR shr (0+2)
  6151                           
  6152                           ; Vector 78 : Undefined
  6153   0000A4  0040               	dw	ivt0x8_undefint shr (0+2)
  6154                           
  6155                           ; Vector 79 : Undefined
  6156   0000A6  0040               	dw	ivt0x8_undefint shr (0+2)
  6157                           
  6158                           ; Vector 80 : INT2
  6159   0000A8  0C0D               	dw	_DEFAULT_ISR shr (0+2)
  6160                           
  6161                           ; Vector 81 : CLC5
  6162   0000AA  0C0D               	dw	_DEFAULT_ISR shr (0+2)
  6163                           
  6164                           ; Vector 82 : CWG2
  6165   0000AC  0C0D               	dw	_DEFAULT_ISR shr (0+2)
  6166                           
  6167                           ; Vector 83 : NCO2
  6168   0000AE  0C0D               	dw	_DEFAULT_ISR shr (0+2)
  6169                           
  6170                           ; Vector 84 : DMA3SCNT
  6171   0000B0  0C0D               	dw	_DEFAULT_ISR shr (0+2)
  6172                           
  6173                           ; Vector 85 : DMA3DCNT
  6174   0000B2  0C0D               	dw	_DEFAULT_ISR shr (0+2)
  6175                           
  6176                           ; Vector 86 : DMA3OR
  6177   0000B4  0C0D               	dw	_DEFAULT_ISR shr (0+2)
  6178                           
  6179                           ; Vector 87 : DMA3A
  6180   0000B6  0C0D               	dw	_DEFAULT_ISR shr (0+2)
  6181                           
  6182                           ; Vector 88 : CCP3
  6183   0000B8  0C0D               	dw	_DEFAULT_ISR shr (0+2)
  6184                           
  6185                           ; Vector 89 : CLC6
  6186   0000BA  0C0D               	dw	_DEFAULT_ISR shr (0+2)
  6187                           
  6188                           ; Vector 90 : CWG3
  6189   0000BC  0C0D               	dw	_DEFAULT_ISR shr (0+2)
  6190                           
  6191                           ; Vector 91 : TMR4
  6192   0000BE  0C0D               	dw	_DEFAULT_ISR shr (0+2)
  6193                           
  6194                           ; Vector 92 : DMA4SCNT
  6195   0000C0  0C0D               	dw	_DEFAULT_ISR shr (0+2)
  6196                           
  6197                           ; Vector 93 : DMA4DCNT
  6198   0000C2  0C0D               	dw	_DEFAULT_ISR shr (0+2)
  6199                           
  6200                           ; Vector 94 : DMA4OR
  6201   0000C4  0C0D               	dw	_DEFAULT_ISR shr (0+2)
  6202                           
  6203                           ; Vector 95 : DMA4A
  6204   0000C6  0C0D               	dw	_DEFAULT_ISR shr (0+2)
  6205                           
  6206                           ; Vector 96 : U4RX
  6207   0000C8  0C0D               	dw	_DEFAULT_ISR shr (0+2)
  6208                           
  6209                           ; Vector 97 : U4TX
  6210   0000CA  0C0D               	dw	_DEFAULT_ISR shr (0+2)
  6211                           
  6212                           ; Vector 98 : U4E
  6213   0000CC  0C0D               	dw	_DEFAULT_ISR shr (0+2)
  6214                           
  6215                           ; Vector 99 : U4
  6216   0000CE  0C0D               	dw	_DEFAULT_ISR shr (0+2)
  6217                           
  6218                           ; Vector 100 : DMA5SCNT
  6219   0000D0  0C0D               	dw	_DEFAULT_ISR shr (0+2)
  6220                           
  6221                           ; Vector 101 : DMA5DCNT
  6222   0000D2  0C0D               	dw	_DEFAULT_ISR shr (0+2)
  6223                           
  6224                           ; Vector 102 : DMA5OR
  6225   0000D4  0C0D               	dw	_DEFAULT_ISR shr (0+2)
  6226                           
  6227                           ; Vector 103 : DMA5A
  6228   0000D6  0C0D               	dw	_DEFAULT_ISR shr (0+2)
  6229                           
  6230                           ; Vector 104 : U5RX
  6231   0000D8  0C0D               	dw	_DEFAULT_ISR shr (0+2)
  6232                           
  6233                           ; Vector 105 : U5TX
  6234   0000DA  0C0D               	dw	_DEFAULT_ISR shr (0+2)
  6235                           
  6236                           ; Vector 106 : U5E
  6237   0000DC  0C0D               	dw	_DEFAULT_ISR shr (0+2)
  6238                           
  6239                           ; Vector 107 : U5
  6240   0000DE  0C0D               	dw	_DEFAULT_ISR shr (0+2)
  6241                           
  6242                           ; Vector 108 : DMA6SCNT
  6243   0000E0  0C0D               	dw	_DEFAULT_ISR shr (0+2)
  6244                           
  6245                           ; Vector 109 : DMA6DCNT
  6246   0000E2  0C0D               	dw	_DEFAULT_ISR shr (0+2)
  6247                           
  6248                           ; Vector 110 : DMA6OR
  6249   0000E4  0C0D               	dw	_DEFAULT_ISR shr (0+2)
  6250                           
  6251                           ; Vector 111 : DMA6A
  6252   0000E6  0C0D               	dw	_DEFAULT_ISR shr (0+2)
  6253                           
  6254                           ; Vector 112 : Undefined
  6255   0000E8  0040               	dw	ivt0x8_undefint shr (0+2)
  6256                           
  6257                           ; Vector 113 : CLC7
  6258   0000EA  0C0D               	dw	_DEFAULT_ISR shr (0+2)
  6259                           
  6260                           ; Vector 114 : CMP2
  6261   0000EC  0C0D               	dw	_DEFAULT_ISR shr (0+2)
  6262                           
  6263                           ; Vector 115 : NCO3
  6264   0000EE  0C0D               	dw	_DEFAULT_ISR shr (0+2)
  6265                           
  6266                           ; Vector 116 : Undefined
  6267   0000F0  0040               	dw	ivt0x8_undefint shr (0+2)
  6268                           
  6269                           ; Vector 117 : Undefined
  6270   0000F2  0040               	dw	ivt0x8_undefint shr (0+2)
  6271                           
  6272                           ; Vector 118 : Undefined
  6273   0000F4  0040               	dw	ivt0x8_undefint shr (0+2)
  6274                           
  6275                           ; Vector 119 : Undefined
  6276   0000F6  0040               	dw	ivt0x8_undefint shr (0+2)
  6277                           
  6278                           ; Vector 120 : NVM
  6279   0000F8  0C0D               	dw	_DEFAULT_ISR shr (0+2)
  6280                           
  6281                           ; Vector 121 : CLC8
  6282   0000FA  0C0D               	dw	_DEFAULT_ISR shr (0+2)
  6283                           
  6284                           ; Vector 122 : CRC
  6285   0000FC  0C0D               	dw	_DEFAULT_ISR shr (0+2)
  6286                           
  6287                           ; Vector 123 : TMR6
  6288   0000FE  0C0D               	dw	_DEFAULT_ISR shr (0+2)
  6289   000100                     ivt0x8_undefint:
  6290                           	callstack 0
  6291   000100  00FF               	reset	
  6292                           
  6293                           	psect	text68
  6294   000000                     __ptext68:
  6295                           	callstack 0
  6296                           
  6297                           	psect	rparam
  6298   000000                     
  6299                           	psect	config
  6300                           
  6301                           ;Config register CONFIG1 @ 0x300000
  6302                           ;	External Oscillator Selection
  6303                           ;	FEXTOSC = OFF, Oscillator not enabled
  6304                           ;	Reset Oscillator Selection
  6305                           ;	RSTOSC = HFINTOSC_64MHZ, HFINTOSC with HFFRQ = 64 MHz and CDIV = 1:1
  6306   300000                     	org	3145728
  6307   300000  8C                 	db	140
  6308                           
  6309                           ;Config register CONFIG2 @ 0x300001
  6310                           ;	Clock out Enable bit
  6311                           ;	CLKOUTEN = OFF, CLKOUT function is disabled
  6312                           ;	PRLOCKED One-Way Set Enable bit
  6313                           ;	PR1WAY = ON, PRLOCKED bit can be cleared and set only once
  6314                           ;	Clock Switch Enable bit
  6315                           ;	CSWEN = ON, Writing to NOSC and NDIV is allowed
  6316                           ;	Fail-Safe Clock Monitor Enable bit
  6317                           ;	FCMEN = ON, Fail-Safe Clock Monitor enabled
  6318   300001                     	org	3145729
  6319   300001  FF                 	db	255
  6320                           
  6321                           ;Config register CONFIG3 @ 0x300002
  6322                           ;	MCLR Enable bit
  6323                           ;	MCLRE = EXTMCLR, If LVP = 0, MCLR pin is MCLR; If LVP = 1, RE3 pin function is MCLR
  6324                           ;	Power-up timer selection bits
  6325                           ;	PWRTS = PWRT_OFF, PWRT is disabled
  6326                           ;	Multi-vector enable bit
  6327                           ;	MVECEN = ON, Multi-vector enabled, Vector table used for interrupts
  6328                           ;	IVTLOCK bit One-way set enable bit
  6329                           ;	IVT1WAY = ON, IVTLOCKED bit can be cleared and set only once
  6330                           ;	Low Power BOR Enable bit
  6331                           ;	LPBOREN = OFF, Low-Power BOR disabled
  6332                           ;	Brown-out Reset Enable bits
  6333                           ;	BOREN = SBORDIS, Brown-out Reset enabled , SBOREN bit is ignored
  6334   300002                     	org	3145730
  6335   300002  FF                 	db	255
  6336                           
  6337                           ;Config register CONFIG4 @ 0x300003
  6338                           ;	Brown-out Reset Voltage Selection bits
  6339                           ;	BORV = VBOR_1P9, Brown-out Reset Voltage (VBOR) set to 1.9V
  6340                           ;	ZCD Disable bit
  6341                           ;	ZCD = OFF, ZCD module is disabled. ZCD can be enabled by setting the ZCDSEN bit of ZCD
      +                          CON
  6342                           ;	PPSLOCK bit One-Way Set Enable bit
  6343                           ;	PPS1WAY = OFF, PPSLOCKED bit can be set and cleared repeatedly (subject to the unlock 
      +                          sequence)
  6344                           ;	Stack Full/Underflow Reset Enable bit
  6345                           ;	STVREN = ON, Stack full/underflow will cause Reset
  6346                           ;	Low Voltage Programming Enable bit
  6347                           ;	LVP = ON, Low voltage programming enabled. MCLR/VPP pin function is MCLR. MCLRE config
      +                          uration bit is ignored
  6348                           ;	Extended Instruction Set Enable bit
  6349                           ;	XINST = OFF, Extended Instruction Set and Indexed Addressing Mode disabled
  6350   300003                     	org	3145731
  6351   300003  F7                 	db	247
  6352                           
  6353                           ;Config register CONFIG5 @ 0x300004
  6354                           ;	WDT Period selection bits
  6355                           ;	WDTCPS = WDTCPS_31, Divider ratio 1:65536; software control of WDTPS
  6356                           ;	WDT operating mode
  6357                           ;	WDTE = OFF, WDT Disabled; SWDTEN is ignored
  6358   300004                     	org	3145732
  6359   300004  9F                 	db	159
  6360                           
  6361                           ;Config register CONFIG6 @ 0x300005
  6362                           ;	WDT Window Select bits
  6363                           ;	WDTCWS = WDTCWS_7, window always open (100%); software control; keyed access not requi
      +                          red
  6364                           ;	WDT input clock selector
  6365                           ;	WDTCCS = SC, Software Control
  6366   300005                     	org	3145733
  6367   300005  FF                 	db	255
  6368                           
  6369                           ;Config register CONFIG7 @ 0x300006
  6370                           ;	Boot Block Size selection bits
  6371                           ;	BBSIZE = BBSIZE_512, Boot Block size is 512 words
  6372                           ;	Boot Block enable bit
  6373                           ;	BBEN = OFF, Boot block disabled
  6374                           ;	Storage Area Flash enable bit
  6375                           ;	SAFEN = OFF, SAF disabled
  6376                           ;	Background Debugger
  6377                           ;	DEBUG = OFF, Background Debugger disabled
  6378   300006                     	org	3145734
  6379   300006  FF                 	db	255
  6380                           
  6381                           ;Config register CONFIG8 @ 0x300007
  6382                           ;	Boot Block Write Protection bit
  6383                           ;	WRTB = OFF, Boot Block not Write protected
  6384                           ;	Configuration Register Write Protection bit
  6385                           ;	WRTC = OFF, Configuration registers not Write protected
  6386                           ;	Data EEPROM Write Protection bit
  6387                           ;	WRTD = OFF, Data EEPROM not Write protected
  6388                           ;	SAF Write protection bit
  6389                           ;	WRTSAF = OFF, SAF not Write Protected
  6390                           ;	Application Block write protection bit
  6391                           ;	WRTAPP = OFF, Application Block not write protected
  6392   300007                     	org	3145735
  6393   300007  FF                 	db	255
  6394                           
  6395                           ;Config register CONFIG10 @ 0x300009
  6396                           ;	PFM and Data EEPROM Code Protection bit
  6397                           ;	CP = OFF, PFM and Data EEPROM code protection disabled
  6398   300009                     	org	3145737
  6399   300009  FF                 	db	255
  6400                           tosu	equ	0x4FF
  6401                           tosh	equ	0x4FE
  6402                           tosl	equ	0x4FD
  6403                           stkptr	equ	0x4FC
  6404                           pclatu	equ	0x4FB
  6405                           pclath	equ	0x4FA
  6406                           pcl	equ	0x4F9
  6407                           tblptru	equ	0x4F8
  6408                           tblptrh	equ	0x4F7
  6409                           tblptrl	equ	0x4F6
  6410                           tablat	equ	0x4F5
  6411                           prodh	equ	0x4F4
  6412                           prodl	equ	0x4F3
  6413                           indf0	equ	0x4EF
  6414                           postinc0	equ	0x4EE
  6415                           postdec0	equ	0x4ED
  6416                           preinc0	equ	0x4EC
  6417                           plusw0	equ	0x4EB
  6418                           fsr0h	equ	0x4EA
  6419                           fsr0l	equ	0x4E9
  6420                           wreg	equ	0x4E8
  6421                           indf1	equ	0x4E7
  6422                           postinc1	equ	0x4E6
  6423                           postdec1	equ	0x4E5
  6424                           preinc1	equ	0x4E4
  6425                           plusw1	equ	0x4E3
  6426                           fsr1h	equ	0x4E2
  6427                           fsr1l	equ	0x4E1
  6428                           bsr	equ	0x4E0
  6429                           indf2	equ	0x4DF
  6430                           postinc2	equ	0x4DE
  6431                           postdec2	equ	0x4DD
  6432                           preinc2	equ	0x4DC
  6433                           plusw2	equ	0x4DB
  6434                           fsr2h	equ	0x4DA
  6435                           fsr2l	equ	0x4D9
  6436                           status	equ	0x4D8

Data Sizes:
    Strings     0
    Constant    136
    Data        0
    BSS         69
    Persistent  0
    Stack       0

Auto Spaces:
    Space          Size  Autos    Used
    COMRAM           95     20      74
    BANK5           160      0      16
    BANK6           256      0       0
    BANK7           256      0       0
    BANK8           256      0       0
    BANK9           256      0       0
    BANK10          256      0       0
    BANK11          256      0       0
    BANK12          256      0       0
    BANK13          256      0       0
    BANK14          256      0       0
    BANK15          256      0       0
    BANK16          256      0       0
    BANK17          256      0       0
    BANK18          256      0       0
    BANK19          256      0       0
    BANK20          256      0       0
    BANK21          256      0       0
    BANK22          256      0       0
    BANK23          256      0       0
    BANK24          256      0       0
    BANK25          256      0       0
    BANK26          256      0       0
    BANK27          256      0       0
    BANK28          256      0       0
    BANK29          256      0       0
    BANK30          256      0       0
    BANK31          256      0       0
    BANK32          256      0       0
    BANK33          256      0       0
    BANK34          256      0       0
    BANK35          256      0       0
    BANK36          256      0       0

Pointer List with Targets:

    EchoStr@p_data	PTR unsigned char  size(1) Largest target is 19
		 -> acu8_msg_awake(CODE[19]), acu8_msg_reset(CODE[19]), 

    I2C1_Callback	PTR FTN()void  size(3) Largest target is 1
		 -> I2C1_DefaultCallback(), NULL(), 

    I2C1_CallbackRegister@callbackHandler	PTR FTN()void  size(3) Largest target is 1
		 -> I2C1_DefaultCallback(), 

    I2C1_Host$CallbackRegister	PTR FTN(PTR FTN()void ,)void  size(3) Largest target is 1
		 -> I2C1_CallbackRegister(), 

    I2C1_Host$Deinitialize	PTR FTN()void  size(3) Largest target is 1
		 -> I2C1_Deinitialize(), 

    I2C1_Host$ErrorGet	PTR FTN()enum E17100 size(3) Largest target is 1
		 -> I2C1_ErrorGet(), 

    I2C1_Host$Initialize	PTR FTN()void  size(3) Largest target is 1
		 -> I2C1_Initialize(), 

    I2C1_Host$IsBusy	PTR FTN()_Bool  size(3) Largest target is 1
		 -> I2C1_IsBusy(), 

    I2C1_Host$Read	PTR FTN(unsigned short ,PTR unsigned char ,unsigned int ,)_Bool  size(3) Largest target is 1
		 -> I2C1_Read(), 

    I2C1_Host$Tasks	PTR FTN()void  size(3) Largest target is 1
		 -> NULL(), 

    I2C1_Host$TransferSetup	PTR FTN(PTR struct .,unsigned long ,)_Bool  size(3) Largest target is 1
		 -> NULL(), 

    I2C1_Host$Write	PTR FTN(unsigned short ,PTR unsigned char ,unsigned int ,)_Bool  size(3) Largest target is 1
		 -> I2C1_Write(), 

    I2C1_Host$WriteRead	PTR FTN(unsigned short ,PTR unsigned char ,unsigned int ,PTR unsigned char ,unsigned int ,)_Bool  size(3) Largest target is 1
		 -> I2C1_WriteRead(), 

    I2C1_Write@data	PTR unsigned char  size(2) Largest target is 2
		 -> au8_data_i2c_write(COMRAM[2]), 

    I2C1_WriteRead@readData	PTR unsigned char  size(2) Largest target is 1
		 -> u8_data_i2c_read(COMRAM[1]), 

    I2C1_WriteRead@writeData	PTR unsigned char  size(2) Largest target is 2
		 -> au8_data_i2c_write(COMRAM[2]), 

    i2c1Status$readPtr	PTR unsigned char  size(2) Largest target is 1
		 -> u8_data_i2c_read(COMRAM[1]), NULL(NULL[0]), 

    i2c1Status$writePtr	PTR unsigned char  size(2) Largest target is 2
		 -> au8_data_i2c_write(COMRAM[2]), NULL(NULL[0]), 

    NULL$0	PTR struct . size(2) Largest target is 0

    S131$readPtr	PTR unsigned char  size(2) Largest target is 1
		 -> u8_data_i2c_read(COMRAM[1]), NULL(NULL[0]), 

    S131$writePtr	PTR unsigned char  size(2) Largest target is 2
		 -> au8_data_i2c_write(COMRAM[2]), NULL(NULL[0]), 

    S42$2$1	PTR unsigned char  size(2) Largest target is 2
		 -> au8_data_i2c_write(COMRAM[2]), 

    S42$3$1	PTR unsigned char  size(2) Largest target is 0

    S42$4$1	PTR unsigned char  size(2) Largest target is 2
		 -> au8_data_i2c_write(COMRAM[2]), 

    S42$4$3	PTR unsigned char  size(2) Largest target is 1
		 -> u8_data_i2c_read(COMRAM[1]), 

    S42$8$0	PTR FTN()void  size(3) Largest target is 1
		 -> I2C1_DefaultCallback(), 

    S42$CallbackRegister	PTR FTN(PTR FTN()void ,)void  size(3) Largest target is 1
		 -> I2C1_CallbackRegister(), 

    S42$Deinitialize	PTR FTN()void  size(3) Largest target is 1
		 -> I2C1_Deinitialize(), 

    S42$ErrorGet	PTR FTN()enum E17100 size(3) Largest target is 1
		 -> I2C1_ErrorGet(), 

    S42$Initialize	PTR FTN()void  size(3) Largest target is 1
		 -> I2C1_Initialize(), 

    S42$IsBusy	PTR FTN()_Bool  size(3) Largest target is 1
		 -> I2C1_IsBusy(), 

    S42$Read	PTR FTN(unsigned short ,PTR unsigned char ,unsigned int ,)_Bool  size(3) Largest target is 1
		 -> I2C1_Read(), 

    S42$Tasks	PTR FTN()void  size(3) Largest target is 1
		 -> NULL(), 

    S42$TransferSetup	PTR FTN(PTR struct .,unsigned long ,)_Bool  size(3) Largest target is 1
		 -> NULL(), 

    S42$Write	PTR FTN(unsigned short ,PTR unsigned char ,unsigned int ,)_Bool  size(3) Largest target is 1
		 -> I2C1_Write(), 

    S42$WriteRead	PTR FTN(unsigned short ,PTR unsigned char ,unsigned int ,PTR unsigned char ,unsigned int ,)_Bool  size(3) Largest target is 1
		 -> I2C1_WriteRead(), 

    S943$4$0	PTR void  size(2) Largest target is 3
		 -> au8_data_spi_buffer(COMRAM[3]), 

    S943$5$0	PTR void  size(2) Largest target is 0

    S943$6$0	PTR void  size(2) Largest target is 0

    S943SPI_INTERFACE$BufferExchange	PTR FTN(PTR void ,unsigned int ,)void  size(3) Largest target is 1
		 -> SPI1_BufferExchange(), 

    S943SPI_INTERFACE$BufferRead	PTR FTN(PTR void ,unsigned int ,)void  size(3) Largest target is 1
		 -> SPI1_BufferRead(), 

    S943SPI_INTERFACE$BufferWrite	PTR FTN(PTR void ,unsigned int ,)void  size(3) Largest target is 1
		 -> SPI1_BufferWrite(), 

    S943SPI_INTERFACE$ByteExchange	PTR FTN(unsigned char ,)unsigned char  size(3) Largest target is 1
		 -> SPI1_ByteExchange(), 

    S943SPI_INTERFACE$ByteRead	PTR FTN()unsigned char  size(3) Largest target is 1
		 -> SPI1_ByteRead(), 

    S943SPI_INTERFACE$ByteWrite	PTR FTN(unsigned char ,)void  size(3) Largest target is 1
		 -> SPI1_ByteWrite(), 

    S943SPI_INTERFACE$Close	PTR FTN()void  size(3) Largest target is 1
		 -> SPI1_Close(), 

    S943SPI_INTERFACE$Deinitialize	PTR FTN()void  size(3) Largest target is 1
		 -> SPI1_Deinitialize(), 

    S943SPI_INTERFACE$Initialize	PTR FTN()void  size(3) Largest target is 1
		 -> SPI1_Initialize(), 

    S943SPI_INTERFACE$IsRxReady	PTR FTN()_Bool  size(3) Largest target is 1
		 -> SPI1_IsRxReady(), 

    S943SPI_INTERFACE$IsTxReady	PTR FTN()_Bool  size(3) Largest target is 1
		 -> SPI1_IsTxReady(), 

    S943SPI_INTERFACE$Open	PTR FTN(unsigned char ,)_Bool  size(3) Largest target is 1
		 -> SPI1_Open(), 

    S943SPI_INTERFACE$RxCompleteCallbackRegister	PTR FTN(PTR FTN()void ,)void  size(3) Largest target is 1
		 -> NULL(), 

    S943SPI_INTERFACE$TxCompleteCallbackRegister	PTR FTN(PTR FTN()void ,)void  size(3) Largest target is 1
		 -> NULL(), 

    SPI1_BufferExchange@bufferData	PTR void  size(2) Largest target is 3
		 -> au8_data_spi_buffer(COMRAM[3]), 

    SPI1_BufferExchange@bufferInput	PTR unsigned char  size(2) Largest target is 3
		 -> au8_data_spi_buffer(COMRAM[3]), 

    SPI1_Host$BufferExchange	PTR FTN(PTR void ,unsigned int ,)void  size(3) Largest target is 1
		 -> SPI1_BufferExchange(), 

    SPI1_Host$BufferRead	PTR FTN(PTR void ,unsigned int ,)void  size(3) Largest target is 1
		 -> SPI1_BufferRead(), 

    SPI1_Host$BufferWrite	PTR FTN(PTR void ,unsigned int ,)void  size(3) Largest target is 1
		 -> SPI1_BufferWrite(), 

    SPI1_Host$ByteExchange	PTR FTN(unsigned char ,)unsigned char  size(3) Largest target is 1
		 -> SPI1_ByteExchange(), 

    SPI1_Host$ByteRead	PTR FTN()unsigned char  size(3) Largest target is 1
		 -> SPI1_ByteRead(), 

    SPI1_Host$ByteWrite	PTR FTN(unsigned char ,)void  size(3) Largest target is 1
		 -> SPI1_ByteWrite(), 

    SPI1_Host$Close	PTR FTN()void  size(3) Largest target is 1
		 -> SPI1_Close(), 

    SPI1_Host$Deinitialize	PTR FTN()void  size(3) Largest target is 1
		 -> SPI1_Deinitialize(), 

    SPI1_Host$Initialize	PTR FTN()void  size(3) Largest target is 1
		 -> SPI1_Initialize(), 

    SPI1_Host$IsRxReady	PTR FTN()_Bool  size(3) Largest target is 1
		 -> SPI1_IsRxReady(), 

    SPI1_Host$IsTxReady	PTR FTN()_Bool  size(3) Largest target is 1
		 -> SPI1_IsTxReady(), 

    SPI1_Host$Open	PTR FTN(unsigned char ,)_Bool  size(3) Largest target is 1
		 -> SPI1_Open(), 

    SPI1_Host$RxCompleteCallbackRegister	PTR FTN(PTR FTN()void ,)void  size(3) Largest target is 1
		 -> NULL(), 

    SPI1_Host$TxCompleteCallbackRegister	PTR FTN(PTR FTN()void ,)void  size(3) Largest target is 1
		 -> NULL(), 

    TimerCheck@p_timer	PTR unsigned short  size(2) Largest target is 2
		 -> u16_timer_1s(COMRAM[2]), u16_timer_200m(COMRAM[2]), 

    TimerStart@p_timer	PTR unsigned short  size(2) Largest target is 2
		 -> u16_timer_1s(COMRAM[2]), u16_timer_200m(COMRAM[2]), 


Critical Paths under _main in COMRAM

    _main->_loop
    _MCP23S17_Initialize->_MCP23S17_Write
    _MCP23017_Initialize->_MCP23017_Write
    _MCP23017_Write->_I2C1_Write
    _I2C1_Initialize->_I2C1_CallbackRegister
    _loop->_MCP23017_UpdateState
    _update_out->_UART3_Write
    _request_in->_EchoStr
    _EchoStr->_UART3_Write
    _MCP23S17_UpdateState->_MCP23S17_Write
    _MCP23S17_Write->_SPI1_BufferExchange
    _MCP23S17_Read->_SPI1_BufferExchange
    _MCP23017_UpdateState->_I2C1_WriteRead
    _I2C1_WriteRead->_I2C1_IsBusy
    _I2C1_Write->_I2C1_IsBusy
    _I2C1_WriteStart->_I2C1_AddrTransmit
    _I2C1_WriteStart->_I2C1_CounterSet

Critical Paths under _I2C1_ISR in COMRAM

    _I2C1_StopSend->i2_I2C1_CounterSet
    _I2C1_ReadStart->i2_I2C1_AddrTransmit

Critical Paths under _I2C1_ERROR_ISR in COMRAM

    _I2C1_StopSend->i2_I2C1_CounterSet

Critical Paths under _I2C1_RX_ISR in COMRAM

    None.

Critical Paths under _I2C1_TX_ISR in COMRAM

    _I2C1_TX_ISR->_I2C1_DataTransmit

Critical Paths under _DEFAULT_ISR in COMRAM

    None.

Critical Paths under _TMR2_ISR in COMRAM

    None.

Critical Paths under _U3RX_ISR in COMRAM

    None.

Critical Paths under _U3TX_ISR in COMRAM

    None.

Critical Paths under _INT0_ISR in COMRAM

    None.

Critical Paths under _NCO1_ISR in COMRAM

    None.

Critical Paths under _main in BANK5

    None.

Critical Paths under _I2C1_ISR in BANK5

    None.

Critical Paths under _I2C1_ERROR_ISR in BANK5

    None.

Critical Paths under _I2C1_RX_ISR in BANK5

    None.

Critical Paths under _I2C1_TX_ISR in BANK5

    None.

Critical Paths under _DEFAULT_ISR in BANK5

    None.

Critical Paths under _TMR2_ISR in BANK5

    None.

Critical Paths under _U3RX_ISR in BANK5

    None.

Critical Paths under _U3TX_ISR in BANK5

    None.

Critical Paths under _INT0_ISR in BANK5

    None.

Critical Paths under _NCO1_ISR in BANK5

    None.

Critical Paths under _main in BANK6

    None.

Critical Paths under _I2C1_ISR in BANK6

    None.

Critical Paths under _I2C1_ERROR_ISR in BANK6

    None.

Critical Paths under _I2C1_RX_ISR in BANK6

    None.

Critical Paths under _I2C1_TX_ISR in BANK6

    None.

Critical Paths under _DEFAULT_ISR in BANK6

    None.

Critical Paths under _TMR2_ISR in BANK6

    None.

Critical Paths under _U3RX_ISR in BANK6

    None.

Critical Paths under _U3TX_ISR in BANK6

    None.

Critical Paths under _INT0_ISR in BANK6

    None.

Critical Paths under _NCO1_ISR in BANK6

    None.

Critical Paths under _main in BANK7

    None.

Critical Paths under _I2C1_ISR in BANK7

    None.

Critical Paths under _I2C1_ERROR_ISR in BANK7

    None.

Critical Paths under _I2C1_RX_ISR in BANK7

    None.

Critical Paths under _I2C1_TX_ISR in BANK7

    None.

Critical Paths under _DEFAULT_ISR in BANK7

    None.

Critical Paths under _TMR2_ISR in BANK7

    None.

Critical Paths under _U3RX_ISR in BANK7

    None.

Critical Paths under _U3TX_ISR in BANK7

    None.

Critical Paths under _INT0_ISR in BANK7

    None.

Critical Paths under _NCO1_ISR in BANK7

    None.

Critical Paths under _main in BANK8

    None.

Critical Paths under _I2C1_ISR in BANK8

    None.

Critical Paths under _I2C1_ERROR_ISR in BANK8

    None.

Critical Paths under _I2C1_RX_ISR in BANK8

    None.

Critical Paths under _I2C1_TX_ISR in BANK8

    None.

Critical Paths under _DEFAULT_ISR in BANK8

    None.

Critical Paths under _TMR2_ISR in BANK8

    None.

Critical Paths under _U3RX_ISR in BANK8

    None.

Critical Paths under _U3TX_ISR in BANK8

    None.

Critical Paths under _INT0_ISR in BANK8

    None.

Critical Paths under _NCO1_ISR in BANK8

    None.

Critical Paths under _main in BANK9

    None.

Critical Paths under _I2C1_ISR in BANK9

    None.

Critical Paths under _I2C1_ERROR_ISR in BANK9

    None.

Critical Paths under _I2C1_RX_ISR in BANK9

    None.

Critical Paths under _I2C1_TX_ISR in BANK9

    None.

Critical Paths under _DEFAULT_ISR in BANK9

    None.

Critical Paths under _TMR2_ISR in BANK9

    None.

Critical Paths under _U3RX_ISR in BANK9

    None.

Critical Paths under _U3TX_ISR in BANK9

    None.

Critical Paths under _INT0_ISR in BANK9

    None.

Critical Paths under _NCO1_ISR in BANK9

    None.

Critical Paths under _main in BANK10

    None.

Critical Paths under _I2C1_ISR in BANK10

    None.

Critical Paths under _I2C1_ERROR_ISR in BANK10

    None.

Critical Paths under _I2C1_RX_ISR in BANK10

    None.

Critical Paths under _I2C1_TX_ISR in BANK10

    None.

Critical Paths under _DEFAULT_ISR in BANK10

    None.

Critical Paths under _TMR2_ISR in BANK10

    None.

Critical Paths under _U3RX_ISR in BANK10

    None.

Critical Paths under _U3TX_ISR in BANK10

    None.

Critical Paths under _INT0_ISR in BANK10

    None.

Critical Paths under _NCO1_ISR in BANK10

    None.

Critical Paths under _main in BANK11

    None.

Critical Paths under _I2C1_ISR in BANK11

    None.

Critical Paths under _I2C1_ERROR_ISR in BANK11

    None.

Critical Paths under _I2C1_RX_ISR in BANK11

    None.

Critical Paths under _I2C1_TX_ISR in BANK11

    None.

Critical Paths under _DEFAULT_ISR in BANK11

    None.

Critical Paths under _TMR2_ISR in BANK11

    None.

Critical Paths under _U3RX_ISR in BANK11

    None.

Critical Paths under _U3TX_ISR in BANK11

    None.

Critical Paths under _INT0_ISR in BANK11

    None.

Critical Paths under _NCO1_ISR in BANK11

    None.

Critical Paths under _main in BANK12

    None.

Critical Paths under _I2C1_ISR in BANK12

    None.

Critical Paths under _I2C1_ERROR_ISR in BANK12

    None.

Critical Paths under _I2C1_RX_ISR in BANK12

    None.

Critical Paths under _I2C1_TX_ISR in BANK12

    None.

Critical Paths under _DEFAULT_ISR in BANK12

    None.

Critical Paths under _TMR2_ISR in BANK12

    None.

Critical Paths under _U3RX_ISR in BANK12

    None.

Critical Paths under _U3TX_ISR in BANK12

    None.

Critical Paths under _INT0_ISR in BANK12

    None.

Critical Paths under _NCO1_ISR in BANK12

    None.

Critical Paths under _main in BANK13

    None.

Critical Paths under _I2C1_ISR in BANK13

    None.

Critical Paths under _I2C1_ERROR_ISR in BANK13

    None.

Critical Paths under _I2C1_RX_ISR in BANK13

    None.

Critical Paths under _I2C1_TX_ISR in BANK13

    None.

Critical Paths under _DEFAULT_ISR in BANK13

    None.

Critical Paths under _TMR2_ISR in BANK13

    None.

Critical Paths under _U3RX_ISR in BANK13

    None.

Critical Paths under _U3TX_ISR in BANK13

    None.

Critical Paths under _INT0_ISR in BANK13

    None.

Critical Paths under _NCO1_ISR in BANK13

    None.

Critical Paths under _main in BANK14

    None.

Critical Paths under _I2C1_ISR in BANK14

    None.

Critical Paths under _I2C1_ERROR_ISR in BANK14

    None.

Critical Paths under _I2C1_RX_ISR in BANK14

    None.

Critical Paths under _I2C1_TX_ISR in BANK14

    None.

Critical Paths under _DEFAULT_ISR in BANK14

    None.

Critical Paths under _TMR2_ISR in BANK14

    None.

Critical Paths under _U3RX_ISR in BANK14

    None.

Critical Paths under _U3TX_ISR in BANK14

    None.

Critical Paths under _INT0_ISR in BANK14

    None.

Critical Paths under _NCO1_ISR in BANK14

    None.

Critical Paths under _main in BANK15

    None.

Critical Paths under _I2C1_ISR in BANK15

    None.

Critical Paths under _I2C1_ERROR_ISR in BANK15

    None.

Critical Paths under _I2C1_RX_ISR in BANK15

    None.

Critical Paths under _I2C1_TX_ISR in BANK15

    None.

Critical Paths under _DEFAULT_ISR in BANK15

    None.

Critical Paths under _TMR2_ISR in BANK15

    None.

Critical Paths under _U3RX_ISR in BANK15

    None.

Critical Paths under _U3TX_ISR in BANK15

    None.

Critical Paths under _INT0_ISR in BANK15

    None.

Critical Paths under _NCO1_ISR in BANK15

    None.

Critical Paths under _main in BANK16

    None.

Critical Paths under _I2C1_ISR in BANK16

    None.

Critical Paths under _I2C1_ERROR_ISR in BANK16

    None.

Critical Paths under _I2C1_RX_ISR in BANK16

    None.

Critical Paths under _I2C1_TX_ISR in BANK16

    None.

Critical Paths under _DEFAULT_ISR in BANK16

    None.

Critical Paths under _TMR2_ISR in BANK16

    None.

Critical Paths under _U3RX_ISR in BANK16

    None.

Critical Paths under _U3TX_ISR in BANK16

    None.

Critical Paths under _INT0_ISR in BANK16

    None.

Critical Paths under _NCO1_ISR in BANK16

    None.

Critical Paths under _main in BANK17

    None.

Critical Paths under _I2C1_ISR in BANK17

    None.

Critical Paths under _I2C1_ERROR_ISR in BANK17

    None.

Critical Paths under _I2C1_RX_ISR in BANK17

    None.

Critical Paths under _I2C1_TX_ISR in BANK17

    None.

Critical Paths under _DEFAULT_ISR in BANK17

    None.

Critical Paths under _TMR2_ISR in BANK17

    None.

Critical Paths under _U3RX_ISR in BANK17

    None.

Critical Paths under _U3TX_ISR in BANK17

    None.

Critical Paths under _INT0_ISR in BANK17

    None.

Critical Paths under _NCO1_ISR in BANK17

    None.

Critical Paths under _main in BANK18

    None.

Critical Paths under _I2C1_ISR in BANK18

    None.

Critical Paths under _I2C1_ERROR_ISR in BANK18

    None.

Critical Paths under _I2C1_RX_ISR in BANK18

    None.

Critical Paths under _I2C1_TX_ISR in BANK18

    None.

Critical Paths under _DEFAULT_ISR in BANK18

    None.

Critical Paths under _TMR2_ISR in BANK18

    None.

Critical Paths under _U3RX_ISR in BANK18

    None.

Critical Paths under _U3TX_ISR in BANK18

    None.

Critical Paths under _INT0_ISR in BANK18

    None.

Critical Paths under _NCO1_ISR in BANK18

    None.

Critical Paths under _main in BANK19

    None.

Critical Paths under _I2C1_ISR in BANK19

    None.

Critical Paths under _I2C1_ERROR_ISR in BANK19

    None.

Critical Paths under _I2C1_RX_ISR in BANK19

    None.

Critical Paths under _I2C1_TX_ISR in BANK19

    None.

Critical Paths under _DEFAULT_ISR in BANK19

    None.

Critical Paths under _TMR2_ISR in BANK19

    None.

Critical Paths under _U3RX_ISR in BANK19

    None.

Critical Paths under _U3TX_ISR in BANK19

    None.

Critical Paths under _INT0_ISR in BANK19

    None.

Critical Paths under _NCO1_ISR in BANK19

    None.

Critical Paths under _main in BANK20

    None.

Critical Paths under _I2C1_ISR in BANK20

    None.

Critical Paths under _I2C1_ERROR_ISR in BANK20

    None.

Critical Paths under _I2C1_RX_ISR in BANK20

    None.

Critical Paths under _I2C1_TX_ISR in BANK20

    None.

Critical Paths under _DEFAULT_ISR in BANK20

    None.

Critical Paths under _TMR2_ISR in BANK20

    None.

Critical Paths under _U3RX_ISR in BANK20

    None.

Critical Paths under _U3TX_ISR in BANK20

    None.

Critical Paths under _INT0_ISR in BANK20

    None.

Critical Paths under _NCO1_ISR in BANK20

    None.

Critical Paths under _main in BANK21

    None.

Critical Paths under _I2C1_ISR in BANK21

    None.

Critical Paths under _I2C1_ERROR_ISR in BANK21

    None.

Critical Paths under _I2C1_RX_ISR in BANK21

    None.

Critical Paths under _I2C1_TX_ISR in BANK21

    None.

Critical Paths under _DEFAULT_ISR in BANK21

    None.

Critical Paths under _TMR2_ISR in BANK21

    None.

Critical Paths under _U3RX_ISR in BANK21

    None.

Critical Paths under _U3TX_ISR in BANK21

    None.

Critical Paths under _INT0_ISR in BANK21

    None.

Critical Paths under _NCO1_ISR in BANK21

    None.

Critical Paths under _main in BANK22

    None.

Critical Paths under _I2C1_ISR in BANK22

    None.

Critical Paths under _I2C1_ERROR_ISR in BANK22

    None.

Critical Paths under _I2C1_RX_ISR in BANK22

    None.

Critical Paths under _I2C1_TX_ISR in BANK22

    None.

Critical Paths under _DEFAULT_ISR in BANK22

    None.

Critical Paths under _TMR2_ISR in BANK22

    None.

Critical Paths under _U3RX_ISR in BANK22

    None.

Critical Paths under _U3TX_ISR in BANK22

    None.

Critical Paths under _INT0_ISR in BANK22

    None.

Critical Paths under _NCO1_ISR in BANK22

    None.

Critical Paths under _main in BANK23

    None.

Critical Paths under _I2C1_ISR in BANK23

    None.

Critical Paths under _I2C1_ERROR_ISR in BANK23

    None.

Critical Paths under _I2C1_RX_ISR in BANK23

    None.

Critical Paths under _I2C1_TX_ISR in BANK23

    None.

Critical Paths under _DEFAULT_ISR in BANK23

    None.

Critical Paths under _TMR2_ISR in BANK23

    None.

Critical Paths under _U3RX_ISR in BANK23

    None.

Critical Paths under _U3TX_ISR in BANK23

    None.

Critical Paths under _INT0_ISR in BANK23

    None.

Critical Paths under _NCO1_ISR in BANK23

    None.

Critical Paths under _main in BANK24

    None.

Critical Paths under _I2C1_ISR in BANK24

    None.

Critical Paths under _I2C1_ERROR_ISR in BANK24

    None.

Critical Paths under _I2C1_RX_ISR in BANK24

    None.

Critical Paths under _I2C1_TX_ISR in BANK24

    None.

Critical Paths under _DEFAULT_ISR in BANK24

    None.

Critical Paths under _TMR2_ISR in BANK24

    None.

Critical Paths under _U3RX_ISR in BANK24

    None.

Critical Paths under _U3TX_ISR in BANK24

    None.

Critical Paths under _INT0_ISR in BANK24

    None.

Critical Paths under _NCO1_ISR in BANK24

    None.

Critical Paths under _main in BANK25

    None.

Critical Paths under _I2C1_ISR in BANK25

    None.

Critical Paths under _I2C1_ERROR_ISR in BANK25

    None.

Critical Paths under _I2C1_RX_ISR in BANK25

    None.

Critical Paths under _I2C1_TX_ISR in BANK25

    None.

Critical Paths under _DEFAULT_ISR in BANK25

    None.

Critical Paths under _TMR2_ISR in BANK25

    None.

Critical Paths under _U3RX_ISR in BANK25

    None.

Critical Paths under _U3TX_ISR in BANK25

    None.

Critical Paths under _INT0_ISR in BANK25

    None.

Critical Paths under _NCO1_ISR in BANK25

    None.

Critical Paths under _main in BANK26

    None.

Critical Paths under _I2C1_ISR in BANK26

    None.

Critical Paths under _I2C1_ERROR_ISR in BANK26

    None.

Critical Paths under _I2C1_RX_ISR in BANK26

    None.

Critical Paths under _I2C1_TX_ISR in BANK26

    None.

Critical Paths under _DEFAULT_ISR in BANK26

    None.

Critical Paths under _TMR2_ISR in BANK26

    None.

Critical Paths under _U3RX_ISR in BANK26

    None.

Critical Paths under _U3TX_ISR in BANK26

    None.

Critical Paths under _INT0_ISR in BANK26

    None.

Critical Paths under _NCO1_ISR in BANK26

    None.

Critical Paths under _main in BANK27

    None.

Critical Paths under _I2C1_ISR in BANK27

    None.

Critical Paths under _I2C1_ERROR_ISR in BANK27

    None.

Critical Paths under _I2C1_RX_ISR in BANK27

    None.

Critical Paths under _I2C1_TX_ISR in BANK27

    None.

Critical Paths under _DEFAULT_ISR in BANK27

    None.

Critical Paths under _TMR2_ISR in BANK27

    None.

Critical Paths under _U3RX_ISR in BANK27

    None.

Critical Paths under _U3TX_ISR in BANK27

    None.

Critical Paths under _INT0_ISR in BANK27

    None.

Critical Paths under _NCO1_ISR in BANK27

    None.

Critical Paths under _main in BANK28

    None.

Critical Paths under _I2C1_ISR in BANK28

    None.

Critical Paths under _I2C1_ERROR_ISR in BANK28

    None.

Critical Paths under _I2C1_RX_ISR in BANK28

    None.

Critical Paths under _I2C1_TX_ISR in BANK28

    None.

Critical Paths under _DEFAULT_ISR in BANK28

    None.

Critical Paths under _TMR2_ISR in BANK28

    None.

Critical Paths under _U3RX_ISR in BANK28

    None.

Critical Paths under _U3TX_ISR in BANK28

    None.

Critical Paths under _INT0_ISR in BANK28

    None.

Critical Paths under _NCO1_ISR in BANK28

    None.

Critical Paths under _main in BANK29

    None.

Critical Paths under _I2C1_ISR in BANK29

    None.

Critical Paths under _I2C1_ERROR_ISR in BANK29

    None.

Critical Paths under _I2C1_RX_ISR in BANK29

    None.

Critical Paths under _I2C1_TX_ISR in BANK29

    None.

Critical Paths under _DEFAULT_ISR in BANK29

    None.

Critical Paths under _TMR2_ISR in BANK29

    None.

Critical Paths under _U3RX_ISR in BANK29

    None.

Critical Paths under _U3TX_ISR in BANK29

    None.

Critical Paths under _INT0_ISR in BANK29

    None.

Critical Paths under _NCO1_ISR in BANK29

    None.

Critical Paths under _main in BANK30

    None.

Critical Paths under _I2C1_ISR in BANK30

    None.

Critical Paths under _I2C1_ERROR_ISR in BANK30

    None.

Critical Paths under _I2C1_RX_ISR in BANK30

    None.

Critical Paths under _I2C1_TX_ISR in BANK30

    None.

Critical Paths under _DEFAULT_ISR in BANK30

    None.

Critical Paths under _TMR2_ISR in BANK30

    None.

Critical Paths under _U3RX_ISR in BANK30

    None.

Critical Paths under _U3TX_ISR in BANK30

    None.

Critical Paths under _INT0_ISR in BANK30

    None.

Critical Paths under _NCO1_ISR in BANK30

    None.

Critical Paths under _main in BANK31

    None.

Critical Paths under _I2C1_ISR in BANK31

    None.

Critical Paths under _I2C1_ERROR_ISR in BANK31

    None.

Critical Paths under _I2C1_RX_ISR in BANK31

    None.

Critical Paths under _I2C1_TX_ISR in BANK31

    None.

Critical Paths under _DEFAULT_ISR in BANK31

    None.

Critical Paths under _TMR2_ISR in BANK31

    None.

Critical Paths under _U3RX_ISR in BANK31

    None.

Critical Paths under _U3TX_ISR in BANK31

    None.

Critical Paths under _INT0_ISR in BANK31

    None.

Critical Paths under _NCO1_ISR in BANK31

    None.

Critical Paths under _main in BANK32

    None.

Critical Paths under _I2C1_ISR in BANK32

    None.

Critical Paths under _I2C1_ERROR_ISR in BANK32

    None.

Critical Paths under _I2C1_RX_ISR in BANK32

    None.

Critical Paths under _I2C1_TX_ISR in BANK32

    None.

Critical Paths under _DEFAULT_ISR in BANK32

    None.

Critical Paths under _TMR2_ISR in BANK32

    None.

Critical Paths under _U3RX_ISR in BANK32

    None.

Critical Paths under _U3TX_ISR in BANK32

    None.

Critical Paths under _INT0_ISR in BANK32

    None.

Critical Paths under _NCO1_ISR in BANK32

    None.

Critical Paths under _main in BANK33

    None.

Critical Paths under _I2C1_ISR in BANK33

    None.

Critical Paths under _I2C1_ERROR_ISR in BANK33

    None.

Critical Paths under _I2C1_RX_ISR in BANK33

    None.

Critical Paths under _I2C1_TX_ISR in BANK33

    None.

Critical Paths under _DEFAULT_ISR in BANK33

    None.

Critical Paths under _TMR2_ISR in BANK33

    None.

Critical Paths under _U3RX_ISR in BANK33

    None.

Critical Paths under _U3TX_ISR in BANK33

    None.

Critical Paths under _INT0_ISR in BANK33

    None.

Critical Paths under _NCO1_ISR in BANK33

    None.

Critical Paths under _main in BANK34

    None.

Critical Paths under _I2C1_ISR in BANK34

    None.

Critical Paths under _I2C1_ERROR_ISR in BANK34

    None.

Critical Paths under _I2C1_RX_ISR in BANK34

    None.

Critical Paths under _I2C1_TX_ISR in BANK34

    None.

Critical Paths under _DEFAULT_ISR in BANK34

    None.

Critical Paths under _TMR2_ISR in BANK34

    None.

Critical Paths under _U3RX_ISR in BANK34

    None.

Critical Paths under _U3TX_ISR in BANK34

    None.

Critical Paths under _INT0_ISR in BANK34

    None.

Critical Paths under _NCO1_ISR in BANK34

    None.

Critical Paths under _main in BANK35

    None.

Critical Paths under _I2C1_ISR in BANK35

    None.

Critical Paths under _I2C1_ERROR_ISR in BANK35

    None.

Critical Paths under _I2C1_RX_ISR in BANK35

    None.

Critical Paths under _I2C1_TX_ISR in BANK35

    None.

Critical Paths under _DEFAULT_ISR in BANK35

    None.

Critical Paths under _TMR2_ISR in BANK35

    None.

Critical Paths under _U3RX_ISR in BANK35

    None.

Critical Paths under _U3TX_ISR in BANK35

    None.

Critical Paths under _INT0_ISR in BANK35

    None.

Critical Paths under _NCO1_ISR in BANK35

    None.

Critical Paths under _main in BANK36

    None.

Critical Paths under _I2C1_ISR in BANK36

    None.

Critical Paths under _I2C1_ERROR_ISR in BANK36

    None.

Critical Paths under _I2C1_RX_ISR in BANK36

    None.

Critical Paths under _I2C1_TX_ISR in BANK36

    None.

Critical Paths under _DEFAULT_ISR in BANK36

    None.

Critical Paths under _TMR2_ISR in BANK36

    None.

Critical Paths under _U3RX_ISR in BANK36

    None.

Critical Paths under _U3TX_ISR in BANK36

    None.

Critical Paths under _INT0_ISR in BANK36

    None.

Critical Paths under _NCO1_ISR in BANK36

    None.

Call Graph Tables:

 ---------------------------------------------------------------------------------
 (Depth) Function   	        Calls       Base Space   Used Autos Params    Refs
 ---------------------------------------------------------------------------------
 (0) _main                                                 0     0      0    6505
                    _TMR2_Initialize
                               _loop
                              _setup
 ---------------------------------------------------------------------------------
 (1) _setup                                                0     0      0    2846
                        _CLC1_Enable
                    _CLC1_Initialize
                            _EchoStr
                    _I2C1_Initialize
                _MCP23017_Initialize
                _MCP23S17_Initialize
                    _NCO1_Initialize
                    _SPI1_Initialize
                         _TimerStart
                   _UART3_Initialize
 ---------------------------------------------------------------------------------
 (2) _UART3_Initialize                                     0     0      0       0
 ---------------------------------------------------------------------------------
 (2) _SPI1_Initialize                                      0     0      0       0
 ---------------------------------------------------------------------------------
 (2) _NCO1_Initialize                                      0     0      0       0
 ---------------------------------------------------------------------------------
 (2) _MCP23S17_Initialize                                  0     0      0     997
                     _MCP23S17_Write
                          _SPI1_Open
 ---------------------------------------------------------------------------------
 (3) _SPI1_Open                                            4     4      0      80
                                              6 COMRAM     3     3      0
 ---------------------------------------------------------------------------------
 (2) _MCP23017_Initialize                                  0     0      0    1032
                     _MCP23017_Write
 ---------------------------------------------------------------------------------
 (3) _MCP23017_Write                                       2     1      1    1032
                                             13 COMRAM     2     1      1
                        _I2C1_IsBusy
                         _I2C1_Write
 ---------------------------------------------------------------------------------
 (2) _I2C1_Initialize                                      0     0      0     196
              _I2C1_CallbackRegister
              _I2C1_InterruptsEnable
 ---------------------------------------------------------------------------------
 (3) _I2C1_InterruptsEnable                                0     0      0       0
 ---------------------------------------------------------------------------------
 (3) _I2C1_CallbackRegister                                3     0      3     196
                                              6 COMRAM     3     0      3
 ---------------------------------------------------------------------------------
 (2) _CLC1_Initialize                                      0     0      0       0
 ---------------------------------------------------------------------------------
 (2) _CLC1_Enable                                          0     0      0       0
 ---------------------------------------------------------------------------------
 (1) _loop                                                 1     1      0    3659
                                             19 COMRAM     1     1      0
               _MCP23017_UpdateState
               _MCP23S17_UpdateState
                         _TimerCheck
                         _TimerStart
                         _request_in
                         _update_out
 ---------------------------------------------------------------------------------
 (2) _update_out                                           0     0      0      22
                        _UART3_Write
 ---------------------------------------------------------------------------------
 (2) _request_in                                           3     3      0     333
                                              8 COMRAM     3     3      0
                            _EchoStr
                         _UART3_Read
 ---------------------------------------------------------------------------------
 (3) _UART3_Read                                           1     1      0      15
                                              6 COMRAM     1     1      0
 ---------------------------------------------------------------------------------
 (2) _EchoStr                                              1     0      1     295
                                              7 COMRAM     1     0      1
                        _UART3_Write
 ---------------------------------------------------------------------------------
 (3) _UART3_Write                                          1     1      0      22
                                              6 COMRAM     1     1      0
 ---------------------------------------------------------------------------------
 (2) _TimerStart                                           2     0      2     326
                                              6 COMRAM     2     0      2
 ---------------------------------------------------------------------------------
 (2) _TimerCheck                                           7     3      4     438
                                              6 COMRAM     7     3      4
 ---------------------------------------------------------------------------------
 (2) _MCP23S17_UpdateState                                 2     2      0    1334
                                             14 COMRAM     2     2      0
                      _MCP23S17_Read
                     _MCP23S17_Write
 ---------------------------------------------------------------------------------
 (3) _MCP23S17_Write                                       2     1      1     917
                                             12 COMRAM     2     1      1
                _SPI1_BufferExchange
 ---------------------------------------------------------------------------------
 (3) _MCP23S17_Read                                        1     1      0     417
                _SPI1_BufferExchange
 ---------------------------------------------------------------------------------
 (4) _SPI1_BufferExchange                                  6     2      4     417
                                              6 COMRAM     6     2      4
 ---------------------------------------------------------------------------------
 (2) _MCP23017_UpdateState                                 2     2      0    1160
                                             17 COMRAM     2     2      0
                        _I2C1_IsBusy
                         _I2C1_Write
                     _I2C1_WriteRead
 ---------------------------------------------------------------------------------
 (3) _I2C1_WriteRead                                      11     1     10     552
                                              7 COMRAM    10     0     10
                        _I2C1_IsBusy
                    _I2C1_WriteStart
 ---------------------------------------------------------------------------------
 (4) _I2C1_Write                                           7     1      6     584
                                              7 COMRAM     6     0      6
                        _I2C1_IsBusy
                    _I2C1_WriteStart
 ---------------------------------------------------------------------------------
 (5) _I2C1_WriteStart                                      0     0      0      30
                  _I2C1_AddrTransmit
                    _I2C1_CounterSet
                 _I2C1_RestartEnable
                     _I2C1_StartSend
 ---------------------------------------------------------------------------------
 (6) _I2C1_StartSend                                       0     0      0       0
 ---------------------------------------------------------------------------------
 (6) _I2C1_RestartEnable                                   0     0      0       0
 ---------------------------------------------------------------------------------
 (6) _I2C1_CounterSet                                      1     1      0      15
                                              6 COMRAM     1     1      0
 ---------------------------------------------------------------------------------
 (6) _I2C1_AddrTransmit                                    1     1      0      15
                                              6 COMRAM     1     1      0
 ---------------------------------------------------------------------------------
 (5) _I2C1_IsBusy                                          1     1      0      24
                                              6 COMRAM     1     1      0
 ---------------------------------------------------------------------------------
 (1) _TMR2_Initialize                                      0     0      0       0
 ---------------------------------------------------------------------------------
 Estimated maximum stack depth 6
 ---------------------------------------------------------------------------------
 (Depth) Function   	        Calls       Base Space   Used Autos Params    Refs
 ---------------------------------------------------------------------------------
 (7) _I2C1_ISR                                             0     0      0      81
                         _I2C1_Close
                     _I2C1_ReadStart
                _I2C1_RestartDisable
                      _I2C1_StopSend
 ---------------------------------------------------------------------------------
 (8) _I2C1_StopSend                                        0     0      0      37
                    _I2C1_CounterGet
                  _I2C1_DataTransmit
                _I2C1_RestartDisable
                  i2_I2C1_CounterSet
 ---------------------------------------------------------------------------------
 (9) _I2C1_RestartDisable                                  0     0      0       0
 ---------------------------------------------------------------------------------
 (8) _I2C1_DataTransmit                                    1     1      0      15
                                              4 COMRAM     1     1      0
 ---------------------------------------------------------------------------------
 (9) _I2C1_CounterGet                                      0     0      0       0
 ---------------------------------------------------------------------------------
 (8) _I2C1_ReadStart                                       0     0      0      44
                i2_I2C1_AddrTransmit
                  i2_I2C1_CounterSet
                   i2_I2C1_StartSend
 ---------------------------------------------------------------------------------
 (9) i2_I2C1_StartSend                                     0     0      0       0
 ---------------------------------------------------------------------------------
 (9) i2_I2C1_CounterSet                                    1     1      0      22
                                              1 COMRAM     1     1      0
 ---------------------------------------------------------------------------------
 (9) i2_I2C1_AddrTransmit                                  1     1      0      22
                                              0 COMRAM     1     1      0
 ---------------------------------------------------------------------------------
 (8) _I2C1_Close                                           0     0      0       0
                   _I2C1_BufferClear
               _I2C1_ErrorFlagsClear
               _I2C1_InterruptsClear
 ---------------------------------------------------------------------------------
 (9) _I2C1_InterruptsClear                                 0     0      0       0
 ---------------------------------------------------------------------------------
 (9) _I2C1_ErrorFlagsClear                                 0     0      0       0
 ---------------------------------------------------------------------------------
 (9) _I2C1_BufferClear                                     0     0      0       0
 ---------------------------------------------------------------------------------
 Estimated maximum stack depth 9
 ---------------------------------------------------------------------------------
 (Depth) Function   	        Calls       Base Space   Used Autos Params    Refs
 ---------------------------------------------------------------------------------
 (7) _I2C1_ERROR_ISR                                       2     2      0      37
                                              2 COMRAM     2     2      0
                                NULL *
                      _I2C1_BusReset
               _I2C1_DefaultCallback *
                        _I2C1_IsAddr
                      _I2C1_IsBusCol
                  _I2C1_IsBusTimeOut
                        _I2C1_IsData
                        _I2C1_IsNack
                      _I2C1_StopSend
 ---------------------------------------------------------------------------------
 (8) _I2C1_StopSend                                        0     0      0      37
                    _I2C1_CounterGet
                  _I2C1_DataTransmit
                _I2C1_RestartDisable
                  i2_I2C1_CounterSet
 ---------------------------------------------------------------------------------
 (9) i2_I2C1_CounterSet                                    1     1      0      22
                                              1 COMRAM     1     1      0
 ---------------------------------------------------------------------------------
 (9) _I2C1_RestartDisable                                  0     0      0       0
 ---------------------------------------------------------------------------------
 (8) _I2C1_DataTransmit                                    1     1      0      15
                                              4 COMRAM     1     1      0
 ---------------------------------------------------------------------------------
 (9) _I2C1_CounterGet                                      0     0      0       0
 ---------------------------------------------------------------------------------
 (8) _I2C1_IsNack                                          0     0      0       0
 ---------------------------------------------------------------------------------
 (8) _I2C1_IsData                                          0     0      0       0
 ---------------------------------------------------------------------------------
 (8) _I2C1_IsBusTimeOut                                    0     0      0       0
 ---------------------------------------------------------------------------------
 (8) _I2C1_IsBusCol                                        0     0      0       0
 ---------------------------------------------------------------------------------
 (8) _I2C1_IsAddr                                          0     0      0       0
 ---------------------------------------------------------------------------------
 (8) _I2C1_DefaultCallback                                 0     0      0       0
 ---------------------------------------------------------------------------------
 (8) _I2C1_BusReset                                        0     0      0       0
                   _I2C1_BufferClear
               _I2C1_ErrorFlagsClear
               _I2C1_InterruptsClear
             _I2C1_InterruptsDisable
            i2_I2C1_InterruptsEnable
 ---------------------------------------------------------------------------------
 (9) i2_I2C1_InterruptsEnable                              0     0      0       0
 ---------------------------------------------------------------------------------
 (9) _I2C1_InterruptsDisable                               0     0      0       0
 ---------------------------------------------------------------------------------
 (9) _I2C1_InterruptsClear                                 0     0      0       0
 ---------------------------------------------------------------------------------
 (9) _I2C1_ErrorFlagsClear                                 0     0      0       0
 ---------------------------------------------------------------------------------
 (9) _I2C1_BufferClear                                     0     0      0       0
 ---------------------------------------------------------------------------------
 (8) NULL(Fake)                                            0     0      0       0
 ---------------------------------------------------------------------------------
 Estimated maximum stack depth 9
 ---------------------------------------------------------------------------------
 (Depth) Function   	        Calls       Base Space   Used Autos Params    Refs
 ---------------------------------------------------------------------------------
 (7) _I2C1_RX_ISR                                          0     0      0       0
                   _I2C1_DataReceive
 ---------------------------------------------------------------------------------
 (8) _I2C1_DataReceive                                     0     0      0       0
 ---------------------------------------------------------------------------------
 Estimated maximum stack depth 8
 ---------------------------------------------------------------------------------
 (Depth) Function   	        Calls       Base Space   Used Autos Params    Refs
 ---------------------------------------------------------------------------------
 (7) _I2C1_TX_ISR                                          0     0      0      15
                  _I2C1_DataTransmit
 ---------------------------------------------------------------------------------
 (8) _I2C1_DataTransmit                                    1     1      0      15
                                              4 COMRAM     1     1      0
 ---------------------------------------------------------------------------------
 Estimated maximum stack depth 8
 ---------------------------------------------------------------------------------
 (Depth) Function   	        Calls       Base Space   Used Autos Params    Refs
 ---------------------------------------------------------------------------------
 (7) _DEFAULT_ISR                                          0     0      0       0
 ---------------------------------------------------------------------------------
 Estimated maximum stack depth 7
 ---------------------------------------------------------------------------------
 (Depth) Function   	        Calls       Base Space   Used Autos Params    Refs
 ---------------------------------------------------------------------------------
 (7) _TMR2_ISR                                             0     0      0       0
 ---------------------------------------------------------------------------------
 Estimated maximum stack depth 7
 ---------------------------------------------------------------------------------
 (Depth) Function   	        Calls       Base Space   Used Autos Params    Refs
 ---------------------------------------------------------------------------------
 (7) _U3RX_ISR                                             1     1      0      15
                                              5 COMRAM     1     1      0
 ---------------------------------------------------------------------------------
 Estimated maximum stack depth 7
 ---------------------------------------------------------------------------------
 (Depth) Function   	        Calls       Base Space   Used Autos Params    Refs
 ---------------------------------------------------------------------------------
 (7) _U3TX_ISR                                             0     0      0       0
 ---------------------------------------------------------------------------------
 Estimated maximum stack depth 7
 ---------------------------------------------------------------------------------
 (Depth) Function   	        Calls       Base Space   Used Autos Params    Refs
 ---------------------------------------------------------------------------------
 (7) _INT0_ISR                                             0     0      0       0
 ---------------------------------------------------------------------------------
 Estimated maximum stack depth 7
 ---------------------------------------------------------------------------------
 (Depth) Function   	        Calls       Base Space   Used Autos Params    Refs
 ---------------------------------------------------------------------------------
 (7) _NCO1_ISR                                             0     0      0       0
 ---------------------------------------------------------------------------------
 Estimated maximum stack depth 7
 ---------------------------------------------------------------------------------

 Call Graph Graphs:

 _main (ROOT)
   _TMR2_Initialize
   _loop
     _MCP23017_UpdateState
       _I2C1_IsBusy
       _I2C1_Write
         _I2C1_IsBusy
         _I2C1_WriteStart
           _I2C1_AddrTransmit
           _I2C1_CounterSet
           _I2C1_RestartEnable
           _I2C1_StartSend
       _I2C1_WriteRead
         _I2C1_IsBusy
         _I2C1_WriteStart
     _MCP23S17_UpdateState
       _MCP23S17_Read
         _SPI1_BufferExchange
       _MCP23S17_Write
         _SPI1_BufferExchange
     _TimerCheck
     _TimerStart
     _request_in
       _EchoStr
         _UART3_Write
       _UART3_Read
     _update_out
       _UART3_Write
   _setup
     _CLC1_Enable
     _CLC1_Initialize
     _EchoStr
     _I2C1_Initialize
       _I2C1_CallbackRegister
       _I2C1_InterruptsEnable
     _MCP23017_Initialize
       _MCP23017_Write
         _I2C1_IsBusy
         _I2C1_Write
     _MCP23S17_Initialize
       _MCP23S17_Write
       _SPI1_Open
     _NCO1_Initialize
     _SPI1_Initialize
     _TimerStart
     _UART3_Initialize

 _I2C1_ISR (ROOT)
   _I2C1_Close
     _I2C1_BufferClear
     _I2C1_ErrorFlagsClear
     _I2C1_InterruptsClear
   _I2C1_ReadStart
     i2_I2C1_AddrTransmit
     i2_I2C1_CounterSet
     i2_I2C1_StartSend
   _I2C1_RestartDisable
   _I2C1_StopSend
     _I2C1_CounterGet
     _I2C1_DataTransmit
     _I2C1_RestartDisable
     i2_I2C1_CounterSet

 _I2C1_ERROR_ISR (ROOT)
   NULL(Fake) *
   _I2C1_BusReset *
     _I2C1_BufferClear
     _I2C1_ErrorFlagsClear
     _I2C1_InterruptsClear
     _I2C1_InterruptsDisable
     i2_I2C1_InterruptsEnable
   _I2C1_DefaultCallback *
   _I2C1_IsAddr *
   _I2C1_IsBusCol *
   _I2C1_IsBusTimeOut *
   _I2C1_IsData *
   _I2C1_IsNack *
   _I2C1_StopSend *
     _I2C1_CounterGet
     _I2C1_DataTransmit
     _I2C1_RestartDisable
     i2_I2C1_CounterSet

 _I2C1_RX_ISR (ROOT)
   _I2C1_DataReceive

 _I2C1_TX_ISR (ROOT)
   _I2C1_DataTransmit

 _DEFAULT_ISR (ROOT)

 _TMR2_ISR (ROOT)

 _U3RX_ISR (ROOT)

 _U3TX_ISR (ROOT)

 _INT0_ISR (ROOT)

 _NCO1_ISR (ROOT)

 Address spaces:
Name               Size   Autos  Total    Cost      Usage
BIGRAM            1FFF      0       0      70        0.0%
EEDATA             400      0       0       0        0.0%
BITBIGSFRllllhl    125      0       0     103        0.0%
BITBIGSFR_1        100      0       0      69        0.0%
BITBANK36          100      0       0      67        0.0%
BANK36             100      0       0      68        0.0%
BITBANK35          100      0       0      65        0.0%
BANK35             100      0       0      66        0.0%
BITBANK34          100      0       0      63        0.0%
BANK34             100      0       0      64        0.0%
BITBANK33          100      0       0      61        0.0%
BANK33             100      0       0      62        0.0%
BITBANK32          100      0       0      59        0.0%
BANK32             100      0       0      60        0.0%
BITBANK31          100      0       0      57        0.0%
BANK31             100      0       0      58        0.0%
BITBANK30          100      0       0      54        0.0%
BANK30             100      0       0      55        0.0%
BITBANK29          100      0       0      52        0.0%
BANK29             100      0       0      53        0.0%
BITBANK28          100      0       0      50        0.0%
BANK28             100      0       0      51        0.0%
BITBANK27          100      0       0      48        0.0%
BANK27             100      0       0      49        0.0%
BITBANK26          100      0       0      46        0.0%
BANK26             100      0       0      47        0.0%
BITBANK25          100      0       0      44        0.0%
BANK25             100      0       0      45        0.0%
BITBANK24          100      0       0      42        0.0%
BANK24             100      0       0      43        0.0%
BITBANK23          100      0       0      40        0.0%
BANK23             100      0       0      41        0.0%
BITBANK22          100      0       0      38        0.0%
BANK22             100      0       0      39        0.0%
BITBANK21          100      0       0      36        0.0%
BANK21             100      0       0      37        0.0%
BITBANK20          100      0       0      34        0.0%
BANK20             100      0       0      35        0.0%
BITBANK19          100      0       0      32        0.0%
BANK19             100      0       0      33        0.0%
BITBANK18          100      0       0      30        0.0%
BANK18             100      0       0      31        0.0%
BITBANK17          100      0       0      28        0.0%
BANK17             100      0       0      29        0.0%
BITBANK16          100      0       0      26        0.0%
BANK16             100      0       0      27        0.0%
BITBANK15          100      0       0      24        0.0%
BANK15             100      0       0      25        0.0%
BITBANK14          100      0       0      22        0.0%
BANK14             100      0       0      23        0.0%
BITBANK13          100      0       0      20        0.0%
BANK13             100      0       0      21        0.0%
BITBANK12          100      0       0      18        0.0%
BANK12             100      0       0      19        0.0%
BITBANK11          100      0       0      16        0.0%
BANK11             100      0       0      17        0.0%
BITBANK10          100      0       0      14        0.0%
BANK10             100      0       0      15        0.0%
BITBANK9           100      0       0      12        0.0%
BANK9              100      0       0      13        0.0%
BITBANK8           100      0       0      10        0.0%
BANK8              100      0       0      11        0.0%
BITBANK7           100      0       0       8        0.0%
BANK7              100      0       0       9        0.0%
BITBANK6           100      0       0       6        0.0%
BANK6              100      0       0       7        0.0%
BITBIGSFRlhhhhl     D8      0       0      87        0.0%
BITBANK5            A0      0       0       4        0.0%
BANK5               A0      0      10       5       10.0%
BITBIGSFRllllll     80      0       0     108        0.0%
BITCOMRAM           5F      0       1       0        1.1%
COMRAM              5F     14      4A       1       77.9%
BITBIGSFRhlhlll     57      0       0      82        0.0%
BITBIGSFRlhhhll     4C      0       0      88        0.0%
BITBIGSFRlllhlh     4B      0       0     100        0.0%
BITBIGSFRhlhlll     2D      0       0      83        0.0%
BITBIGSFRlhhhll     2A      0       0      92        0.0%
BITBIGSFRhhhh       29      0       0      71        0.0%
BITBIGSFRlllllh     24      0       0     105        0.0%
BITBIGSFRllllhl     22      0       0     104        0.0%
BITBIGSFRllhh       10      0       0      96        0.0%
BITBIGSFRhhhl        D      0       0      72        0.0%
BITBIGSFRllllhh      B      0       0     102        0.0%
BITBIGSFRhlhhhl      9      0       0      75        0.0%
BITBIGSFRlhhhhh      7      0       0      86        0.0%
BITBIGSFRhlhhlh      7      0       0      78        0.0%
BITBIGSFRlhhhll      7      0       0      90        0.0%
BITBIGSFRlhhhhh      6      0       0      85        0.0%
BITBIGSFRlllhlh      5      0       0      99        0.0%
BITBIGSFRhhll        5      0       0      73        0.0%
BITBIGSFRlllhh       4      0       0      98        0.0%
BITBIGSFRlhlhh       4      0       0      93        0.0%
BITBIGSFRllhl        4      0       0      97        0.0%
BITBIGSFRhlhlh       3      0       0      80        0.0%
BITBIGSFRlhll        3      0       0      95        0.0%
BITBIGSFRlllllh      2      0       0     107        0.0%
BITBIGSFRhlhhhl      2      0       0      76        0.0%
BITBIGSFRhlhllh      1      0       0      81        0.0%
BITBIGSFRhlhhlh      1      0       0      77        0.0%
BITBIGSFRlllllh      1      0       0     106        0.0%
BITBIGSFRhlhhhh      1      0       0      74        0.0%
BITBIGSFRlhhhll      1      0       0      89        0.0%
BITBIGSFRlhhhll      1      0       0      91        0.0%
BITBIGSFRhlhhll      1      0       0      79        0.0%
BITBIGSFRlhlhl       1      0       0      94        0.0%
BITBIGSFRlllhll      1      0       0     101        0.0%
BITBIGSFRhll         1      0       0      84        0.0%
BIGSFR_1             0      0       0     200        0.0%
BIGSFR               0      0       0     200        0.0%
BITSFR_6             0      0       0     200        0.0%
SFR_6                0      0       0     200        0.0%
BITSFR_5             0      0       0     200        0.0%
SFR_5                0      0       0     200        0.0%
BITSFR_4             0      0       0     200        0.0%
SFR_4                0      0       0     200        0.0%
BITSFR_3             0      0       0     200        0.0%
SFR_3                0      0       0     200        0.0%
BITSFR_2             0      0       0     200        0.0%
SFR_2                0      0       0     200        0.0%
BITSFR_1             0      0       0     200        0.0%
SFR_1                0      0       0     200        0.0%
BITSFR               0      0       0     200        0.0%
SFR                  0      0       0     200        0.0%
STACK                0      0       0       2        0.0%
NULL                 0      0       0       0        0.0%
ABS                  0      0      5A      56        0.0%
DATA                 0      0      5A       3        0.0%
CODE                 0      0       0       0        0.0%


Microchip Technology PIC18 Macro Assembler V2.45 build 20230818022343 
Symbol Table                                                                                   Sun Jun 09 12:10:35 2024

                   _SPI1_ByteExchange 0000                    ?i2_I2C1_CounterSet 0536  
                      I2C1_Write@data 053F                ??_I2C1_DefaultCallback 0537  
            I2C1_WriteRead@readLength 0545                       ??_I2C1_IsBusCol 0537  
         __end_of_MCP23017_Initialize 2C4C                       ??_I2C1_BusReset 0537  
                   TimerCheck@p_timer 053C                     TimerCheck@ret_val 0542  
                 ??i2_I2C1_CounterSet 0537                                   l161 2F08  
                                 l540 2A80                                   l733 28CE  
                                 l735 28D2                                   l736 28DE  
                                 _GIE 26B7                                   u710 28E6  
                                 u997 27C6             __end_of_I2C1_DataTransmit 2FCE  
                     _TMR2_Initialize 2E6C                                   tosl 04FD  
                                 wreg 04E8                ??_MCP23S17_UpdateState 0544  
                        _u8_count_out 0524                      _u8_data_spi_read 0521  
                    __end_of_I2C1_ISR 2BA2                                  l2400 2A94  
                                l2510 2996                                  l2430 2CB2  
                                l2600 2B40                                  l2434 2CC8  
                                l2442 2CA4                                  l1548 2E38  
                                l2516 29CC                                  l2540 28EA  
                                l2606 2B46                                  l1646 2D34  
                                l2542 28F4                                  l2560 2EF0  
                                l2394 2A74                                  l2386 2DF8  
                                l2546 28FA                                  l2580 26B6  
                                l2572 2688                                  l2564 2648  
                                l2586 26BC                                  l2594 2B28  
                                l2684 28B4                                  l2676 288A  
                                l2598 2B36                                  l2796 2DC6  
                   _I2C1_Deinitialize 0000                                  _LATA 04BE  
                                _T2PR 0323                                  _U3ON 1697  
                    ??_I2C1_ReadStart 0537                       ??_I2C1_StopSend 0538  
                   I2C1_Write@address 053D                                  _main 2DB0  
                                _loop 2860                                  fsr2h 04DA  
                                indf2 04DF                                  fsr2l 04D9  
           __end_ofi2_I2C1_CounterSet 2FD6                                  prodl 04F3  
                   ?i2_I2C1_StartSend 0536                                  start 0102  
                       EchoStr@p_data 053D                       __end_of_EchoStr 2CE0  
                    ?_NCO1_Initialize 0536                    ??i2_I2C1_StartSend 0536  
                        ___param_bank 0000                            _i2c1Status 0511  
                         ?_UART3_Read 0536                      __end_of_NCO1_ISR 3030  
                   ??_I2C1_CounterGet 0537                     ??_I2C1_CounterSet 053C  
                    __end_of_INT0_ISR 3022                     ?_I2C1_BufferClear 0536  
                   __end_of_I2C1_Host 2549                      __end_of_U3RX_ISR 2E6C  
                               ?_main 0536                      __end_of_U3TX_ISR 2E22  
                               ?_loop 0536              i2I2C1_CounterSet@counter 0537  
                               _T2CON 0324                                 _LATA4 25F4  
                               _LATA5 25F5                                 _LATA6 25F6  
                               _LATC2 2602                                 _LATC3 2603  
                               _LATC7 2607                                 _U3BRG 02D4  
                               _T2HLT 0325                                 _T2TMR 0322  
                               _T2RST 0327                                 _U3RXB 02C7  
                               i2l171 2B72                                 i2l420 2E1E  
                               i2l173 2B92                                 _U3TXB 02C9  
                               i2l189 2744                    ??_I2C1_BufferClear 0537  
                       _au8_rx_buffer 0501                          _u8_state_i2c 0523  
                               _TRISA 04C6                                 _WPUB0 2048  
                               _WPUB1 2049                                 _WPUB2 204A  
                        _u8_state_spi 0522                      ??_I2C1_StartSend 053C  
                   ??_I2C1_Initialize 053F                         _au8_tx_buffer 0560  
                    __end_of_TMR2_ISR 301A                    MCP23S17_Write@data 0542  
             ??_I2C1_CallbackRegister 053F                                 _setup 27F2  
            ??_I2C1_InterruptsDisable 0537                        __pbitbssCOMRAM 2A50  
                               pclath 04FA                      ??_I2C1_WriteRead 0547  
                               pclatu 04FB                                 tablat 04F5  
               I2C1_DataTransmit@data 053A                   request_in@data_recv 0540  
                               status 04D8                          ??_I2C1_Close 0536  
                      TimerCheck@time 053E                          ??_I2C1_Write 0543  
                     __initialization 2CE0                          __end_of_main 2DD6  
                   _I2C1_IsBusTimeOut 2F9E                          __end_of_loop 28C6  
                  ?_I2C1_IsBusTimeOut 0536               __end_of_TMR2_Initialize 2E8C  
                      _MCP23017_Write 2C7E                          ?_UART3_Write 0536  
                              ??_main 054A                                ??_loop 0549  
                       __activetblptr 0003                   ??_I2C1_IsBusTimeOut 0537  
I2C1_CallbackRegister@callbackHandler 053C                    __end_of_I2C1_Close 2DB0  
               _I2C1_InterruptsEnable 2F34                    __end_of_I2C1_Write 2B26  
               __end_of_MCP23S17_Read 2D88                                ?_setup 0536  
                              _ANSELA 0400                                _RC3I2C 0287  
                              _RA4PPS 0205                                _RA5PPS 0206  
                              _RA6PPS 0207                                _RC2PPS 0213  
                              _INT0IE 24F8                                _INT0IF 2578  
                              _RC3PPS 0214                                _RC4PPS 0215  
                              _RC6PPS 0217                                _ODCONC 0412  
                              i2l2620 2EB6                                i2l2736 2B8C  
                              i2l2754 26FA                                i2l2764 271A  
                              i2l2780 2746                                i2l2774 2732  
                              _U3RXIE 2538                                _U3RXEN 168C  
                              _U3TXIE 2539                                _U3TXEN 168D  
                           ??_EchoStr 053E                                _OSCFRQ 00B1  
                              _TMR2IF 258B                   _au8_data_spi_buffer 052C  
                              _TRISB0 2638                                _TRISB1 2639  
                              _TRISB2 263A                                _TRISA4 2634  
                              _TRISA5 2635                                _TRISC2 2642  
                              _TRISA6 2636                                _TRISA7 2637  
                              _TRISC3 2643                                _TRISC4 2644  
                              _TRISC5 2645                                _TRISC6 2646  
                              _TRISC7 2647          __end_of_MCP23017_UpdateState 26DA  
                      _u16_timer_200m 0531             __end_of_I2C1_IsBusTimeOut 2FAA  
                   __end_of_SPI1_Host 252B                     __end_of_SPI1_Open 2646  
                      _acu8_msg_awake 2563                        _acu8_msg_reset 2576  
                          _TimerCheck 2980                __end_of_MCP23017_Write 2CB0  
                          _TimerStart 2F6A                    _I2C1_RestartEnable 2FFC  
                           ?_I2C1_ISR 0536                                clear_0 2CE6  
                              clear_1 2CF4                                isa$std 0001  
                 ?_I2C1_RestartEnable 0536                     ??_I2C1_WriteStart 053D  
                        __mediumconst 0000                      _UART3_Initialize 29D0  
                              tblptrh 04F7                                tblptrl 04F6  
                              tblptru 04F8                       _CLC1_Initialize 292A  
                      _SPI1_IsRxReady 0000                        _SPI1_IsTxReady 0000  
                           ?_NCO1_ISR 0536                         ??_I2C1_RX_ISR 053A  
                          __accesstop 0560               __end_of__initialization 2D08  
                       ??_I2C1_TX_ISR 053B                         ??_I2C1_IsAddr 0537  
                       ??_I2C1_IsData 0537                             ?_INT0_ISR 0536  
                       ??_I2C1_IsNack 0537                         ??_I2C1_IsBusy 053C  
                      _SPI1_ByteWrite 0000                         ___rparam_used 0001  
                           ?_U3RX_ISR 0536                __end_of_acu8_msg_awake 2576  
                           ?_U3TX_ISR 0536                  ??_I2C1_RestartEnable 053C  
              __end_of_acu8_msg_reset 2589                        __pcstackCOMRAM 0536  
                          _u8_rx_head 052A                       ?_MCP23017_Write 0543  
                           ?_TMR2_ISR 0536                            _u8_rx_tail 0529  
                          _u8_tx_head 0527                        ivt0x8_undefint 0100  
                          _u8_tx_tail 0526                     ??_SPI1_Initialize 053C  
                       __end_of_setup 2860                       _I2C1_IsBusy$613 053C  
                          ??_I2C1_ISR 0537                      ?_TMR2_Initialize 0536  
                  _spi1_configuration 2559                        _MCP23S17_Write 2D38  
                         loop@chk_val 0549                ?_I2C1_InterruptsEnable 0536  
                             ??_setup 0545                            __pbssBANK5 0560  
                          ??_NCO1_ISR 053C                            ??_INT0_ISR 053C  
                     _I2C1_CounterGet 3026                       _I2C1_CounterSet 2FB6  
                          ??_U3RX_ISR 053B                            ??_U3TX_ISR 053C  
                             IVTBASEH 045E                               IVTBASEL 045D  
                             IVTBASEU 045F                      EchoHex@hex_table 2549  
                 __end_of_I2C1_RX_ISR 2F20                   __end_of_I2C1_TX_ISR 2F34  
                 __end_of_I2C1_IsAddr 2FB6                   __end_of_I2C1_IsData 2F9E  
                 _MCP23S17_Initialize 2BA2                   __end_of_I2C1_IsNack 2F92  
                 __end_of_I2C1_IsBusy 2F0C                               _I2C1CLK 029C  
                         ?_TimerCheck 053C                               _I2C1CNT 028D  
                             _I2C1ERR 0297                               _I2C1PIE 029B  
                             _I2C1PIR 029A                          ??_UART3_Read 053C  
                             _I2C1RXB 028B                               _I2C1TXB 028C  
                          ??_TMR2_ISR 053B                       _I2C1_Initialize 276E  
                         ?_TimerStart 053C                _I2C1_InterruptsDisable 2F58  
                        U3RX_ISR@data 053B                               _CLCDATA 00D4  
               __end_of_I2C1_IsBusCol 2F86                               _ANSELB0 2040  
                             _ANSELB1 2041                               _ANSELB2 2042  
                             _ANSELA4 2004                               _ANSELA5 2005  
                             _ANSELC2 2082                               _ANSELA6 2006  
                             _ANSELA7 2007                               _ANSELC3 2083  
                             _ANSELC4 2084                               _ANSELC5 2085  
                             _ANSELC6 2086                               _ANSELC7 2087  
                             _CLCnCON 00D6                __end_of_MCP23S17_Write 2D60  
               __end_of_I2C1_BusReset 2C18                               _CLCnPOL 00D7  
                             _NCO1CLK 0447                               _NCO1CON 0446  
             __end_of_CLC1_Initialize 2980                               _INT0EDG 26B0  
                       ??_DEFAULT_ISR 053B                             _I2C1STAT1 0299  
                _MCP23017_UpdateState 2646                 I2C1_WriteRead@address 053D  
                             _U3RXPPS 0276                    MCP23017_Write@data 0543  
                           _I2C1_Read 0000                             _I2C1_Host 252B  
             i2_I2C1_InterruptsEnable 2F46                               _SPI1CLK 008C  
                             i2u30_40 2FA6                               i2u25_40 2F82  
                             i2u26_40 2FB2                               _SPI1RXB 0080  
                             i2u28_40 2F8E                               _SPI1TXB 0081  
                             i2u29_40 2F9A                  ?_MCP23S17_Initialize 0536  
                             i2u83_40 2B6C                               i2u96_48 2750  
                             i2u96_49 2764                         ??_CLC1_Enable 053C  
       __end_of_I2C1_CallbackRegister 2EDC                               _EchoStr 2CB0  
                  __end_of_UART3_Read 2D38                 __end_of_I2C1_StopSend 2EA8  
                           _CLCIN2PPS 0263                             _CLCIN3PPS 0264  
                             __Hparam 0000                               __Lparam 0000  
                           _CLCSELECT 00D5         SPI1_BufferExchange@bufferData 053C  
                        __psmallconst 2500         SPI1_BufferExchange@bufferSize 053E  
        __end_of_I2C1_InterruptsClear 2FE6                               __pcinit 2CE0  
      SPI1_BufferExchange@bufferInput 0540                               __ramtop 2500  
                             __ptext0 2DB0                               __ptext1 27F2  
                             __ptext2 29D0                               __ptext3 2A16  
                             __ptext4 2C4C                               __ptext5 2BA2  
                             __ptext6 258A                               __ptext7 2C18  
                             __ptext8 2C7E                               __ptext9 276E  
                     ?_MCP23S17_Write 0542                 ?_MCP23017_UpdateState 0536  
                I2C1_Write@dataLength 0541                   _I2C1_RestartDisable 3002  
                         _I2C1ERRbits 0297                           _I2C1PIEbits 029B  
               ??_MCP23S17_Initialize 0544                           _I2C1PIRbits 029A  
                     UART3_Write@data 053C               __end_of_I2C1_CounterGet 302A  
             __end_of_I2C1_CounterSet 2FBE                   __end_of_DEFAULT_ISR 3036  
                end_of_initialization 2D08                           _I2C1_RX_ISR 2F0C  
                         _I2C1_TX_ISR 2F20                           _I2C1_IsAddr 2FAA  
                         _I2C1_IsData 2F92                           _I2C1_IsNack 2F86  
                 __end_of_CLC1_Enable 3026                           _I2C1_IsBusy 2EF4  
               I2C1_AddrTransmit@addr 053C                  ?_I2C1_RestartDisable 0536  
             __end_of_I2C1_Initialize 27F2                        _u8_sys_counter 052B  
            __end_of_UART3_Initialize 2A16                       _SPI1_BufferRead 0000  
                           _SPI1TCNTH 0083                             _SPI1TCNTL 0082  
                             postdec2 04DD                               postinc0 04EE  
                             postinc2 04DE                      _I2C1_DataReceive 300E  
                     _I2C1_WriteStart 2E22                            _request_in 28C6  
                           _SPI1_Host 2501                             _SPI1_Open 258A  
                 _SPI1_BufferExchange 2A5A             ??i2_I2C1_InterruptsEnable 0537  
                    ?_CLC1_Initialize 0536                             _TRISCbits 04C8  
                          _update_out 2EDC                  ?_SPI1_BufferExchange 053C  
                     _SPI1_Initialize 2A16                 ??_I2C1_RestartDisable 0537  
                    ??_MCP23017_Write 0544                        _I2C1_ERROR_ISR 26DC  
                          ?_SPI1_Open 0536                           _u8_rx_count 0528  
                        _u16_timer_1s 0533                           _u8_tx_count 0525  
              ??_MCP23017_UpdateState 0547                   i2_I2C1_AddrTransmit 2FD6  
                    i2_I2C1_StartSend 3008               ??_I2C1_InterruptsEnable 053C  
                         _DEFAULT_ISR 3034                   start_initialization 2CE0  
            __end_ofEchoHex@hex_table 2559                     ??_NCO1_Initialize 053C  
             I2C1_WriteRead@writeData 053F                           _CLC1_Enable 3022  
                    ?_I2C1_CounterGet 0536                      ?_I2C1_CounterSet 0536  
                          ivt0x8_base 0008                      _I2C1_BufferClear 2FEE  
               ??_SPI1_BufferExchange 0540                  ?i2_I2C1_AddrTransmit 0536  
                _I2C1_InterruptsClear 2FDE               __end_of_I2C1_WriteStart 2E46  
                    ?_I2C1_Initialize 0536                   _MCP23017_Initialize 2C18  
              __end_of_I2C1_ERROR_ISR 276E               ?_I2C1_InterruptsDisable 0536  
                   TimerStart@p_timer 053C                          ??_TimerCheck 0540  
                         ?_request_in 0536                          ??_TimerStart 053E  
        __end_of_I2C1_ErrorFlagsClear 2FEE                         _SPI1_ByteRead 0000  
                         __pbssCOMRAM 0501                  ?_MCP23017_Initialize 0536  
                         ?_update_out 0536               __end_of_SPI1_Initialize 2A5A  
        __end_of_I2C1_DefaultCallback 3032                         _MCP23S17_Read 2D60  
                      UART3_Read@data 053C                    __end_of_TimerCheck 29D0  
                            ?_EchoStr 053D                 ??i2_I2C1_AddrTransmit 0536  
               ?_I2C1_InterruptsClear 0536               i2I2C1_AddrTransmit@addr 0536  
                  __end_of_TimerStart 2F78        __end_of_I2C1_InterruptsDisable 2F6A  
              MCP23S17_Write@reg_addr 0543                       ?_I2C1_ERROR_ISR 0536  
        __end_of_MCP23S17_UpdateState 2B64                        _I2C1_ReadStart 2EA8  
                         _CLCnCONbits 00D6                             _bit_state 2A50  
                    ??_MCP23S17_Write 0543                              _I2C1ADB1 028F  
                         ??_SPI1_Open 053C                              _I2C1CON0 0294  
                            _I2C1CON1 0295                              _I2C1CON2 0296  
                            _I2C1_ISR 2B64                         ??_UART3_Write 053C  
                         __smallconst 2500                 ??_MCP23017_Initialize 0545  
              I2C1_CounterSet@counter 053C              __end_of_I2C1_DataReceive 3014  
                            _T2CLKCON 0326                              _CLCnGLS0 00DC  
                            _CLCnGLS1 00DD                              _CLCnGLS2 00DE  
                            _CLCnGLS3 00DF                        ?_MCP23S17_Read 0536  
                            _CLCnSEL0 00D8                              _CLCnSEL1 00D9  
                            _CLCnSEL2 00DA                              _CLCnSEL3 00DB  
                            _NCO1ACCH 0441                              _NCO1ACCL 0440  
                            _NCO1ACCU 0442                              _NCO1INCH 0444  
                          _I2C1SDAPPS 0270                              _NCO1INCL 0443  
                            _NCO1INCU 0445                            _I2C1SCLPPS 0271  
                            _NCO1_ISR 302C                 MCP23S17_Read@reg_addr 0536  
                      _I2C1_StartSend 2FF6                          ?_I2C1_RX_ISR 0536  
                            _INT0_ISR 301C                          ?_I2C1_TX_ISR 0536  
                        ?_I2C1_IsAddr 0536                          ?_I2C1_IsData 0536  
                        ?_I2C1_IsNack 0536                          ?_I2C1_IsBusy 0536  
               _I2C1_CallbackRegister 2EC4                              _U3RX_ISR 2E48  
                            _PIE3bits 04A1                      ?_I2C1_WriteStart 0536  
                            _U3TX_ISR 2DFC                              _PIE7bits 04A5  
                          _I2C1_Close 2D88                          _SPI1CON0bits 0084  
              __end_of_I2C1_ReadStart 2EC4                              i2u100_47 2BFC  
                       _I2C1STAT0bits 0298                         _I2C1STAT1bits 0299  
                            _SPI1BAUD 0089                              _PIR3bits 04B1  
                            _SPI1CON0 0084                              _SPI1CON1 0085  
                            _SPI1CON2 0086                              _PIR6bits 04B4  
                          _I2C1_Write 2AE2                        _I2C1_WriteRead 2A9E  
                   ?_UART3_Initialize 0536                              _TMR2_ISR 3014  
                  ??_UART3_Initialize 053C                          _SPI1INTFbits 008A  
              I2C1_WriteRead@readData 0543           __end_of_MCP23S17_Initialize 2BDE  
                   _SPI1_Deinitialize 0000                   __end_of_UART3_Write 2DFC  
                    ?_SPI1_Initialize 0536                __end_of_I2C1_StartSend 2FFC  
              ??_I2C1_InterruptsClear 0537                     ??_TMR2_Initialize 053C  
            __end_ofi2_I2C1_StartSend 300E                  _I2C1_ErrorFlagsClear 2FE6  
              __end_of_I2C1_WriteRead 2AE2                              __Hrparam 0000  
                     ?_I2C1_ReadStart 0536                              __Lrparam 0000  
                       _I2C1_Callback 051E                       _NCO1_Initialize 2C4C  
            __end_of_I2C1_BufferClear 2FF6                  _I2C1_DefaultCallback 3030  
                       _I2C1_IsBusCol 2F78                         _I2C1_BusReset 2BDE  
              MCP23017_Write@reg_addr 0544                          ?_DEFAULT_ISR 0536  
       __end_of_I2C1_InterruptsEnable 2F46                          _I2C1CON0bits 0294  
                        _I2C1CON1bits 0295                              __pivt0x8 0008  
                            _bit_flag 2A51                         _I2C1_ErrorGet 0000  
                     ??_MCP23S17_Read 0542                              __ptext10 2F34  
                            __ptext11 2EC4                              __ptext20 2F6A  
                            __ptext12 292A                              __ptext21 2980  
                            __ptext13 3022                              __ptext30 2FF6  
                            __ptext22 2B26                              __ptext14 2860  
                            __ptext31 2FFC                              __ptext23 2D38  
                            __ptext15 2EDC                              __ptext40 3026  
                            __ptext32 2FB6                              __ptext24 2D60  
                            __ptext16 28C6                              __ptext41 2EA8  
                            __ptext33 2FBE                              __ptext25 2A5A  
                            __ptext17 2D0E                              __ptext50 2F86  
                            __ptext42 3008                              __ptext34 2EF4  
                            __ptext26 2646                              __ptext18 2CB0  
                            __ptext51 2F92                              __ptext43 2FCE  
                            __ptext35 2E6C                              __ptext27 2A9E  
                            __ptext19 2DD6                              __ptext60 300E  
                            __ptext52 2F9E                              __ptext44 2FD6  
                            __ptext36 2B64                              __ptext28 2AE2  
                            __ptext61 2F20                              __ptext53 2F78  
                            __ptext45 2D88                              __ptext37 2E8C  
                            __ptext29 2E22                              __ptext62 3034  
                            __ptext54 2FAA                              __ptext46 2FDE  
                            __ptext38 3002                              __ptext63 3014  
                            __ptext55 3030                              __ptext47 2FE6  
                            __ptext39 2FC6                              __ptext64 2E48  
                            __ptext56 2BDE                              __ptext48 2FEE  
                            __ptext65 2DFC                              __ptext57 2F46  
                            __ptext49 26DC                              __ptext66 301C  
                            __ptext58 2F58                              __ptext67 302C  
                            __ptext59 2F0C                              __ptext68 0000  
                        ?_CLC1_Enable 0536                  _MCP23S17_UpdateState 2B26  
         __end_of_I2C1_RestartDisable 3008                       ?_I2C1_StartSend 0536  
              ?_I2C1_CallbackRegister 053C                     _I2C1_AddrTransmit 2FBE  
               ?_I2C1_ErrorFlagsClear 0536                           ?_I2C1_Close 0536  
                     ?_I2C1_WriteRead 053D                    ?_I2C1_AddrTransmit 0536  
                       _I2C1_StopSend 2E8C                           ?_I2C1_Write 053D  
                            isa$xinst 0000                          ??_request_in 053E  
            ?i2_I2C1_InterruptsEnable 0536                   ??_I2C1_AddrTransmit 053C  
           I2C1_WriteRead@writeLength 0541                 ?_I2C1_DefaultCallback 0536  
                      ?_I2C1_IsBusCol 0536                           _UART3_Write 2DD6  
                      ?_I2C1_BusReset 0536                          ??_update_out 053D  
         __end_of_SPI1_BufferExchange 2A9E                 ?_MCP23S17_UpdateState 0536  
                            intlevel2 0000             __end_of_I2C1_AddrTransmit 2FC6  
                  __end_of_request_in 292A                    _au8_data_i2c_write 052F  
                    ??_I2C1_ERROR_ISR 0538            __end_of_I2C1_RestartEnable 3002  
                      ?_I2C1_StopSend 0536               __end_of_NCO1_Initialize 2C7E  
                          _SPI1SCKPPS 026A                            _SPI1SDIPPS 026B  
                    _SPI1_BufferWrite 0000                            _UART3_Read 2D0E  
                  __end_of_update_out 2EF4                      _u8_data_i2c_read 0535  
                          _SPI1_Close 0000           __end_ofi2_I2C1_AddrTransmit 2FDE  
                   _I2C1_DataTransmit 2FC6                    ?_I2C1_DataTransmit 0536  
                   ?_I2C1_DataReceive 0536                ??_I2C1_ErrorFlagsClear 0537  
                  ??_I2C1_DataReceive 053A               SPI1_Open@spiConfigIndex 053E  
                 ??_I2C1_DataTransmit 053A                     ??_CLC1_Initialize 053C  
                   i2_I2C1_CounterSet 2FCE       __end_ofi2_I2C1_InterruptsEnable 2F58  
          __end_of_spi1_configuration 2563  
