

Microchip MPLAB XC8 Assembler V2.45 build 20230818022343 
                                                                                               Sat May 25 15:35:30 2024

Microchip MPLAB XC8 C Compiler v2.45 (Free license) build 20230818022343 Og9 
     1                           	processor	18F47Q43
     2                           	fnconf	rparam,??,?,0
     3                           	pagewidth 120
     4                           	opt	flic
     5                           	psect	smallconst,global,reloc=2,class=SMALLCONST,delta=1,noexec
     6                           	psect	bitnvCOMRAM,global,bit,class=COMRAM,space=1,delta=1,lowdata,noexec
     7                           	psect	cinit,global,reloc=2,class=CODE,delta=1
     8                           	psect	bitbssCOMRAM,global,bit,class=COMRAM,space=1,delta=1,lowdata,noexec
     9                           	psect	bssCOMRAM,global,class=COMRAM,space=1,delta=1,lowdata,noexec
    10                           	psect	cstackCOMRAM,global,class=COMRAM,space=1,delta=1,lowdata,noexec
    11                           	psect	text0,global,reloc=2,class=CODE,delta=1
    12                           	psect	text1,global,reloc=2,class=CODE,delta=1
    13                           	psect	text2,global,reloc=2,class=CODE,delta=1
    14                           	psect	text3,global,reloc=2,class=CODE,delta=1
    15                           	psect	text4,global,reloc=2,class=CODE,delta=1
    16                           	psect	text5,global,reloc=2,class=CODE,delta=1
    17                           	psect	text6,global,reloc=2,class=CODE,delta=1
    18                           	psect	text7,global,reloc=2,class=CODE,delta=1
    19                           	psect	text8,global,reloc=2,class=CODE,delta=1
    20                           	psect	text9,global,reloc=2,class=CODE,delta=1
    21                           	psect	text10,global,reloc=2,class=CODE,delta=1
    22                           	psect	text11,global,reloc=2,class=CODE,delta=1
    23                           	psect	text12,global,reloc=2,class=CODE,delta=1
    24                           	psect	text13,global,reloc=2,class=CODE,delta=1
    25                           	psect	text14,global,reloc=2,class=CODE,delta=1
    26                           	psect	text15,global,reloc=2,class=CODE,delta=1
    27                           	psect	text16,global,reloc=2,class=CODE,delta=1
    28                           	psect	text17,global,reloc=2,class=CODE,delta=1
    29                           	psect	text18,global,reloc=4,class=CODE,delta=1
    30                           	psect	text19,global,reloc=4,class=CODE,delta=1
    31                           	psect	text20,global,reloc=4,class=CODE,delta=1
    32                           	psect	text21,global,reloc=4,class=CODE,delta=1
    33                           	psect	text22,global,reloc=4,class=CODE,delta=1
    34                           	psect	ivt0x8,global,reloc=2,class=CODE,delta=1,noexec,keep,optim=
    35                           	psect	intsave_regs,global,class=BIGRAM,space=1,delta=1,noexec
    36                           	psect	rparam,global,class=COMRAM,space=1,delta=1,noexec
    37                           	psect	config,global,abs,ovrld,class=CONFIG,space=4,delta=1,noexec
    38   000000                     
    39                           ; Generated 18/07/2023 GMT
    40                           ; 
    41                           ; Copyright © 2023, Microchip Technology Inc. and its subsidiaries ("Microchip")
    42                           ; All rights reserved.
    43                           ; 
    44                           ; This software is developed by Microchip Technology Inc. and its subsidiaries ("Microch
      +                          ip").
    45                           ; 
    46                           ; Redistribution and use in source and binary forms, with or without modification, are
    47                           ; permitted provided that the following conditions are met:
    48                           ; 
    49                           ;     1. Redistributions of source code must retain the above copyright notice, this lis
      +                          t of
    50                           ;        conditions and the following disclaimer.
    51                           ; 
    52                           ;     2. Redistributions in binary form must reproduce the above copyright notice, this 
      +                          list
    53                           ;        of conditions and the following disclaimer in the documentation and/or other
    54                           ;        materials provided with the distribution. Publication is not required when
    55                           ;        this file is used in an embedded application.
    56                           ; 
    57                           ;     3. Microchip's name may not be used to endorse or promote products derived from th
      +                          is
    58                           ;        software without specific prior written permission.
    59                           ; 
    60                           ; THIS SOFTWARE IS PROVIDED BY MICROCHIP "AS IS" AND ANY EXPRESS OR IMPLIED WARRANTIES,
    61                           ; INCLUDING, BUT NOT LIMITED TO, THE IMPLIED WARRANTIES OF MERCHANTABILITY AND FITNESS F
      +                          OR
    62                           ; PURPOSE ARE DISCLAIMED.  IN NO EVENT SHALL MICROCHIP BE LIABLE FOR ANY DIRECT, INDIREC
      +                          T,
    63                           ; INCIDENTAL, SPECIAL, EXEMPLARY, OR CONSEQUENTIAL DAMAGES (INCLUDING BUT NOT LIMITED TO
    64                           ; PROCUREMENT OF SUBSTITUTE GOODS OR SERVICES; LOSS OF USE, DATA OR PROFITS; OR BUSINESS
    65                           ; INTERRUPTION) HOWSOEVER CAUSED AND ON ANY THEORY OF LIABILITY, WHETHER IN CONTRACT, ST
      +                          RICT
    66                           ; LIABILITY, OR TORT (INCLUDING NEGLIGENCE OR OTHERWISE) ARISING IN ANY WAY OUT OF THE U
      +                          SE OF
    67                           ; THIS SOFTWARE, EVEN IF ADVISED OF THE POSSIBILITY OF SUCH DAMAGE.
    68                           ; 
    69                           ; 
    70                           ; Code-generator required, PIC18F47Q43 Definitions
    71                           ; 
    72                           ; SFR Addresses
    73   000000                     
    74                           	psect	smallconst
    75   002500                     __psmallconst:
    76                           	callstack 0
    77   002500  00                 	db	0
    78   002501                     EchoHex@hex_table:
    79                           	callstack 0
    80   002501  30                 	db	48
    81   002502  31                 	db	49
    82   002503  32                 	db	50
    83   002504  33                 	db	51
    84   002505  34                 	db	52
    85   002506  35                 	db	53
    86   002507  36                 	db	54
    87   002508  37                 	db	55
    88   002509  38                 	db	56
    89   00250A  39                 	db	57
    90   00250B  41                 	db	65
    91   00250C  42                 	db	66
    92   00250D  43                 	db	67
    93   00250E  44                 	db	68
    94   00250F  45                 	db	69
    95   002510  46                 	db	70
    96   002511                     __end_ofEchoHex@hex_table:
    97                           	callstack 0
    98   000000                     _T2CON	set	804
    99   000000                     _PWM1CON	set	1129
   100   000000                     _PWM1S1CFG	set	1130
   101   000000                     _PWM1GIE	set	1128
   102   000000                     _PWM1GIR	set	1127
   103   000000                     _PWM1PIPOS	set	1126
   104   000000                     _PWM1CPRE	set	1125
   105   000000                     _PWM1PRH	set	1124
   106   000000                     _PWM1PRL	set	1123
   107   000000                     _PWM1LDS	set	1122
   108   000000                     _PWM1CLK	set	1121
   109   002511                     STR_1:
   110   002511  0D                 	db	13
   111   002512  0A                 	db	10
   112   002513  00                 	db	0
   113   002514  00                 	db	0	; dummy byte at the end
   114   000000                     
   115                           	psect	bitnvCOMRAM
   116   0029C0                     __pbitnvCOMRAM:
   117                           	callstack 0
   118   0029C0                     _bit_state:
   119                           	callstack 0
   120   0029C0                     	ds	1
   121   000000                     _U3TXEN	set	5773
   122   000000                     _ANSELA	set	1024
   123   000000                     _ANSELB4	set	8260
   124   000000                     _ANSELA6	set	8198
   125   000000                     _PIR3bits	set	1201
   126   000000                     _PWM1CONbits	set	1129
   127   000000                     _PWM1GIRbits	set	1127
   128   000000                     _TRISA	set	1222
   129   000000                     _LATA	set	1214
   130   000000                     _TRISB4	set	9788
   131   000000                     _TRISC1	set	9793
   132   000000                     _GIE	set	9911
   133   000000                     _U3RXIE	set	9528
   134   000000                     _TRISA6	set	9782
   135   000000                     _OSCFRQ	set	177
   136   000000                     _RA6PPS	set	519
   137   000000                     _U3RXPPS	set	630
   138   000000                     _U3RXB	set	711
   139   000000                     _U3TXB	set	713
   140   000000                     _U3BRG	set	724
   141   000000                     _U3RXEN	set	5772
   142   000000                     _U3TXIE	set	9529
   143   000000                     _INT0IF	set	9592
   144   000000                     _LATA6	set	9718
   145   000000                     _TRISA7	set	9783
   146   000000                     _T2TMR	set	802
   147   000000                     _T2PR	set	803
   148   000000                     _T2HLT	set	805
   149   000000                     _T2CLKCON	set	806
   150   000000                     _ADRESL	set	1002
   151   000000                     _ADRESH	set	1003
   152   000000                     _ADPCH	set	1004
   153   000000                     _ADCON0bits	set	1011
   154   000000                     _ANSELA7	set	8199
   155   000000                     _U3ON	set	5783
   156   000000                     _ANSELB0	set	8256
   157   000000                     _TRISC0	set	9792
   158   000000                     _INT0EDG	set	9904
   159   000000                     _TRISB0	set	9784
   160   000000                     _RC0PPS	set	529
   161   000000                     _PIR4bits	set	1202
   162   000000                     _TMR2IF	set	9611
   163   000000                     _PWM1ERS	set	1120
   164   000000                     _INT0IE	set	9464
   165   000000                     _WPUB0	set	8264
   166   000000                     _PIE3bits	set	1185
   167   000000                     _PIE4bits	set	1186
   168   000000                     _RC1PPS	set	530
   169   000000                     _PWM1S1P2H	set	1134
   170   000000                     _PWM1S1P2L	set	1133
   171   000000                     _PWM1S1P1H	set	1132
   172   000000                     _PWM1S1P1L	set	1131
   173   000000                     _T2RST	set	807
   174                           
   175                           ; #config settings
   176                           
   177                           	psect	cinit
   178   00284C                     __pcinit:
   179                           	callstack 0
   180   00284C                     start_initialization:
   181                           	callstack 0
   182   00284C                     __initialization:
   183                           	callstack 0
   184                           
   185                           ; Clear objects allocated to BITCOMRAM (1 bytes)
   186   00284C  6A39               	clrf	(__pbitbssCOMRAM/(0+8))& (0+255),c
   187                           
   188                           ; Clear objects allocated to COMRAM (46 bytes)
   189   00284E  EE01  F101         	lfsr	0,__pbssCOMRAM
   190   002852  0E2E               	movlw	46
   191   002854                     clear_0:
   192   002854  6AEE               	clrf	postinc0,c
   193   002856  06E8               	decf	wreg,f,c
   194   002858  E1FD               	bnz	clear_0
   195                           
   196                           ;
   197                           ; Setup IVTBASE
   198                           ;
   199   00285A  0104               	movlb	4
   200   00285C  0E08               	movlw	(ivt0x8_base shr 0)& (0+255)
   201   00285E  6F5D               	movwf	93,b
   202   002860  0E00               	movlw	(ivt0x8_base shr (0+8))& (0+255)
   203   002862  6F5E               	movwf	94,b
   204   002864  0E00               	movlw	(ivt0x8_base shr (0+16))& (0+255)
   205   002866  6F5F               	movwf	95,b
   206   002868                     end_of_initialization:
   207                           	callstack 0
   208   002868                     __end_of__initialization:
   209                           	callstack 0
   210   002868  0100               	movlb	0
   211   00286A  EF37  F014         	goto	_main	;jump to C main() function
   212                           
   213                           	psect	bitbssCOMRAM
   214   0029C8                     __pbitbssCOMRAM:
   215                           	callstack 0
   216   0029C8                     _bit_flag:
   217                           	callstack 0
   218   0029C8                     	ds	1
   219                           
   220                           	psect	bssCOMRAM
   221   000501                     __pbssCOMRAM:
   222                           	callstack 0
   223   000501                     _au8_tx_buffer:
   224                           	callstack 0
   225   000501                     	ds	16
   226   000511                     _au8_rx_buffer:
   227                           	callstack 0
   228   000511                     	ds	16
   229   000521                     _u16_data_adcc:
   230                           	callstack 0
   231   000521                     	ds	2
   232   000523                     _u8_sys_counter:
   233                           	callstack 0
   234   000523                     	ds	1
   235   000524                     _u8_count_out:
   236                           	callstack 0
   237   000524                     	ds	1
   238   000525                     _u8_tx_count:
   239                           	callstack 0
   240   000525                     	ds	1
   241   000526                     _u8_tx_tail:
   242                           	callstack 0
   243   000526                     	ds	1
   244   000527                     _u8_tx_head:
   245                           	callstack 0
   246   000527                     	ds	1
   247   000528                     _u8_rx_count:
   248                           	callstack 0
   249   000528                     	ds	1
   250   000529                     _u8_rx_tail:
   251                           	callstack 0
   252   000529                     	ds	1
   253   00052A                     _u8_rx_head:
   254                           	callstack 0
   255   00052A                     	ds	1
   256   00052B                     _u16_timer_200m:
   257                           	callstack 0
   258   00052B                     	ds	2
   259   00052D                     _u16_timer_1s:
   260                           	callstack 0
   261   00052D                     	ds	2
   262                           
   263                           	psect	cstackCOMRAM
   264   00052F                     __pcstackCOMRAM:
   265                           	callstack 0
   266   00052F                     U3RX_ISR@data:
   267                           	callstack 0
   268                           
   269                           ; 1 bytes @ 0x0
   270   00052F                     	ds	1
   271   000530                     ?_ADCC_GetSingleConversion:
   272                           	callstack 0
   273   000530                     UART3_Read@data:
   274                           	callstack 0
   275   000530                     UART3_Write@data:
   276                           	callstack 0
   277   000530                     PWM1_SetSlice1Output2DutyCycleRegister@value:
   278                           	callstack 0
   279   000530                     TimerStart@p_timer:
   280                           	callstack 0
   281   000530                     TimerCheck@p_timer:
   282                           	callstack 0
   283                           
   284                           ; 2 bytes @ 0x1
   285   000530                     	ds	1
   286   000531                     ??_EchoHex:
   287   000531                     ??_request_in:
   288   000531                     EchoStr@p_data:
   289                           	callstack 0
   290                           
   291                           ; 1 bytes @ 0x2
   292   000531                     	ds	1
   293   000532                     ??_ADCC_GetSingleConversion:
   294   000532                     TimerCheck@time:
   295                           	callstack 0
   296                           
   297                           ; 2 bytes @ 0x3
   298   000532                     	ds	1
   299   000533                     request_in@data_recv:
   300                           	callstack 0
   301   000533                     EchoHex@data:
   302                           	callstack 0
   303                           
   304                           ; 1 bytes @ 0x4
   305   000533                     	ds	1
   306   000534                     
   307                           ; 1 bytes @ 0x5
   308   000534                     	ds	2
   309   000536                     TimerCheck@ret_val:
   310                           	callstack 0
   311                           
   312                           ; 1 bytes @ 0x7
   313   000536                     	ds	1
   314   000537                     loop@chk_val:
   315                           	callstack 0
   316                           
   317                           ; 1 bytes @ 0x8
   318   000537                     	ds	1
   319   000538                     
   320                           ; 1 bytes @ 0x9
   321 ;;
   322 ;;Main: autosize = 0, tempsize = 0, incstack = 0, save=0
   323 ;;
   324 ;; *************** function _main *****************
   325 ;; Defined at:
   326 ;;		line 83 in file "mmc/system.c"
   327 ;; Parameters:    Size  Location     Type
   328 ;;		None
   329 ;; Auto vars:     Size  Location     Type
   330 ;;		None
   331 ;; Return value:  Size  Location     Type
   332 ;;                  1    wreg      void 
   333 ;; Registers used:
   334 ;;		wreg, fsr2l, fsr2h, status,2, status,0, tblptrl, tblptrh, tblptru, cstack
   335 ;; Tracked objects:
   336 ;;		On entry : 0/0
   337 ;;		On exit  : 0/0
   338 ;;		Unchanged: 0/0
   339 ;; Data sizes:     COMRAM   BANK5   BANK6   BANK7   BANK8   BANK9  BANK10  BANK11  BANK12  BANK13  BANK14  BANK15  BANK1
      +6  BANK17  BANK18  BANK19  BANK20  BANK21  BANK22  BANK23  BANK24  BANK25  BANK26  BANK27  BANK28  BANK29  BANK30  BANK3
      +1  BANK32  BANK33  BANK34  BANK35  BANK36
   340 ;;      Params:         0       0       0       0       0       0       0       0       0       0       0       0       
      +0       0       0       0       0       0       0       0       0       0       0       0       0       0       0       
      +0       0       0       0       0       0
   341 ;;      Locals:         0       0       0       0       0       0       0       0       0       0       0       0       
      +0       0       0       0       0       0       0       0       0       0       0       0       0       0       0       
      +0       0       0       0       0       0
   342 ;;      Temps:          0       0       0       0       0       0       0       0       0       0       0       0       
      +0       0       0       0       0       0       0       0       0       0       0       0       0       0       0       
      +0       0       0       0       0       0
   343 ;;      Totals:         0       0       0       0       0       0       0       0       0       0       0       0       
      +0       0       0       0       0       0       0       0       0       0       0       0       0       0       0       
      +0       0       0       0       0       0
   344 ;;Total ram usage:        0 bytes
   345 ;; Hardware stack levels required when called: 4
   346 ;; This function calls:
   347 ;;		_TMR2_Initialize
   348 ;;		_loop
   349 ;;		_setup
   350 ;; This function is called by:
   351 ;;		Startup code after reset
   352 ;; This function uses a non-reentrant model
   353 ;;
   354                           
   355                           	psect	text0
   356   00286E                     __ptext0:
   357                           	callstack 0
   358   00286E                     _main:
   359                           	callstack 123
   360                           
   361                           ;mmc/system.c: 85:  OSCFRQ = 0x08;
   362                           
   363                           ;incstack = 0
   364   00286E  0E08               	movlw	8
   365   002870  0100               	movlb	0	; () banked
   366   002872  6FB1               	movwf	177,b	;volatile
   367                           
   368                           ; BSR set to: 0
   369                           ;mmc/system.c: 87:  TMR2_Initialize();
   370   002874  EC48  F014         	call	_TMR2_Initialize	;wreg free
   371                           
   372                           ; BSR set to: 3
   373                           ;mmc/system.c: 89:  u8_sys_counter = 0;
   374   002878  0E00               	movlw	0
   375   00287A  6E23               	movwf	_u8_sys_counter^(0+1280),c	;volatile
   376                           
   377                           ; BSR set to: 3
   378                           ;mmc/system.c: 91:  setup();
   379   00287C  ECFE  F012         	call	_setup	;wreg free
   380   002880                     l1369:
   381                           
   382                           ;mmc/system.c: 94:   if (u8_sys_counter >= (5)) {
   383   002880  0E04               	movlw	4
   384   002882  6423               	cpfsgt	_u8_sys_counter^(0+1280),c	;volatile
   385   002884  D7FD               	goto	l1369
   386                           
   387                           ;mmc/system.c: 95:    u8_sys_counter = 0;
   388   002886  0E00               	movlw	0
   389   002888  6E23               	movwf	_u8_sys_counter^(0+1280),c	;volatile
   390                           
   391                           ;mmc/system.c: 97:    loop();
   392   00288A  EC8B  F012         	call	_loop	;wreg free
   393   00288E  D7F8               	goto	l1369
   394   002890                     __end_of_main:
   395                           	callstack 0
   396                           
   397 ;; *************** function _setup *****************
   398 ;; Defined at:
   399 ;;		line 29 in file "mix_sam03.c"
   400 ;; Parameters:    Size  Location     Type
   401 ;;		None
   402 ;; Auto vars:     Size  Location     Type
   403 ;;		None
   404 ;; Return value:  Size  Location     Type
   405 ;;                  1    wreg      void 
   406 ;; Registers used:
   407 ;;		wreg, fsr2l, fsr2h, status,2, status,0, cstack
   408 ;; Tracked objects:
   409 ;;		On entry : 3F/3
   410 ;;		On exit  : 0/0
   411 ;;		Unchanged: 0/0
   412 ;; Data sizes:     COMRAM   BANK5   BANK6   BANK7   BANK8   BANK9  BANK10  BANK11  BANK12  BANK13  BANK14  BANK15  BANK1
      +6  BANK17  BANK18  BANK19  BANK20  BANK21  BANK22  BANK23  BANK24  BANK25  BANK26  BANK27  BANK28  BANK29  BANK30  BANK3
      +1  BANK32  BANK33  BANK34  BANK35  BANK36
   413 ;;      Params:         0       0       0       0       0       0       0       0       0       0       0       0       
      +0       0       0       0       0       0       0       0       0       0       0       0       0       0       0       
      +0       0       0       0       0       0
   414 ;;      Locals:         0       0       0       0       0       0       0       0       0       0       0       0       
      +0       0       0       0       0       0       0       0       0       0       0       0       0       0       0       
      +0       0       0       0       0       0
   415 ;;      Temps:          0       0       0       0       0       0       0       0       0       0       0       0       
      +0       0       0       0       0       0       0       0       0       0       0       0       0       0       0       
      +0       0       0       0       0       0
   416 ;;      Totals:         0       0       0       0       0       0       0       0       0       0       0       0       
      +0       0       0       0       0       0       0       0       0       0       0       0       0       0       0       
      +0       0       0       0       0       0
   417 ;;Total ram usage:        0 bytes
   418 ;; Hardware stack levels used: 1
   419 ;; Hardware stack levels required when called: 2
   420 ;; This function calls:
   421 ;;		_ADCC_Initialize
   422 ;;		_PWM1_Initialize
   423 ;;		_TimerStart
   424 ;;		_UART3_Initialize
   425 ;; This function is called by:
   426 ;;		_main
   427 ;; This function uses a non-reentrant model
   428 ;;
   429                           
   430                           	psect	text1
   431   0025FC                     __ptext1:
   432                           	callstack 0
   433   0025FC                     _setup:
   434                           	callstack 124
   435                           
   436                           ; BSR set to: 3
   437                           ;mix_sam03.c: 31:  ANSELB0 = 0;
   438                           
   439                           ;incstack = 0
   440   0025FC  0104               	movlb	4	; () banked
   441   0025FE  9108               	bcf	8,0,b	;volatile
   442                           
   443                           ;mix_sam03.c: 32:  WPUB0 = 1;
   444   002600  8109               	bsf	9,0,b	;volatile
   445                           
   446                           ;mix_sam03.c: 33:  TRISB0 = 1;
   447   002602  80C7               	bsf	1223,0,c	;volatile
   448                           
   449                           ;mix_sam03.c: 34:  INT0EDG = 0;
   450   002604  90D6               	bcf	1238,0,c	;volatile
   451                           
   452                           ;mix_sam03.c: 35:  INT0IF = 0;
   453   002606  90AF               	bcf	1199,0,c	;volatile
   454                           
   455                           ;mix_sam03.c: 36:  INT0IE = 1;
   456   002608  809F               	bsf	1183,0,c	;volatile
   457                           
   458                           ; BSR set to: 4
   459                           ;mix_sam03.c: 39:  ANSELA = 0xF0;
   460   00260A  0EF0               	movlw	240
   461   00260C  6F00               	movwf	0,b	;volatile
   462                           
   463                           ;mix_sam03.c: 40:  LATA = 0x00;
   464   00260E  0E00               	movlw	0
   465   002610  6EBE               	movwf	190,c	;volatile
   466                           
   467                           ;mix_sam03.c: 41:  TRISA = 0xF0;
   468   002612  0EF0               	movlw	240
   469   002614  6EC6               	movwf	198,c	;volatile
   470                           
   471                           ; BSR set to: 4
   472                           ;mix_sam03.c: 44:  UART3_Initialize();
   473   002616  EC9C  F013         	call	_UART3_Initialize	;wreg free
   474                           
   475                           ; BSR set to: 2
   476                           ;mix_sam03.c: 46:  ADCC_Initialize();
   477   00261A  EC58  F014         	call	_ADCC_Initialize	;wreg free
   478                           
   479                           ; BSR set to: 3
   480                           ;mix_sam03.c: 48:  PWM1_Initialize();
   481   00261E  ECD2  F012         	call	_PWM1_Initialize	;wreg free
   482                           
   483                           ; BSR set to: 2
   484                           ;mix_sam03.c: 51:  u8_count_out = 0x00;
   485   002622  0E00               	movlw	0
   486   002624  6E24               	movwf	_u8_count_out^(0+1280),c	;volatile
   487                           
   488                           ; BSR set to: 2
   489                           ;mix_sam03.c: 52:  u16_data_adcc = 0x0000;
   490   002626  0E00               	movlw	0
   491   002628  6E22               	movwf	(_u16_data_adcc+1)^(0+1280),c
   492   00262A  0E00               	movlw	0
   493   00262C  6E21               	movwf	_u16_data_adcc^(0+1280),c
   494                           
   495                           ; BSR set to: 2
   496                           ;mix_sam03.c: 53:  bit_flag = 0;
   497   00262E  9039               	bcf	(_bit_flag/(0+8))^(0+1280),_bit_flag& (0+7),c
   498                           
   499                           ; BSR set to: 2
   500                           ;mix_sam03.c: 54:  bit_state = 1;
   501   002630  8038               	bsf	(_bit_state/(0+8))^(0+1280),_bit_state& (0+7),c
   502                           
   503                           ; BSR set to: 2
   504                           ;mix_sam03.c: 57:  GIE = 1;
   505   002632  8ED6               	bsf	1238,7,c	;volatile
   506                           
   507                           ; BSR set to: 2
   508                           ;mix_sam03.c: 60:  TimerStart(&u16_timer_1s);
   509   002634  0E2D               	movlw	low _u16_timer_1s
   510   002636  6E30               	movwf	TimerStart@p_timer^(0+1280),c
   511   002638  0E05               	movlw	high _u16_timer_1s
   512   00263A  6E31               	movwf	(TimerStart@p_timer+1)^(0+1280),c
   513   00263C  EC80  F014         	call	_TimerStart	;wreg free
   514                           
   515                           ;mix_sam03.c: 62:  TimerStart(&u16_timer_200m);
   516   002640  0E2B               	movlw	low _u16_timer_200m
   517   002642  6E30               	movwf	TimerStart@p_timer^(0+1280),c
   518   002644  0E05               	movlw	high _u16_timer_200m
   519   002646  6E31               	movwf	(TimerStart@p_timer+1)^(0+1280),c
   520   002648  EC80  F014         	call	_TimerStart	;wreg free
   521   00264C  0012               	return		;funcret
   522   00264E                     __end_of_setup:
   523                           	callstack 0
   524                           
   525 ;; *************** function _UART3_Initialize *****************
   526 ;; Defined at:
   527 ;;		line 45 in file "mmc/uart3.c"
   528 ;; Parameters:    Size  Location     Type
   529 ;;		None
   530 ;; Auto vars:     Size  Location     Type
   531 ;;		None
   532 ;; Return value:  Size  Location     Type
   533 ;;                  1    wreg      void 
   534 ;; Registers used:
   535 ;;		wreg, status,2
   536 ;; Tracked objects:
   537 ;;		On entry : 3F/4
   538 ;;		On exit  : 3F/2
   539 ;;		Unchanged: 0/0
   540 ;; Data sizes:     COMRAM   BANK5   BANK6   BANK7   BANK8   BANK9  BANK10  BANK11  BANK12  BANK13  BANK14  BANK15  BANK1
      +6  BANK17  BANK18  BANK19  BANK20  BANK21  BANK22  BANK23  BANK24  BANK25  BANK26  BANK27  BANK28  BANK29  BANK30  BANK3
      +1  BANK32  BANK33  BANK34  BANK35  BANK36
   541 ;;      Params:         0       0       0       0       0       0       0       0       0       0       0       0       
      +0       0       0       0       0       0       0       0       0       0       0       0       0       0       0       
      +0       0       0       0       0       0
   542 ;;      Locals:         0       0       0       0       0       0       0       0       0       0       0       0       
      +0       0       0       0       0       0       0       0       0       0       0       0       0       0       0       
      +0       0       0       0       0       0
   543 ;;      Temps:          0       0       0       0       0       0       0       0       0       0       0       0       
      +0       0       0       0       0       0       0       0       0       0       0       0       0       0       0       
      +0       0       0       0       0       0
   544 ;;      Totals:         0       0       0       0       0       0       0       0       0       0       0       0       
      +0       0       0       0       0       0       0       0       0       0       0       0       0       0       0       
      +0       0       0       0       0       0
   545 ;;Total ram usage:        0 bytes
   546 ;; Hardware stack levels used: 1
   547 ;; Hardware stack levels required when called: 1
   548 ;; This function calls:
   549 ;;		Nothing
   550 ;; This function is called by:
   551 ;;		_setup
   552 ;; This function uses a non-reentrant model
   553 ;;
   554                           
   555                           	psect	text2
   556   002738                     __ptext2:
   557                           	callstack 0
   558   002738                     _UART3_Initialize:
   559                           	callstack 124
   560                           
   561                           ; BSR set to: 4
   562                           ;mmc/uart3.c: 47:  U3BRG = (416);
   563                           
   564                           ;incstack = 0
   565   002738  0E01               	movlw	1
   566   00273A  0102               	movlb	2	; () banked
   567   00273C  6FD5               	movwf	213,b	;volatile
   568   00273E  0EA0               	movlw	160
   569   002740  6FD4               	movwf	212,b	;volatile
   570                           
   571                           ; BSR set to: 2
   572                           ;mmc/uart3.c: 48:  U3RXEN = 1;
   573   002742  89D1               	bsf	209,4,b	;volatile
   574                           
   575                           ; BSR set to: 2
   576                           ;mmc/uart3.c: 49:  U3TXEN = 1;
   577   002744  8BD1               	bsf	209,5,b	;volatile
   578                           
   579                           ; BSR set to: 2
   580                           ;mmc/uart3.c: 51:  ANSELA7 = 0;
   581   002746  0104               	movlb	4	; () banked
   582   002748  9F00               	bcf	0,7,b	;volatile
   583                           
   584                           ; BSR set to: 4
   585                           ;mmc/uart3.c: 52:  TRISA7 = 1;
   586   00274A  8EC6               	bsf	1222,7,c	;volatile
   587                           
   588                           ;mmc/uart3.c: 53:  U3RXPPS = 0x07;
   589   00274C  0E07               	movlw	7
   590   00274E  0102               	movlb	2	; () banked
   591   002750  6F76               	movwf	118,b	;volatile
   592                           
   593                           ; BSR set to: 2
   594                           ;mmc/uart3.c: 55:  ANSELA6 = 0;
   595   002752  0104               	movlb	4	; () banked
   596   002754  9D00               	bcf	0,6,b	;volatile
   597                           
   598                           ; BSR set to: 4
   599                           ;mmc/uart3.c: 56:  LATA6 = 1;
   600   002756  8CBE               	bsf	1214,6,c	;volatile
   601                           
   602                           ; BSR set to: 4
   603                           ;mmc/uart3.c: 57:  TRISA6 = 0;
   604   002758  9CC6               	bcf	1222,6,c	;volatile
   605                           
   606                           ;mmc/uart3.c: 58:  RA6PPS = 0x26;
   607   00275A  0E26               	movlw	38
   608   00275C  0102               	movlb	2	; () banked
   609   00275E  6F07               	movwf	7,b	;volatile
   610                           
   611                           ; BSR set to: 2
   612                           ;mmc/uart3.c: 60:  U3ON = 1;
   613   002760  8FD2               	bsf	210,7,b	;volatile
   614                           
   615                           ; BSR set to: 2
   616                           ;mmc/uart3.c: 61:  U3RXIE = 1;
   617   002762  80A7               	bsf	1191,0,c	;volatile
   618                           
   619                           ;mmc/uart3.c: 64:  u8_rx_head = 0;
   620   002764  0E00               	movlw	0
   621   002766  6E2A               	movwf	_u8_rx_head^(0+1280),c	;volatile
   622                           
   623                           ;mmc/uart3.c: 65:  u8_rx_tail = 0;
   624   002768  0E00               	movlw	0
   625   00276A  6E29               	movwf	_u8_rx_tail^(0+1280),c	;volatile
   626                           
   627                           ;mmc/uart3.c: 66:  u8_rx_count = 0;
   628   00276C  0E00               	movlw	0
   629   00276E  6E28               	movwf	_u8_rx_count^(0+1280),c	;volatile
   630                           
   631                           ;mmc/uart3.c: 67:  u8_tx_head = 0;
   632   002770  0E00               	movlw	0
   633   002772  6E27               	movwf	_u8_tx_head^(0+1280),c	;volatile
   634                           
   635                           ;mmc/uart3.c: 68:  u8_tx_tail = 0;
   636   002774  0E00               	movlw	0
   637   002776  6E26               	movwf	_u8_tx_tail^(0+1280),c	;volatile
   638                           
   639                           ;mmc/uart3.c: 69:  u8_tx_count = 0;
   640   002778  0E00               	movlw	0
   641   00277A  6E25               	movwf	_u8_tx_count^(0+1280),c	;volatile
   642                           
   643                           ; BSR set to: 2
   644   00277C  0012               	return		;funcret
   645   00277E                     __end_of_UART3_Initialize:
   646                           	callstack 0
   647                           
   648 ;; *************** function _PWM1_Initialize *****************
   649 ;; Defined at:
   650 ;;		line 6 in file "mmc/pwm1.c"
   651 ;; Parameters:    Size  Location     Type
   652 ;;		None
   653 ;; Auto vars:     Size  Location     Type
   654 ;;		None
   655 ;; Return value:  Size  Location     Type
   656 ;;                  1    wreg      void 
   657 ;; Registers used:
   658 ;;		wreg, status,2
   659 ;; Tracked objects:
   660 ;;		On entry : 3F/3
   661 ;;		On exit  : 3F/2
   662 ;;		Unchanged: 0/0
   663 ;; Data sizes:     COMRAM   BANK5   BANK6   BANK7   BANK8   BANK9  BANK10  BANK11  BANK12  BANK13  BANK14  BANK15  BANK1
      +6  BANK17  BANK18  BANK19  BANK20  BANK21  BANK22  BANK23  BANK24  BANK25  BANK26  BANK27  BANK28  BANK29  BANK30  BANK3
      +1  BANK32  BANK33  BANK34  BANK35  BANK36
   664 ;;      Params:         0       0       0       0       0       0       0       0       0       0       0       0       
      +0       0       0       0       0       0       0       0       0       0       0       0       0       0       0       
      +0       0       0       0       0       0
   665 ;;      Locals:         0       0       0       0       0       0       0       0       0       0       0       0       
      +0       0       0       0       0       0       0       0       0       0       0       0       0       0       0       
      +0       0       0       0       0       0
   666 ;;      Temps:          0       0       0       0       0       0       0       0       0       0       0       0       
      +0       0       0       0       0       0       0       0       0       0       0       0       0       0       0       
      +0       0       0       0       0       0
   667 ;;      Totals:         0       0       0       0       0       0       0       0       0       0       0       0       
      +0       0       0       0       0       0       0       0       0       0       0       0       0       0       0       
      +0       0       0       0       0       0
   668 ;;Total ram usage:        0 bytes
   669 ;; Hardware stack levels used: 1
   670 ;; Hardware stack levels required when called: 1
   671 ;; This function calls:
   672 ;;		Nothing
   673 ;; This function is called by:
   674 ;;		_setup
   675 ;; This function uses a non-reentrant model
   676 ;;
   677                           
   678                           	psect	text3
   679   0025A4                     __ptext3:
   680                           	callstack 0
   681   0025A4                     _PWM1_Initialize:
   682                           	callstack 124
   683                           
   684                           ; BSR set to: 3
   685                           ;mmc/pwm1.c: 8:  TRISC0 = 0;
   686                           
   687                           ; BSR set to: 2
   688                           ;incstack = 0
   689   0025A4  90C8               	bcf	1224,0,c	;volatile
   690                           
   691                           ;mmc/pwm1.c: 9:  TRISC1 = 0;
   692   0025A6  92C8               	bcf	1224,1,c	;volatile
   693                           
   694                           ; BSR set to: 3
   695                           ;mmc/pwm1.c: 10:  RC0PPS = 0x18;
   696   0025A8  0E18               	movlw	24
   697   0025AA  0102               	movlb	2	; () banked
   698   0025AC  6F11               	movwf	17,b	;volatile
   699                           
   700                           ;mmc/pwm1.c: 11:  RC1PPS = 0x19;
   701   0025AE  0E19               	movlw	25
   702   0025B0  6F12               	movwf	18,b	;volatile
   703                           
   704                           ;mmc/pwm1.c: 14:  PWM1ERS = 0x0;
   705   0025B2  0E00               	movlw	0
   706   0025B4  6E60               	movwf	96,c	;volatile
   707                           
   708                           ;mmc/pwm1.c: 16:  PWM1CLK = 0x2;
   709   0025B6  0E02               	movlw	2
   710   0025B8  6E61               	movwf	97,c	;volatile
   711                           
   712                           ;mmc/pwm1.c: 18:  PWM1LDS = 0x0;
   713   0025BA  0E00               	movlw	0
   714   0025BC  6E62               	movwf	98,c	;volatile
   715                           
   716                           ;mmc/pwm1.c: 20:  PWM1PRL = 0x3F;
   717   0025BE  0E3F               	movlw	63
   718   0025C0  6E63               	movwf	99,c	;volatile
   719                           
   720                           ;mmc/pwm1.c: 22:  PWM1PRH = 0x6;
   721   0025C2  0E06               	movlw	6
   722   0025C4  6E64               	movwf	100,c	;volatile
   723                           
   724                           ;mmc/pwm1.c: 24:  PWM1CPRE = 0x3;
   725   0025C6  0E03               	movlw	3
   726   0025C8  6E65               	movwf	101,c	;volatile
   727                           
   728                           ;mmc/pwm1.c: 26:  PWM1PIPOS = 0x0;
   729   0025CA  0E00               	movlw	0
   730   0025CC  6E66               	movwf	102,c	;volatile
   731                           
   732                           ;mmc/pwm1.c: 28:  PWM1GIR = 0x0;
   733   0025CE  0E00               	movlw	0
   734   0025D0  6E67               	movwf	103,c	;volatile
   735                           
   736                           ;mmc/pwm1.c: 30:  PWM1GIE = 0x0;
   737   0025D2  0E00               	movlw	0
   738   0025D4  6E68               	movwf	104,c	;volatile
   739                           
   740                           ;mmc/pwm1.c: 32:  PWM1S1CFG = 0x0;
   741   0025D6  0E00               	movlw	0
   742   0025D8  6E6A               	movwf	106,c	;volatile
   743                           
   744                           ;mmc/pwm1.c: 34:  PWM1S1P1L = 0x20;
   745   0025DA  0E20               	movlw	32
   746   0025DC  6E6B               	movwf	107,c	;volatile
   747                           
   748                           ;mmc/pwm1.c: 36:  PWM1S1P1H = 0x3;
   749   0025DE  0E03               	movlw	3
   750   0025E0  6E6C               	movwf	108,c	;volatile
   751                           
   752                           ;mmc/pwm1.c: 38:  PWM1S1P2L = 0x40;
   753   0025E2  0E40               	movlw	64
   754   0025E4  6E6D               	movwf	109,c	;volatile
   755                           
   756                           ;mmc/pwm1.c: 40:  PWM1S1P2H = 0x0;
   757   0025E6  0E00               	movlw	0
   758   0025E8  6E6E               	movwf	110,c	;volatile
   759                           
   760                           ; BSR set to: 2
   761                           ;mmc/pwm1.c: 42:  PIR4bits.PWM1PIF = 0;
   762   0025EA  9CB2               	bcf	178,6,c	;volatile
   763                           
   764                           ; BSR set to: 2
   765                           ;mmc/pwm1.c: 44:  PIR4bits.PWM1IF = 0;
   766   0025EC  9EB2               	bcf	178,7,c	;volatile
   767                           
   768                           ; BSR set to: 2
   769                           ;mmc/pwm1.c: 46:  PWM1GIRbits.S1P1IF = 0;
   770   0025EE  9067               	bcf	103,0,c	;volatile
   771                           
   772                           ; BSR set to: 2
   773                           ;mmc/pwm1.c: 48:  PWM1GIRbits.S1P2IF = 0;
   774   0025F0  9267               	bcf	103,1,c	;volatile
   775                           
   776                           ; BSR set to: 2
   777                           ;mmc/pwm1.c: 50:  PIE4bits.PWM1IE = 0;
   778   0025F2  9EA2               	bcf	162,7,c	;volatile
   779                           
   780                           ; BSR set to: 2
   781                           ;mmc/pwm1.c: 52:  PIE4bits.PWM1PIE = 0;
   782   0025F4  9CA2               	bcf	162,6,c	;volatile
   783                           
   784                           ;mmc/pwm1.c: 54:  PWM1CON = 0x80;
   785   0025F6  0E80               	movlw	128
   786   0025F8  6E69               	movwf	105,c	;volatile
   787                           
   788                           ; BSR set to: 2
   789   0025FA  0012               	return		;funcret
   790   0025FC                     __end_of_PWM1_Initialize:
   791                           	callstack 0
   792                           
   793 ;; *************** function _ADCC_Initialize *****************
   794 ;; Defined at:
   795 ;;		line 6 in file "mmc/adcc.c"
   796 ;; Parameters:    Size  Location     Type
   797 ;;		None
   798 ;; Auto vars:     Size  Location     Type
   799 ;;		None
   800 ;; Return value:  Size  Location     Type
   801 ;;                  1    wreg      void 
   802 ;; Registers used:
   803 ;;		wreg, status,2
   804 ;; Tracked objects:
   805 ;;		On entry : 3F/2
   806 ;;		On exit  : 3F/3
   807 ;;		Unchanged: 0/0
   808 ;; Data sizes:     COMRAM   BANK5   BANK6   BANK7   BANK8   BANK9  BANK10  BANK11  BANK12  BANK13  BANK14  BANK15  BANK1
      +6  BANK17  BANK18  BANK19  BANK20  BANK21  BANK22  BANK23  BANK24  BANK25  BANK26  BANK27  BANK28  BANK29  BANK30  BANK3
      +1  BANK32  BANK33  BANK34  BANK35  BANK36
   809 ;;      Params:         0       0       0       0       0       0       0       0       0       0       0       0       
      +0       0       0       0       0       0       0       0       0       0       0       0       0       0       0       
      +0       0       0       0       0       0
   810 ;;      Locals:         0       0       0       0       0       0       0       0       0       0       0       0       
      +0       0       0       0       0       0       0       0       0       0       0       0       0       0       0       
      +0       0       0       0       0       0
   811 ;;      Temps:          0       0       0       0       0       0       0       0       0       0       0       0       
      +0       0       0       0       0       0       0       0       0       0       0       0       0       0       0       
      +0       0       0       0       0       0
   812 ;;      Totals:         0       0       0       0       0       0       0       0       0       0       0       0       
      +0       0       0       0       0       0       0       0       0       0       0       0       0       0       0       
      +0       0       0       0       0       0
   813 ;;Total ram usage:        0 bytes
   814 ;; Hardware stack levels used: 1
   815 ;; Hardware stack levels required when called: 1
   816 ;; This function calls:
   817 ;;		Nothing
   818 ;; This function is called by:
   819 ;;		_setup
   820 ;; This function uses a non-reentrant model
   821 ;;
   822                           
   823                           	psect	text4
   824   0028B0                     __ptext4:
   825                           	callstack 0
   826   0028B0                     _ADCC_Initialize:
   827                           	callstack 124
   828                           
   829                           ; BSR set to: 2
   830                           ;mmc/adcc.c: 8:  ADCON0bits.FM = 1;
   831                           
   832                           ; BSR set to: 2
   833                           ;incstack = 0
   834   0028B0  0103               	movlb	3	; () banked
   835   0028B2  51F3               	movf	243,w,b	;volatile
   836   0028B4  0BF3               	andlw	-13
   837   0028B6  0904               	iorlw	4
   838   0028B8  6FF3               	movwf	243,b	;volatile
   839                           
   840                           ; BSR set to: 3
   841                           ;mmc/adcc.c: 9:  ADCON0bits.CS = 1;
   842   0028BA  89F3               	bsf	243,4,b	;volatile
   843                           
   844                           ;mmc/adcc.c: 10:  ADPCH = 0x0C;
   845   0028BC  0E0C               	movlw	12
   846   0028BE  6FEC               	movwf	236,b	;volatile
   847                           
   848                           ; BSR set to: 3
   849                           ;mmc/adcc.c: 11:  TRISB4 = 1;
   850   0028C0  88C7               	bsf	1223,4,c	;volatile
   851                           
   852                           ; BSR set to: 3
   853                           ;mmc/adcc.c: 12:  ANSELB4 = 1;
   854   0028C2  0104               	movlb	4	; () banked
   855   0028C4  8908               	bsf	8,4,b	;volatile
   856                           
   857                           ; BSR set to: 4
   858                           ;mmc/adcc.c: 13:  ADCON0bits.ON = 1;
   859   0028C6  0103               	movlb	3	; () banked
   860   0028C8  8FF3               	bsf	243,7,b	;volatile
   861                           
   862                           ; BSR set to: 3
   863   0028CA  0012               	return		;funcret
   864   0028CC                     __end_of_ADCC_Initialize:
   865                           	callstack 0
   866                           
   867 ;; *************** function _loop *****************
   868 ;; Defined at:
   869 ;;		line 65 in file "mix_sam03.c"
   870 ;; Parameters:    Size  Location     Type
   871 ;;		None
   872 ;; Auto vars:     Size  Location     Type
   873 ;;  chk_val         1    8[COMRAM] unsigned char 
   874 ;; Return value:  Size  Location     Type
   875 ;;                  1    wreg      void 
   876 ;; Registers used:
   877 ;;		wreg, fsr2l, fsr2h, status,2, status,0, tblptrl, tblptrh, tblptru, cstack
   878 ;; Tracked objects:
   879 ;;		On entry : 0/3
   880 ;;		On exit  : 0/0
   881 ;;		Unchanged: 0/0
   882 ;; Data sizes:     COMRAM   BANK5   BANK6   BANK7   BANK8   BANK9  BANK10  BANK11  BANK12  BANK13  BANK14  BANK15  BANK1
      +6  BANK17  BANK18  BANK19  BANK20  BANK21  BANK22  BANK23  BANK24  BANK25  BANK26  BANK27  BANK28  BANK29  BANK30  BANK3
      +1  BANK32  BANK33  BANK34  BANK35  BANK36
   883 ;;      Params:         0       0       0       0       0       0       0       0       0       0       0       0       
      +0       0       0       0       0       0       0       0       0       0       0       0       0       0       0       
      +0       0       0       0       0       0
   884 ;;      Locals:         1       0       0       0       0       0       0       0       0       0       0       0       
      +0       0       0       0       0       0       0       0       0       0       0       0       0       0       0       
      +0       0       0       0       0       0
   885 ;;      Temps:          0       0       0       0       0       0       0       0       0       0       0       0       
      +0       0       0       0       0       0       0       0       0       0       0       0       0       0       0       
      +0       0       0       0       0       0
   886 ;;      Totals:         1       0       0       0       0       0       0       0       0       0       0       0       
      +0       0       0       0       0       0       0       0       0       0       0       0       0       0       0       
      +0       0       0       0       0       0
   887 ;;Total ram usage:        1 bytes
   888 ;; Hardware stack levels used: 1
   889 ;; Hardware stack levels required when called: 3
   890 ;; This function calls:
   891 ;;		_ADCC_GetSingleConversion
   892 ;;		_EchoHex
   893 ;;		_EchoStr
   894 ;;		_PWM1_LoadBufferRegisters
   895 ;;		_PWM1_SetSlice1Output2DutyCycleRegister
   896 ;;		_TimerCheck
   897 ;;		_TimerStart
   898 ;;		_request_in
   899 ;;		_update_out
   900 ;; This function is called by:
   901 ;;		_main
   902 ;; This function uses a non-reentrant model
   903 ;;
   904                           
   905                           	psect	text5
   906   002516                     __ptext5:
   907                           	callstack 0
   908   002516                     _loop:
   909                           	callstack 123
   910                           
   911                           ;mix_sam03.c: 66:  uint8_t chk_val;;mix_sam03.c: 68:  chk_val = TimerCheck(&u16_timer_1s
      +                          , (1000 / (5)));
   912                           
   913                           ; BSR set to: 3
   914                           ;incstack = 0
   915   002516  0E2D               	movlw	low _u16_timer_1s
   916   002518  6E30               	movwf	TimerCheck@p_timer^(0+1280),c
   917   00251A  0E05               	movlw	high _u16_timer_1s
   918   00251C  6E31               	movwf	(TimerCheck@p_timer+1)^(0+1280),c
   919   00251E  0E00               	movlw	0
   920   002520  6E33               	movwf	(TimerCheck@time+1)^(0+1280),c
   921   002522  0EC8               	movlw	200
   922   002524  6E32               	movwf	TimerCheck@time^(0+1280),c
   923   002526  EC27  F013         	call	_TimerCheck	;wreg free
   924   00252A  6E37               	movwf	loop@chk_val^(0+1280),c
   925                           
   926                           ;mix_sam03.c: 69:  if (chk_val) {
   927   00252C  5037               	movf	loop@chk_val^(0+1280),w,c
   928   00252E  B4D8               	btfsc	status,2,c
   929   002530  D01F               	goto	l1353
   930                           
   931                           ;mix_sam03.c: 70:   u8_count_out++;
   932   002532  2A24               	incf	_u8_count_out^(0+1280),f,c	;volatile
   933                           
   934                           ;mix_sam03.c: 71:   u16_data_adcc = ADCC_GetSingleConversion();
   935   002534  EC66  F014         	call	_ADCC_GetSingleConversion	;wreg free
   936   002538  C530  F521         	movff	?_ADCC_GetSingleConversion,_u16_data_adcc
   937   00253C  C531  F522         	movff	?_ADCC_GetSingleConversion+1,_u16_data_adcc+1
   938                           
   939                           ; BSR set to: 3
   940                           ;mix_sam03.c: 72:   EchoHex(u16_data_adcc >> 8);
   941   002540  5022               	movf	(_u16_data_adcc+1)^(0+1280),w,c
   942   002542  EC4F  F013         	call	_EchoHex
   943                           
   944                           ;mix_sam03.c: 73:   EchoHex(u16_data_adcc & 0xFF);
   945   002546  5021               	movf	_u16_data_adcc^(0+1280),w,c
   946   002548  EC4F  F013         	call	_EchoHex
   947                           
   948                           ;mix_sam03.c: 74:   EchoStr("\r\n");
   949   00254C  0E11               	movlw	low STR_1
   950   00254E  6E31               	movwf	EchoStr@p_data^(0+1280),c
   951   002550  ECBF  F013         	call	_EchoStr	;wreg free
   952                           
   953                           ;mix_sam03.c: 75:   PWM1_SetSlice1Output2DutyCycleRegister(u16_data_adcc);
   954   002554  C521  F530         	movff	_u16_data_adcc,PWM1_SetSlice1Output2DutyCycleRegister@value
   955   002558  C522  F531         	movff	_u16_data_adcc+1,PWM1_SetSlice1Output2DutyCycleRegister@value+1
   956   00255C  EC87  F014         	call	_PWM1_SetSlice1Output2DutyCycleRegister	;wreg free
   957                           
   958                           ;mix_sam03.c: 76:   PWM1_LoadBufferRegisters();
   959   002560  EC93  F014         	call	_PWM1_LoadBufferRegisters	;wreg free
   960                           
   961                           ;mix_sam03.c: 78:   TimerStart(&u16_timer_1s);
   962   002564  0E2D               	movlw	low _u16_timer_1s
   963   002566  6E30               	movwf	TimerStart@p_timer^(0+1280),c
   964   002568  0E05               	movlw	high _u16_timer_1s
   965   00256A  6E31               	movwf	(TimerStart@p_timer+1)^(0+1280),c
   966   00256C  EC80  F014         	call	_TimerStart	;wreg free
   967   002570                     l1353:
   968                           
   969                           ;mix_sam03.c: 81:  chk_val = TimerCheck(&u16_timer_200m, (200 / (5)));
   970   002570  0E2B               	movlw	low _u16_timer_200m
   971   002572  6E30               	movwf	TimerCheck@p_timer^(0+1280),c
   972   002574  0E05               	movlw	high _u16_timer_200m
   973   002576  6E31               	movwf	(TimerCheck@p_timer+1)^(0+1280),c
   974   002578  0E00               	movlw	0
   975   00257A  6E33               	movwf	(TimerCheck@time+1)^(0+1280),c
   976   00257C  0E28               	movlw	40
   977   00257E  6E32               	movwf	TimerCheck@time^(0+1280),c
   978   002580  EC27  F013         	call	_TimerCheck	;wreg free
   979   002584  6E37               	movwf	loop@chk_val^(0+1280),c
   980                           
   981                           ;mix_sam03.c: 82:  if (chk_val) {
   982   002586  5037               	movf	loop@chk_val^(0+1280),w,c
   983   002588  B4D8               	btfsc	status,2,c
   984   00258A  D007               	goto	l148
   985                           
   986                           ;mix_sam03.c: 83:   bit_flag = 1;
   987   00258C  8039               	bsf	(_bit_flag/(0+8))^(0+1280),_bit_flag& (0+7),c
   988                           
   989                           ;mix_sam03.c: 85:   TimerStart(&u16_timer_200m);
   990   00258E  0E2B               	movlw	low _u16_timer_200m
   991   002590  6E30               	movwf	TimerStart@p_timer^(0+1280),c
   992   002592  0E05               	movlw	high _u16_timer_200m
   993   002594  6E31               	movwf	(TimerStart@p_timer+1)^(0+1280),c
   994   002596  EC80  F014         	call	_TimerStart	;wreg free
   995   00259A                     l148:
   996                           
   997                           ;mix_sam03.c: 87:  request_in();
   998   00259A  EC76  F013         	call	_request_in	;wreg free
   999                           
  1000                           ;mix_sam03.c: 88:  update_out();
  1001   00259E  EC74  F014         	call	_update_out	;wreg free
  1002   0025A2  0012               	return		;funcret
  1003   0025A4                     __end_of_loop:
  1004                           	callstack 0
  1005                           
  1006 ;; *************** function _update_out *****************
  1007 ;; Defined at:
  1008 ;;		line 114 in file "mix_sam03.c"
  1009 ;; Parameters:    Size  Location     Type
  1010 ;;		None
  1011 ;; Auto vars:     Size  Location     Type
  1012 ;;		None
  1013 ;; Return value:  Size  Location     Type
  1014 ;;                  1    wreg      void 
  1015 ;; Registers used:
  1016 ;;		wreg, fsr2l, fsr2h, status,2, status,0, cstack
  1017 ;; Tracked objects:
  1018 ;;		On entry : 0/3
  1019 ;;		On exit  : 0/0
  1020 ;;		Unchanged: 0/0
  1021 ;; Data sizes:     COMRAM   BANK5   BANK6   BANK7   BANK8   BANK9  BANK10  BANK11  BANK12  BANK13  BANK14  BANK15  BANK1
      +6  BANK17  BANK18  BANK19  BANK20  BANK21  BANK22  BANK23  BANK24  BANK25  BANK26  BANK27  BANK28  BANK29  BANK30  BANK3
      +1  BANK32  BANK33  BANK34  BANK35  BANK36
  1022 ;;      Params:         0       0       0       0       0       0       0       0       0       0       0       0       
      +0       0       0       0       0       0       0       0       0       0       0       0       0       0       0       
      +0       0       0       0       0       0
  1023 ;;      Locals:         0       0       0       0       0       0       0       0       0       0       0       0       
      +0       0       0       0       0       0       0       0       0       0       0       0       0       0       0       
      +0       0       0       0       0       0
  1024 ;;      Temps:          0       0       0       0       0       0       0       0       0       0       0       0       
      +0       0       0       0       0       0       0       0       0       0       0       0       0       0       0       
      +0       0       0       0       0       0
  1025 ;;      Totals:         0       0       0       0       0       0       0       0       0       0       0       0       
      +0       0       0       0       0       0       0       0       0       0       0       0       0       0       0       
      +0       0       0       0       0       0
  1026 ;;Total ram usage:        0 bytes
  1027 ;; Hardware stack levels used: 1
  1028 ;; Hardware stack levels required when called: 2
  1029 ;; This function calls:
  1030 ;;		_UART3_Write
  1031 ;; This function is called by:
  1032 ;;		_loop
  1033 ;; This function uses a non-reentrant model
  1034 ;;
  1035                           
  1036                           	psect	text6
  1037   0028E8                     __ptext6:
  1038                           	callstack 0
  1039   0028E8                     _update_out:
  1040                           	callstack 123
  1041                           
  1042                           ;mix_sam03.c: 116:  LATA = u8_count_out & 0x0F;
  1043                           
  1044                           ;incstack = 0
  1045   0028E8  5024               	movf	_u8_count_out^(0+1280),w,c	;volatile
  1046   0028EA  0B0F               	andlw	15
  1047   0028EC  6EBE               	movwf	190,c	;volatile
  1048                           
  1049                           ;mix_sam03.c: 118:  if (bit_flag == 1) {
  1050   0028EE  A039               	btfss	(_bit_flag/(0+8))^(0+1280),_bit_flag& (0+7),c
  1051   0028F0  0012               	return	
  1052                           
  1053                           ;mix_sam03.c: 119:   if (bit_state == 1) {
  1054   0028F2  A038               	btfss	(_bit_state/(0+8))^(0+1280),_bit_state& (0+7),c
  1055   0028F4  D003               	goto	l1155
  1056                           
  1057                           ;mix_sam03.c: 120:    UART3_Write('+');
  1058   0028F6  0E2B               	movlw	43
  1059   0028F8  ECEC  F013         	call	_UART3_Write
  1060   0028FC                     l1155:
  1061                           
  1062                           ;mix_sam03.c: 122:   bit_flag = 0;
  1063   0028FC  9039               	bcf	(_bit_flag/(0+8))^(0+1280),_bit_flag& (0+7),c
  1064   0028FE  0012               	return		;funcret
  1065   002900                     __end_of_update_out:
  1066                           	callstack 0
  1067                           
  1068 ;; *************** function _request_in *****************
  1069 ;; Defined at:
  1070 ;;		line 91 in file "mix_sam03.c"
  1071 ;; Parameters:    Size  Location     Type
  1072 ;;		None
  1073 ;; Auto vars:     Size  Location     Type
  1074 ;;  data_recv       1    4[COMRAM] unsigned char 
  1075 ;; Return value:  Size  Location     Type
  1076 ;;                  1    wreg      void 
  1077 ;; Registers used:
  1078 ;;		wreg, fsr2l, fsr2h, status,2, status,0, cstack
  1079 ;; Tracked objects:
  1080 ;;		On entry : 0/3
  1081 ;;		On exit  : 0/0
  1082 ;;		Unchanged: 0/0
  1083 ;; Data sizes:     COMRAM   BANK5   BANK6   BANK7   BANK8   BANK9  BANK10  BANK11  BANK12  BANK13  BANK14  BANK15  BANK1
      +6  BANK17  BANK18  BANK19  BANK20  BANK21  BANK22  BANK23  BANK24  BANK25  BANK26  BANK27  BANK28  BANK29  BANK30  BANK3
      +1  BANK32  BANK33  BANK34  BANK35  BANK36
  1084 ;;      Params:         0       0       0       0       0       0       0       0       0       0       0       0       
      +0       0       0       0       0       0       0       0       0       0       0       0       0       0       0       
      +0       0       0       0       0       0
  1085 ;;      Locals:         1       0       0       0       0       0       0       0       0       0       0       0       
      +0       0       0       0       0       0       0       0       0       0       0       0       0       0       0       
      +0       0       0       0       0       0
  1086 ;;      Temps:          2       0       0       0       0       0       0       0       0       0       0       0       
      +0       0       0       0       0       0       0       0       0       0       0       0       0       0       0       
      +0       0       0       0       0       0
  1087 ;;      Totals:         3       0       0       0       0       0       0       0       0       0       0       0       
      +0       0       0       0       0       0       0       0       0       0       0       0       0       0       0       
      +0       0       0       0       0       0
  1088 ;;Total ram usage:        3 bytes
  1089 ;; Hardware stack levels used: 1
  1090 ;; Hardware stack levels required when called: 2
  1091 ;; This function calls:
  1092 ;;		_UART3_Read
  1093 ;; This function is called by:
  1094 ;;		_loop
  1095 ;; This function uses a non-reentrant model
  1096 ;;
  1097                           
  1098                           	psect	text7
  1099   0026EC                     __ptext7:
  1100                           	callstack 0
  1101   0026EC                     _request_in:
  1102                           	callstack 123
  1103                           
  1104                           ;mix_sam03.c: 92:  uint8_t data_recv;;mix_sam03.c: 93:  data_recv = UART3_Read();
  1105                           
  1106                           ;incstack = 0
  1107   0026EC  ECD7  F013         	call	_UART3_Read	;wreg free
  1108   0026F0  6E33               	movwf	request_in@data_recv^(0+1280),c
  1109                           
  1110                           ;mix_sam03.c: 94:  switch (data_recv) {
  1111   0026F2  D00D               	goto	l1141
  1112   0026F4                     l153:
  1113   0026F4  00FF               	reset		;# 
  1114                           
  1115                           ;mix_sam03.c: 98:   break;
  1116   0026F6  0012               	return	
  1117   0026F8                     l155:
  1118   0026F8  0003               	sleep		;# 
  1119                           
  1120                           ;mix_sam03.c: 102:   break;
  1121   0026FA  0012               	return	
  1122   0026FC                     l1137:
  1123                           
  1124                           ;mix_sam03.c: 104:   u8_count_out = 0x00;
  1125   0026FC  0E00               	movlw	0
  1126   0026FE  6E24               	movwf	_u8_count_out^(0+1280),c	;volatile
  1127                           
  1128                           ;mix_sam03.c: 105:   break;
  1129   002700  0012               	return	
  1130   002702                     l157:
  1131                           
  1132                           ;mix_sam03.c: 107:   bit_state = !bit_state;
  1133   002702  B038               	btfsc	(_bit_state/(0+8))^(0+1280),_bit_state& (0+7),c
  1134   002704  D002               	goto	u70
  1135   002706  8038               	bsf	(_bit_state/(0+8))^(0+1280),_bit_state& (0+7),c
  1136   002708  0012               	return	
  1137   00270A                     u70:
  1138   00270A  9038               	bcf	(_bit_state/(0+8))^(0+1280),_bit_state& (0+7),c
  1139                           
  1140                           ;mix_sam03.c: 108:   break;
  1141   00270C  0012               	return	
  1142   00270E                     l1141:
  1143   00270E  5033               	movf	request_in@data_recv^(0+1280),w,c
  1144   002710  6E31               	movwf	??_request_in^(0+1280),c
  1145   002712  6A32               	clrf	(??_request_in+1)^(0+1280),c
  1146                           
  1147                           ; Switch on 2 bytes has been partitioned into a top level switch of size 1, and 1 sub-sw
      +                          itches
  1148                           ; Switch size 1, requested type "simple"
  1149                           ; Number of cases is 1, Range of values is 0 to 0
  1150                           ; switch strategies available:
  1151                           ; Name         Instructions Cycles
  1152                           ; simple_byte            4     3 (average)
  1153                           ;	Chosen strategy is simple_byte
  1154   002714  5032               	movf	(??_request_in+1)^(0+1280),w,c
  1155   002716  0A00               	xorlw	0	; case 0
  1156   002718  A4D8               	btfss	status,2,c
  1157   00271A  0012               	return	
  1158                           
  1159                           ; Switch size 1, requested type "simple"
  1160                           ; Number of cases is 4, Range of values is 114 to 122
  1161                           ; switch strategies available:
  1162                           ; Name         Instructions Cycles
  1163                           ; simple_byte           13     7 (average)
  1164                           ;	Chosen strategy is simple_byte
  1165   00271C  5031               	movf	??_request_in^(0+1280),w,c
  1166   00271E  0A72               	xorlw	114	; case 114
  1167   002720  B4D8               	btfsc	status,2,c
  1168   002722  D7E8               	goto	l153
  1169   002724  0A01               	xorlw	1	; case 115
  1170   002726  B4D8               	btfsc	status,2,c
  1171   002728  D7E7               	goto	l155
  1172   00272A  0A06               	xorlw	6	; case 117
  1173   00272C  B4D8               	btfsc	status,2,c
  1174   00272E  D7E9               	goto	l157
  1175   002730  0A0F               	xorlw	15	; case 122
  1176   002732  A4D8               	btfss	status,2,c
  1177   002734  0012               	return	
  1178   002736  D7E2               	goto	l1137
  1179   002738                     __end_of_request_in:
  1180                           	callstack 0
  1181                           
  1182 ;; *************** function _UART3_Read *****************
  1183 ;; Defined at:
  1184 ;;		line 80 in file "mmc/uart3.c"
  1185 ;; Parameters:    Size  Location     Type
  1186 ;;		None
  1187 ;; Auto vars:     Size  Location     Type
  1188 ;;  data            1    1[COMRAM] unsigned char 
  1189 ;; Return value:  Size  Location     Type
  1190 ;;                  1    wreg      unsigned char 
  1191 ;; Registers used:
  1192 ;;		wreg, fsr2l, fsr2h, status,2, status,0
  1193 ;; Tracked objects:
  1194 ;;		On entry : 0/3
  1195 ;;		On exit  : 0/0
  1196 ;;		Unchanged: 0/0
  1197 ;; Data sizes:     COMRAM   BANK5   BANK6   BANK7   BANK8   BANK9  BANK10  BANK11  BANK12  BANK13  BANK14  BANK15  BANK1
      +6  BANK17  BANK18  BANK19  BANK20  BANK21  BANK22  BANK23  BANK24  BANK25  BANK26  BANK27  BANK28  BANK29  BANK30  BANK3
      +1  BANK32  BANK33  BANK34  BANK35  BANK36
  1198 ;;      Params:         0       0       0       0       0       0       0       0       0       0       0       0       
      +0       0       0       0       0       0       0       0       0       0       0       0       0       0       0       
      +0       0       0       0       0       0
  1199 ;;      Locals:         1       0       0       0       0       0       0       0       0       0       0       0       
      +0       0       0       0       0       0       0       0       0       0       0       0       0       0       0       
      +0       0       0       0       0       0
  1200 ;;      Temps:          0       0       0       0       0       0       0       0       0       0       0       0       
      +0       0       0       0       0       0       0       0       0       0       0       0       0       0       0       
      +0       0       0       0       0       0
  1201 ;;      Totals:         1       0       0       0       0       0       0       0       0       0       0       0       
      +0       0       0       0       0       0       0       0       0       0       0       0       0       0       0       
      +0       0       0       0       0       0
  1202 ;;Total ram usage:        1 bytes
  1203 ;; Hardware stack levels used: 1
  1204 ;; Hardware stack levels required when called: 1
  1205 ;; This function calls:
  1206 ;;		Nothing
  1207 ;; This function is called by:
  1208 ;;		_request_in
  1209 ;; This function uses a non-reentrant model
  1210 ;;
  1211                           
  1212                           	psect	text8
  1213   0027AE                     __ptext8:
  1214                           	callstack 0
  1215   0027AE                     _UART3_Read:
  1216                           	callstack 123
  1217                           
  1218                           ;mmc/uart3.c: 81:  uint8_t data = 0x00;
  1219                           
  1220                           ;incstack = 0
  1221   0027AE  0E00               	movlw	0
  1222   0027B0  6E30               	movwf	UART3_Read@data^(0+1280),c
  1223                           
  1224                           ;mmc/uart3.c: 82:  if (u8_rx_count > 0) {
  1225   0027B2  5028               	movf	_u8_rx_count^(0+1280),w,c	;volatile
  1226   0027B4  B4D8               	btfsc	status,2,c
  1227   0027B6  D00E               	goto	l1035
  1228                           
  1229                           ;mmc/uart3.c: 83:   data = au8_rx_buffer[u8_rx_tail];
  1230   0027B8  0E11               	movlw	low _au8_rx_buffer
  1231   0027BA  2429               	addwf	_u8_rx_tail^(0+1280),w,c	;volatile
  1232   0027BC  6ED9               	movwf	fsr2l,c
  1233   0027BE  6ADA               	clrf	fsr2h,c
  1234   0027C0  0E05               	movlw	high _au8_rx_buffer
  1235   0027C2  22DA               	addwfc	fsr2h,f,c
  1236   0027C4  50DF               	movf	indf2,w,c
  1237   0027C6  6E30               	movwf	UART3_Read@data^(0+1280),c
  1238                           
  1239                           ;mmc/uart3.c: 84:   u8_rx_tail = (u8_rx_tail + 1) & ((16) - 1);
  1240   0027C8  2829               	incf	_u8_rx_tail^(0+1280),w,c	;volatile
  1241   0027CA  0B0F               	andlw	15
  1242   0027CC  6E29               	movwf	_u8_rx_tail^(0+1280),c	;volatile
  1243                           
  1244                           ;mmc/uart3.c: 85:   U3RXIE = 0;
  1245   0027CE  90A7               	bcf	1191,0,c	;volatile
  1246                           
  1247                           ;mmc/uart3.c: 86:   u8_rx_count--;
  1248   0027D0  0628               	decf	_u8_rx_count^(0+1280),f,c	;volatile
  1249                           
  1250                           ;mmc/uart3.c: 87:   U3RXIE = 1;
  1251   0027D2  80A7               	bsf	1191,0,c	;volatile
  1252   0027D4                     l1035:
  1253                           
  1254                           ;mmc/uart3.c: 89:  return data;
  1255   0027D4  5030               	movf	UART3_Read@data^(0+1280),w,c
  1256   0027D6  0012               	return		;funcret
  1257   0027D8                     __end_of_UART3_Read:
  1258                           	callstack 0
  1259                           
  1260 ;; *************** function _TimerStart *****************
  1261 ;; Defined at:
  1262 ;;		line 132 in file "mmc/system.c"
  1263 ;; Parameters:    Size  Location     Type
  1264 ;;  p_timer         2    1[COMRAM] PTR unsigned short 
  1265 ;;		 -> u16_timer_200m(2), u16_timer_1s(2), 
  1266 ;; Auto vars:     Size  Location     Type
  1267 ;;		None
  1268 ;; Return value:  Size  Location     Type
  1269 ;;                  1    wreg      void 
  1270 ;; Registers used:
  1271 ;;		fsr2l, fsr2h
  1272 ;; Tracked objects:
  1273 ;;		On entry : 0/2
  1274 ;;		On exit  : 0/0
  1275 ;;		Unchanged: 0/0
  1276 ;; Data sizes:     COMRAM   BANK5   BANK6   BANK7   BANK8   BANK9  BANK10  BANK11  BANK12  BANK13  BANK14  BANK15  BANK1
      +6  BANK17  BANK18  BANK19  BANK20  BANK21  BANK22  BANK23  BANK24  BANK25  BANK26  BANK27  BANK28  BANK29  BANK30  BANK3
      +1  BANK32  BANK33  BANK34  BANK35  BANK36
  1277 ;;      Params:         2       0       0       0       0       0       0       0       0       0       0       0       
      +0       0       0       0       0       0       0       0       0       0       0       0       0       0       0       
      +0       0       0       0       0       0
  1278 ;;      Locals:         0       0       0       0       0       0       0       0       0       0       0       0       
      +0       0       0       0       0       0       0       0       0       0       0       0       0       0       0       
      +0       0       0       0       0       0
  1279 ;;      Temps:          0       0       0       0       0       0       0       0       0       0       0       0       
      +0       0       0       0       0       0       0       0       0       0       0       0       0       0       0       
      +0       0       0       0       0       0
  1280 ;;      Totals:         2       0       0       0       0       0       0       0       0       0       0       0       
      +0       0       0       0       0       0       0       0       0       0       0       0       0       0       0       
      +0       0       0       0       0       0
  1281 ;;Total ram usage:        2 bytes
  1282 ;; Hardware stack levels used: 1
  1283 ;; Hardware stack levels required when called: 1
  1284 ;; This function calls:
  1285 ;;		Nothing
  1286 ;; This function is called by:
  1287 ;;		_setup
  1288 ;;		_loop
  1289 ;; This function uses a non-reentrant model
  1290 ;;
  1291                           
  1292                           	psect	text9
  1293   002900                     __ptext9:
  1294                           	callstack 0
  1295   002900                     _TimerStart:
  1296                           	callstack 124
  1297                           
  1298                           ;mmc/system.c: 133:  *p_timer = (0x0000);
  1299                           
  1300                           ;incstack = 0
  1301   002900  C530  F4D9         	movff	TimerStart@p_timer,fsr2l
  1302   002904  C531  F4DA         	movff	TimerStart@p_timer+1,fsr2h
  1303   002908  6ADE               	clrf	postinc2,c
  1304   00290A  6ADD               	clrf	postdec2,c
  1305   00290C  0012               	return		;funcret
  1306   00290E                     __end_of_TimerStart:
  1307                           	callstack 0
  1308                           
  1309 ;; *************** function _TimerCheck *****************
  1310 ;; Defined at:
  1311 ;;		line 140 in file "mmc/system.c"
  1312 ;; Parameters:    Size  Location     Type
  1313 ;;  p_timer         2    1[COMRAM] PTR unsigned short 
  1314 ;;		 -> u16_timer_200m(2), u16_timer_1s(2), 
  1315 ;;  time            2    3[COMRAM] unsigned short 
  1316 ;; Auto vars:     Size  Location     Type
  1317 ;;  ret_val         1    7[COMRAM] unsigned char 
  1318 ;; Return value:  Size  Location     Type
  1319 ;;                  1    wreg      unsigned char 
  1320 ;; Registers used:
  1321 ;;		wreg, fsr2l, fsr2h, status,2, status,0
  1322 ;; Tracked objects:
  1323 ;;		On entry : 0/3
  1324 ;;		On exit  : 0/0
  1325 ;;		Unchanged: 0/0
  1326 ;; Data sizes:     COMRAM   BANK5   BANK6   BANK7   BANK8   BANK9  BANK10  BANK11  BANK12  BANK13  BANK14  BANK15  BANK1
      +6  BANK17  BANK18  BANK19  BANK20  BANK21  BANK22  BANK23  BANK24  BANK25  BANK26  BANK27  BANK28  BANK29  BANK30  BANK3
      +1  BANK32  BANK33  BANK34  BANK35  BANK36
  1327 ;;      Params:         4       0       0       0       0       0       0       0       0       0       0       0       
      +0       0       0       0       0       0       0       0       0       0       0       0       0       0       0       
      +0       0       0       0       0       0
  1328 ;;      Locals:         1       0       0       0       0       0       0       0       0       0       0       0       
      +0       0       0       0       0       0       0       0       0       0       0       0       0       0       0       
      +0       0       0       0       0       0
  1329 ;;      Temps:          2       0       0       0       0       0       0       0       0       0       0       0       
      +0       0       0       0       0       0       0       0       0       0       0       0       0       0       0       
      +0       0       0       0       0       0
  1330 ;;      Totals:         7       0       0       0       0       0       0       0       0       0       0       0       
      +0       0       0       0       0       0       0       0       0       0       0       0       0       0       0       
      +0       0       0       0       0       0
  1331 ;;Total ram usage:        7 bytes
  1332 ;; Hardware stack levels used: 1
  1333 ;; Hardware stack levels required when called: 1
  1334 ;; This function calls:
  1335 ;;		Nothing
  1336 ;; This function is called by:
  1337 ;;		_loop
  1338 ;; This function uses a non-reentrant model
  1339 ;;
  1340                           
  1341                           	psect	text10
  1342   00264E                     __ptext10:
  1343                           	callstack 0
  1344   00264E                     _TimerCheck:
  1345                           	callstack 124
  1346                           
  1347                           ;mmc/system.c: 141:  uint8_t ret_val = (0);
  1348                           
  1349                           ;incstack = 0
  1350   00264E  0E00               	movlw	0
  1351   002650  6E36               	movwf	TimerCheck@ret_val^(0+1280),c
  1352                           
  1353                           ;mmc/system.c: 142:  if (*p_timer == (0xFFFF)) {
  1354   002652  C530  F4D9         	movff	TimerCheck@p_timer,fsr2l
  1355   002656  C531  F4DA         	movff	TimerCheck@p_timer+1,fsr2h
  1356   00265A  28DE               	incf	postinc2,w,c
  1357   00265C  E103               	bnz	l1283
  1358   00265E  28DE               	incf	postinc2,w,c
  1359   002660  B4D8               	btfsc	status,2,c
  1360   002662  D01B               	goto	l1289
  1361   002664                     l1283:
  1362                           
  1363                           ;mmc/system.c: 145:   (*p_timer)++;
  1364   002664  C530  F4D9         	movff	TimerCheck@p_timer,fsr2l
  1365   002668  C531  F4DA         	movff	TimerCheck@p_timer+1,fsr2h
  1366   00266C  2ADE               	incf	postinc2,f,c
  1367   00266E  0E00               	movlw	0
  1368   002670  22DD               	addwfc	postdec2,f,c
  1369                           
  1370                           ;mmc/system.c: 146:   if (*p_timer >= time) {
  1371   002672  C530  F4D9         	movff	TimerCheck@p_timer,fsr2l
  1372   002676  C531  F4DA         	movff	TimerCheck@p_timer+1,fsr2h
  1373   00267A  5032               	movf	TimerCheck@time^(0+1280),w,c
  1374   00267C  5CDE               	subwf	postinc2,w,c
  1375   00267E  5033               	movf	(TimerCheck@time+1)^(0+1280),w,c
  1376   002680  58DE               	subwfb	postinc2,w,c
  1377   002682  A0D8               	btfss	status,0,c
  1378   002684  D00A               	goto	l1289
  1379                           
  1380                           ;mmc/system.c: 147:    *p_timer = (0xFFFF);
  1381   002686  C530  F4D9         	movff	TimerCheck@p_timer,fsr2l
  1382   00268A  C531  F4DA         	movff	TimerCheck@p_timer+1,fsr2h
  1383   00268E  0EFF               	movlw	255
  1384   002690  6EDE               	movwf	postinc2,c
  1385   002692  0EFF               	movlw	255
  1386   002694  6EDD               	movwf	postdec2,c
  1387                           
  1388                           ;mmc/system.c: 148:    ret_val = (1);
  1389   002696  0E01               	movlw	1
  1390   002698  6E36               	movwf	TimerCheck@ret_val^(0+1280),c
  1391   00269A                     l1289:
  1392                           
  1393                           ;mmc/system.c: 151:  return ret_val;
  1394   00269A  5036               	movf	TimerCheck@ret_val^(0+1280),w,c
  1395   00269C  0012               	return		;funcret
  1396   00269E                     __end_of_TimerCheck:
  1397                           	callstack 0
  1398                           
  1399 ;; *************** function _PWM1_SetSlice1Output2DutyCycleRegister *****************
  1400 ;; Defined at:
  1401 ;;		line 75 in file "mmc/pwm1.c"
  1402 ;; Parameters:    Size  Location     Type
  1403 ;;  value           2    1[COMRAM] unsigned short 
  1404 ;; Auto vars:     Size  Location     Type
  1405 ;;		None
  1406 ;; Return value:  Size  Location     Type
  1407 ;;                  1    wreg      void 
  1408 ;; Registers used:
  1409 ;;		None
  1410 ;; Tracked objects:
  1411 ;;		On entry : 0/3
  1412 ;;		On exit  : 0/0
  1413 ;;		Unchanged: 0/0
  1414 ;; Data sizes:     COMRAM   BANK5   BANK6   BANK7   BANK8   BANK9  BANK10  BANK11  BANK12  BANK13  BANK14  BANK15  BANK1
      +6  BANK17  BANK18  BANK19  BANK20  BANK21  BANK22  BANK23  BANK24  BANK25  BANK26  BANK27  BANK28  BANK29  BANK30  BANK3
      +1  BANK32  BANK33  BANK34  BANK35  BANK36
  1415 ;;      Params:         2       0       0       0       0       0       0       0       0       0       0       0       
      +0       0       0       0       0       0       0       0       0       0       0       0       0       0       0       
      +0       0       0       0       0       0
  1416 ;;      Locals:         0       0       0       0       0       0       0       0       0       0       0       0       
      +0       0       0       0       0       0       0       0       0       0       0       0       0       0       0       
      +0       0       0       0       0       0
  1417 ;;      Temps:          0       0       0       0       0       0       0       0       0       0       0       0       
      +0       0       0       0       0       0       0       0       0       0       0       0       0       0       0       
      +0       0       0       0       0       0
  1418 ;;      Totals:         2       0       0       0       0       0       0       0       0       0       0       0       
      +0       0       0       0       0       0       0       0       0       0       0       0       0       0       0       
      +0       0       0       0       0       0
  1419 ;;Total ram usage:        2 bytes
  1420 ;; Hardware stack levels used: 1
  1421 ;; Hardware stack levels required when called: 1
  1422 ;; This function calls:
  1423 ;;		Nothing
  1424 ;; This function is called by:
  1425 ;;		_loop
  1426 ;; This function uses a non-reentrant model
  1427 ;;
  1428                           
  1429                           	psect	text11
  1430   00290E                     __ptext11:
  1431                           	callstack 0
  1432   00290E                     _PWM1_SetSlice1Output2DutyCycleRegister:
  1433                           	callstack 124
  1434                           
  1435                           ;mmc/pwm1.c: 76:  PWM1S1P2L = (uint8_t)value;
  1436                           
  1437                           ;incstack = 0
  1438   00290E  C530  F46D         	movff	PWM1_SetSlice1Output2DutyCycleRegister@value,1133	;volatile
  1439                           
  1440                           ;mmc/pwm1.c: 77:  PWM1S1P2H = (uint8_t)(value >> 8);
  1441   002912  C531  F46E         	movff	PWM1_SetSlice1Output2DutyCycleRegister@value+1,1134	;volatile
  1442   002916  0012               	return		;funcret
  1443   002918                     __end_of_PWM1_SetSlice1Output2DutyCycleRegister:
  1444                           	callstack 0
  1445                           
  1446 ;; *************** function _PWM1_LoadBufferRegisters *****************
  1447 ;; Defined at:
  1448 ;;		line 80 in file "mmc/pwm1.c"
  1449 ;; Parameters:    Size  Location     Type
  1450 ;;		None
  1451 ;; Auto vars:     Size  Location     Type
  1452 ;;		None
  1453 ;; Return value:  Size  Location     Type
  1454 ;;                  1    wreg      void 
  1455 ;; Registers used:
  1456 ;;		None
  1457 ;; Tracked objects:
  1458 ;;		On entry : 0/3
  1459 ;;		On exit  : 0/0
  1460 ;;		Unchanged: 0/0
  1461 ;; Data sizes:     COMRAM   BANK5   BANK6   BANK7   BANK8   BANK9  BANK10  BANK11  BANK12  BANK13  BANK14  BANK15  BANK1
      +6  BANK17  BANK18  BANK19  BANK20  BANK21  BANK22  BANK23  BANK24  BANK25  BANK26  BANK27  BANK28  BANK29  BANK30  BANK3
      +1  BANK32  BANK33  BANK34  BANK35  BANK36
  1462 ;;      Params:         0       0       0       0       0       0       0       0       0       0       0       0       
      +0       0       0       0       0       0       0       0       0       0       0       0       0       0       0       
      +0       0       0       0       0       0
  1463 ;;      Locals:         0       0       0       0       0       0       0       0       0       0       0       0       
      +0       0       0       0       0       0       0       0       0       0       0       0       0       0       0       
      +0       0       0       0       0       0
  1464 ;;      Temps:          0       0       0       0       0       0       0       0       0       0       0       0       
      +0       0       0       0       0       0       0       0       0       0       0       0       0       0       0       
      +0       0       0       0       0       0
  1465 ;;      Totals:         0       0       0       0       0       0       0       0       0       0       0       0       
      +0       0       0       0       0       0       0       0       0       0       0       0       0       0       0       
      +0       0       0       0       0       0
  1466 ;;Total ram usage:        0 bytes
  1467 ;; Hardware stack levels used: 1
  1468 ;; Hardware stack levels required when called: 1
  1469 ;; This function calls:
  1470 ;;		Nothing
  1471 ;; This function is called by:
  1472 ;;		_loop
  1473 ;; This function uses a non-reentrant model
  1474 ;;
  1475                           
  1476                           	psect	text12
  1477   002926                     __ptext12:
  1478                           	callstack 0
  1479   002926                     _PWM1_LoadBufferRegisters:
  1480                           	callstack 124
  1481                           
  1482                           ;mmc/pwm1.c: 82:  PWM1CONbits.LD = 1;
  1483                           
  1484                           ;incstack = 0
  1485   002926  8469               	bsf	105,2,c	;volatile
  1486   002928  0012               	return		;funcret
  1487   00292A                     __end_of_PWM1_LoadBufferRegisters:
  1488                           	callstack 0
  1489                           
  1490 ;; *************** function _EchoStr *****************
  1491 ;; Defined at:
  1492 ;;		line 162 in file "mmc/system.c"
  1493 ;; Parameters:    Size  Location     Type
  1494 ;;  p_data          1    2[COMRAM] PTR unsigned char 
  1495 ;;		 -> STR_1(3), 
  1496 ;; Auto vars:     Size  Location     Type
  1497 ;;		None
  1498 ;; Return value:  Size  Location     Type
  1499 ;;                  1    wreg      void 
  1500 ;; Registers used:
  1501 ;;		wreg, fsr2l, fsr2h, status,2, status,0, tblptrl, tblptrh, tblptru, cstack
  1502 ;; Tracked objects:
  1503 ;;		On entry : 0/3
  1504 ;;		On exit  : 0/0
  1505 ;;		Unchanged: 0/0
  1506 ;; Data sizes:     COMRAM   BANK5   BANK6   BANK7   BANK8   BANK9  BANK10  BANK11  BANK12  BANK13  BANK14  BANK15  BANK1
      +6  BANK17  BANK18  BANK19  BANK20  BANK21  BANK22  BANK23  BANK24  BANK25  BANK26  BANK27  BANK28  BANK29  BANK30  BANK3
      +1  BANK32  BANK33  BANK34  BANK35  BANK36
  1507 ;;      Params:         1       0       0       0       0       0       0       0       0       0       0       0       
      +0       0       0       0       0       0       0       0       0       0       0       0       0       0       0       
      +0       0       0       0       0       0
  1508 ;;      Locals:         0       0       0       0       0       0       0       0       0       0       0       0       
      +0       0       0       0       0       0       0       0       0       0       0       0       0       0       0       
      +0       0       0       0       0       0
  1509 ;;      Temps:          0       0       0       0       0       0       0       0       0       0       0       0       
      +0       0       0       0       0       0       0       0       0       0       0       0       0       0       0       
      +0       0       0       0       0       0
  1510 ;;      Totals:         1       0       0       0       0       0       0       0       0       0       0       0       
      +0       0       0       0       0       0       0       0       0       0       0       0       0       0       0       
      +0       0       0       0       0       0
  1511 ;;Total ram usage:        1 bytes
  1512 ;; Hardware stack levels used: 1
  1513 ;; Hardware stack levels required when called: 2
  1514 ;; This function calls:
  1515 ;;		_UART3_Write
  1516 ;; This function is called by:
  1517 ;;		_loop
  1518 ;; This function uses a non-reentrant model
  1519 ;;
  1520                           
  1521                           	psect	text13
  1522   00277E                     __ptext13:
  1523                           	callstack 0
  1524   00277E                     _EchoStr:
  1525                           	callstack 123
  1526                           
  1527                           ;mmc/system.c: 163:  while (*p_data != 0x00) {
  1528                           
  1529                           ;incstack = 0
  1530   00277E  D00B               	goto	l1305
  1531   002780                     l1301:
  1532                           
  1533                           ;mmc/system.c: 164:   UART3_Write(*p_data);
  1534   002780  C531  F4F6         	movff	EchoStr@p_data,tblptrl
  1535   002784                     	if	1	;There is more than 1 active tblptr byte
  1536   002784  0E25               	movlw	high __smallconst
  1537   002786  6EF7               	movwf	tblptrh,c
  1538   002788                     	endif
  1539   002788                     	if	0	;tblptru may be non-zero
  1540   002788                     	endif
  1541   002788                     	if	1	;Program memory is > 0xFFFF, there are 3 active tblptr bytes
  1542   002788  0E00               	movlw	low (__smallconst shr (0+16))
  1543   00278A  6EF8               	movwf	tblptru,c
  1544   00278C                     	endif
  1545   00278C  0008               	tblrd		*
  1546   00278E  50F5               	movf	tablat,w,c
  1547   002790  ECEC  F013         	call	_UART3_Write
  1548                           
  1549                           ;mmc/system.c: 165:   p_data++;
  1550   002794  2A31               	incf	EchoStr@p_data^(0+1280),f,c
  1551   002796                     l1305:
  1552                           
  1553                           ;mmc/system.c: 163:  while (*p_data != 0x00) {
  1554   002796  C531  F4F6         	movff	EchoStr@p_data,tblptrl
  1555   00279A                     	if	1	;There is more than 1 active tblptr byte
  1556   00279A  0E25               	movlw	high __smallconst
  1557   00279C  6EF7               	movwf	tblptrh,c
  1558   00279E                     	endif
  1559   00279E                     	if	0	;tblptru may be non-zero
  1560   00279E                     	endif
  1561   00279E                     	if	1	;Program memory is > 0xFFFF, there are 3 active tblptr bytes
  1562   00279E  0E00               	movlw	low (__smallconst shr (0+16))
  1563   0027A0  6EF8               	movwf	tblptru,c
  1564   0027A2                     	endif
  1565   0027A2  0008               	tblrd		*
  1566   0027A4  50F5               	movf	tablat,w,c
  1567   0027A6  0900               	iorlw	0
  1568   0027A8  B4D8               	btfsc	status,2,c
  1569   0027AA  0012               	return	
  1570   0027AC  D7E9               	goto	l1301
  1571   0027AE                     __end_of_EchoStr:
  1572                           	callstack 0
  1573                           
  1574 ;; *************** function _EchoHex *****************
  1575 ;; Defined at:
  1576 ;;		line 154 in file "mmc/system.c"
  1577 ;; Parameters:    Size  Location     Type
  1578 ;;  data            1    wreg     unsigned char 
  1579 ;; Auto vars:     Size  Location     Type
  1580 ;;  data            1    4[COMRAM] unsigned char 
  1581 ;; Return value:  Size  Location     Type
  1582 ;;                  1    wreg      void 
  1583 ;; Registers used:
  1584 ;;		wreg, fsr2l, fsr2h, status,2, status,0, tblptrl, tblptrh, tblptru, cstack
  1585 ;; Tracked objects:
  1586 ;;		On entry : 0/3
  1587 ;;		On exit  : 0/0
  1588 ;;		Unchanged: 0/0
  1589 ;; Data sizes:     COMRAM   BANK5   BANK6   BANK7   BANK8   BANK9  BANK10  BANK11  BANK12  BANK13  BANK14  BANK15  BANK1
      +6  BANK17  BANK18  BANK19  BANK20  BANK21  BANK22  BANK23  BANK24  BANK25  BANK26  BANK27  BANK28  BANK29  BANK30  BANK3
      +1  BANK32  BANK33  BANK34  BANK35  BANK36
  1590 ;;      Params:         0       0       0       0       0       0       0       0       0       0       0       0       
      +0       0       0       0       0       0       0       0       0       0       0       0       0       0       0       
      +0       0       0       0       0       0
  1591 ;;      Locals:         1       0       0       0       0       0       0       0       0       0       0       0       
      +0       0       0       0       0       0       0       0       0       0       0       0       0       0       0       
      +0       0       0       0       0       0
  1592 ;;      Temps:          2       0       0       0       0       0       0       0       0       0       0       0       
      +0       0       0       0       0       0       0       0       0       0       0       0       0       0       0       
      +0       0       0       0       0       0
  1593 ;;      Totals:         3       0       0       0       0       0       0       0       0       0       0       0       
      +0       0       0       0       0       0       0       0       0       0       0       0       0       0       0       
      +0       0       0       0       0       0
  1594 ;;Total ram usage:        3 bytes
  1595 ;; Hardware stack levels used: 1
  1596 ;; Hardware stack levels required when called: 2
  1597 ;; This function calls:
  1598 ;;		_UART3_Write
  1599 ;; This function is called by:
  1600 ;;		_loop
  1601 ;; This function uses a non-reentrant model
  1602 ;;
  1603                           
  1604                           	psect	text14
  1605   00269E                     __ptext14:
  1606                           	callstack 0
  1607   00269E                     _EchoHex:
  1608                           	callstack 123
  1609                           
  1610                           ;incstack = 0
  1611                           ;EchoHex@data stored from wreg
  1612   00269E  6E33               	movwf	EchoHex@data^(0+1280),c
  1613                           
  1614                           ;mmc/system.c: 155:  static const uint8_t hex_table[] = {;mmc/system.c: 158:  UART3_Writ
      +                          e(hex_table[(data >> 4) & 0x0F]);
  1615   0026A0  C533  F531         	movff	EchoHex@data,??_EchoHex
  1616   0026A4  3A31               	swapf	??_EchoHex^(0+1280),f,c
  1617   0026A6  0E0F               	movlw	15
  1618   0026A8  1631               	andwf	??_EchoHex^(0+1280),f,c
  1619   0026AA  0E0F               	movlw	15
  1620   0026AC  1631               	andwf	??_EchoHex^(0+1280),f,c
  1621   0026AE  5031               	movf	??_EchoHex^(0+1280),w,c
  1622   0026B0  0F01               	addlw	low EchoHex@hex_table
  1623   0026B2  6E32               	movwf	(??_EchoHex+1)^(0+1280),c
  1624   0026B4  C532  F4F6         	movff	??_EchoHex+1,tblptrl
  1625   0026B8                     	if	1	;There is more than 1 active tblptr byte
  1626   0026B8  0E25               	movlw	high __smallconst
  1627   0026BA  6EF7               	movwf	tblptrh,c
  1628   0026BC                     	endif
  1629   0026BC                     	if	0	;tblptru may be non-zero
  1630   0026BC                     	endif
  1631   0026BC                     	if	1	;Program memory is > 0xFFFF, there are 3 active tblptr bytes
  1632   0026BC  0E00               	movlw	low (__smallconst shr (0+16))
  1633   0026BE  6EF8               	movwf	tblptru,c
  1634   0026C0                     	endif
  1635   0026C0  0008               	tblrd		*
  1636   0026C2  50F5               	movf	tablat,w,c
  1637   0026C4  ECEC  F013         	call	_UART3_Write
  1638                           
  1639                           ;mmc/system.c: 159:  UART3_Write(hex_table[data & 0x0F]);
  1640   0026C8  C533  F531         	movff	EchoHex@data,??_EchoHex
  1641   0026CC  0E0F               	movlw	15
  1642   0026CE  1631               	andwf	??_EchoHex^(0+1280),f,c
  1643   0026D0  5031               	movf	??_EchoHex^(0+1280),w,c
  1644   0026D2  0F01               	addlw	low EchoHex@hex_table
  1645   0026D4  6E32               	movwf	(??_EchoHex+1)^(0+1280),c
  1646   0026D6  C532  F4F6         	movff	??_EchoHex+1,tblptrl
  1647   0026DA                     	if	1	;There is more than 1 active tblptr byte
  1648   0026DA  0E25               	movlw	high __smallconst
  1649   0026DC  6EF7               	movwf	tblptrh,c
  1650   0026DE                     	endif
  1651   0026DE                     	if	0	;tblptru may be non-zero
  1652   0026DE                     	endif
  1653   0026DE                     	if	1	;Program memory is > 0xFFFF, there are 3 active tblptr bytes
  1654   0026DE  0E00               	movlw	low (__smallconst shr (0+16))
  1655   0026E0  6EF8               	movwf	tblptru,c
  1656   0026E2                     	endif
  1657   0026E2  0008               	tblrd		*
  1658   0026E4  50F5               	movf	tablat,w,c
  1659   0026E6  ECEC  F013         	call	_UART3_Write
  1660   0026EA  0012               	return		;funcret
  1661   0026EC                     __end_of_EchoHex:
  1662                           	callstack 0
  1663                           
  1664 ;; *************** function _UART3_Write *****************
  1665 ;; Defined at:
  1666 ;;		line 92 in file "mmc/uart3.c"
  1667 ;; Parameters:    Size  Location     Type
  1668 ;;  data            1    wreg     unsigned char 
  1669 ;; Auto vars:     Size  Location     Type
  1670 ;;  data            1    1[COMRAM] unsigned char 
  1671 ;; Return value:  Size  Location     Type
  1672 ;;                  1    wreg      void 
  1673 ;; Registers used:
  1674 ;;		wreg, fsr2l, fsr2h, status,2, status,0
  1675 ;; Tracked objects:
  1676 ;;		On entry : 0/3
  1677 ;;		On exit  : 0/0
  1678 ;;		Unchanged: 0/0
  1679 ;; Data sizes:     COMRAM   BANK5   BANK6   BANK7   BANK8   BANK9  BANK10  BANK11  BANK12  BANK13  BANK14  BANK15  BANK1
      +6  BANK17  BANK18  BANK19  BANK20  BANK21  BANK22  BANK23  BANK24  BANK25  BANK26  BANK27  BANK28  BANK29  BANK30  BANK3
      +1  BANK32  BANK33  BANK34  BANK35  BANK36
  1680 ;;      Params:         0       0       0       0       0       0       0       0       0       0       0       0       
      +0       0       0       0       0       0       0       0       0       0       0       0       0       0       0       
      +0       0       0       0       0       0
  1681 ;;      Locals:         1       0       0       0       0       0       0       0       0       0       0       0       
      +0       0       0       0       0       0       0       0       0       0       0       0       0       0       0       
      +0       0       0       0       0       0
  1682 ;;      Temps:          0       0       0       0       0       0       0       0       0       0       0       0       
      +0       0       0       0       0       0       0       0       0       0       0       0       0       0       0       
      +0       0       0       0       0       0
  1683 ;;      Totals:         1       0       0       0       0       0       0       0       0       0       0       0       
      +0       0       0       0       0       0       0       0       0       0       0       0       0       0       0       
      +0       0       0       0       0       0
  1684 ;;Total ram usage:        1 bytes
  1685 ;; Hardware stack levels used: 1
  1686 ;; Hardware stack levels required when called: 1
  1687 ;; This function calls:
  1688 ;;		Nothing
  1689 ;; This function is called by:
  1690 ;;		_update_out
  1691 ;;		_EchoHex
  1692 ;;		_EchoStr
  1693 ;; This function uses a non-reentrant model
  1694 ;;
  1695                           
  1696                           	psect	text15
  1697   0027D8                     __ptext15:
  1698                           	callstack 0
  1699   0027D8                     _UART3_Write:
  1700                           	callstack 123
  1701                           
  1702                           ;incstack = 0
  1703                           ;UART3_Write@data stored from wreg
  1704   0027D8  6E30               	movwf	UART3_Write@data^(0+1280),c
  1705                           
  1706                           ;mmc/uart3.c: 93:  if (u8_tx_count < (16)) {
  1707   0027DA  0E10               	movlw	16
  1708   0027DC  6025               	cpfslt	_u8_tx_count^(0+1280),c	;volatile
  1709   0027DE  D00D               	goto	l1049
  1710                           
  1711                           ;mmc/uart3.c: 94:   au8_tx_buffer[u8_tx_head] = data;
  1712   0027E0  0E01               	movlw	low _au8_tx_buffer
  1713   0027E2  2427               	addwf	_u8_tx_head^(0+1280),w,c	;volatile
  1714   0027E4  6ED9               	movwf	fsr2l,c
  1715   0027E6  6ADA               	clrf	fsr2h,c
  1716   0027E8  0E05               	movlw	high _au8_tx_buffer
  1717   0027EA  22DA               	addwfc	fsr2h,f,c
  1718   0027EC  C530  F4DF         	movff	UART3_Write@data,indf2
  1719                           
  1720                           ;mmc/uart3.c: 95:   u8_tx_head = (u8_tx_head + 1) & ((16) - 1);
  1721   0027F0  2827               	incf	_u8_tx_head^(0+1280),w,c	;volatile
  1722   0027F2  0B0F               	andlw	15
  1723   0027F4  6E27               	movwf	_u8_tx_head^(0+1280),c	;volatile
  1724                           
  1725                           ;mmc/uart3.c: 96:   U3TXIE = 0;
  1726   0027F6  92A7               	bcf	1191,1,c	;volatile
  1727                           
  1728                           ;mmc/uart3.c: 97:   u8_tx_count++;
  1729   0027F8  2A25               	incf	_u8_tx_count^(0+1280),f,c	;volatile
  1730   0027FA                     l1049:
  1731                           
  1732                           ;mmc/uart3.c: 99:  U3TXIE = 1;
  1733   0027FA  82A7               	bsf	1191,1,c	;volatile
  1734   0027FC  0012               	return		;funcret
  1735   0027FE                     __end_of_UART3_Write:
  1736                           	callstack 0
  1737                           
  1738 ;; *************** function _ADCC_GetSingleConversion *****************
  1739 ;; Defined at:
  1740 ;;		line 16 in file "mmc/adcc.c"
  1741 ;; Parameters:    Size  Location     Type
  1742 ;;		None
  1743 ;; Auto vars:     Size  Location     Type
  1744 ;;		None
  1745 ;; Return value:  Size  Location     Type
  1746 ;;                  2    1[COMRAM] unsigned short 
  1747 ;; Registers used:
  1748 ;;		wreg, status,2, status,0
  1749 ;; Tracked objects:
  1750 ;;		On entry : 0/3
  1751 ;;		On exit  : 3F/3
  1752 ;;		Unchanged: 0/0
  1753 ;; Data sizes:     COMRAM   BANK5   BANK6   BANK7   BANK8   BANK9  BANK10  BANK11  BANK12  BANK13  BANK14  BANK15  BANK1
      +6  BANK17  BANK18  BANK19  BANK20  BANK21  BANK22  BANK23  BANK24  BANK25  BANK26  BANK27  BANK28  BANK29  BANK30  BANK3
      +1  BANK32  BANK33  BANK34  BANK35  BANK36
  1754 ;;      Params:         2       0       0       0       0       0       0       0       0       0       0       0       
      +0       0       0       0       0       0       0       0       0       0       0       0       0       0       0       
      +0       0       0       0       0       0
  1755 ;;      Locals:         0       0       0       0       0       0       0       0       0       0       0       0       
      +0       0       0       0       0       0       0       0       0       0       0       0       0       0       0       
      +0       0       0       0       0       0
  1756 ;;      Temps:          2       0       0       0       0       0       0       0       0       0       0       0       
      +0       0       0       0       0       0       0       0       0       0       0       0       0       0       0       
      +0       0       0       0       0       0
  1757 ;;      Totals:         4       0       0       0       0       0       0       0       0       0       0       0       
      +0       0       0       0       0       0       0       0       0       0       0       0       0       0       0       
      +0       0       0       0       0       0
  1758 ;;Total ram usage:        4 bytes
  1759 ;; Hardware stack levels used: 1
  1760 ;; Hardware stack levels required when called: 1
  1761 ;; This function calls:
  1762 ;;		Nothing
  1763 ;; This function is called by:
  1764 ;;		_loop
  1765 ;; This function uses a non-reentrant model
  1766 ;;
  1767                           
  1768                           	psect	text16
  1769   0028CC                     __ptext16:
  1770                           	callstack 0
  1771   0028CC                     _ADCC_GetSingleConversion:
  1772                           	callstack 124
  1773                           
  1774                           ;mmc/adcc.c: 18:  ADCON0bits.ADGO = 1;
  1775                           
  1776                           ;incstack = 0
  1777   0028CC  0103               	movlb	3	; () banked
  1778   0028CE  81F3               	bsf	243,0,b	;volatile
  1779   0028D0                     l249:
  1780                           
  1781                           ; BSR set to: 3
  1782   0028D0  B1F3               	btfsc	243,0,b	;volatile
  1783   0028D2  D7FE               	goto	l249
  1784                           
  1785                           ; BSR set to: 3
  1786                           ;mmc/adcc.c: 22:  return ((uint16_t)((ADRESH << 8) + ADRESL));
  1787   0028D4  51EB               	movf	235,w,b	;volatile
  1788   0028D6  6E33               	movwf	(??_ADCC_GetSingleConversion+1)^(0+1280),c
  1789   0028D8  6A32               	clrf	??_ADCC_GetSingleConversion^(0+1280),c
  1790   0028DA  51EA               	movf	234,w,b	;volatile
  1791   0028DC  2432               	addwf	??_ADCC_GetSingleConversion^(0+1280),w,c
  1792   0028DE  6E30               	movwf	?_ADCC_GetSingleConversion^(0+1280),c
  1793   0028E0  0E00               	movlw	0
  1794   0028E2  2033               	addwfc	(??_ADCC_GetSingleConversion+1)^(0+1280),w,c
  1795   0028E4  6E31               	movwf	(?_ADCC_GetSingleConversion+1)^(0+1280),c
  1796                           
  1797                           ; BSR set to: 3
  1798   0028E6  0012               	return		;funcret
  1799   0028E8                     __end_of_ADCC_GetSingleConversion:
  1800                           	callstack 0
  1801                           
  1802 ;; *************** function _TMR2_Initialize *****************
  1803 ;; Defined at:
  1804 ;;		line 102 in file "mmc/system.c"
  1805 ;; Parameters:    Size  Location     Type
  1806 ;;		None
  1807 ;; Auto vars:     Size  Location     Type
  1808 ;;		None
  1809 ;; Return value:  Size  Location     Type
  1810 ;;                  1    wreg      void 
  1811 ;; Registers used:
  1812 ;;		wreg, status,2
  1813 ;; Tracked objects:
  1814 ;;		On entry : 3F/0
  1815 ;;		On exit  : 3F/3
  1816 ;;		Unchanged: 0/0
  1817 ;; Data sizes:     COMRAM   BANK5   BANK6   BANK7   BANK8   BANK9  BANK10  BANK11  BANK12  BANK13  BANK14  BANK15  BANK1
      +6  BANK17  BANK18  BANK19  BANK20  BANK21  BANK22  BANK23  BANK24  BANK25  BANK26  BANK27  BANK28  BANK29  BANK30  BANK3
      +1  BANK32  BANK33  BANK34  BANK35  BANK36
  1818 ;;      Params:         0       0       0       0       0       0       0       0       0       0       0       0       
      +0       0       0       0       0       0       0       0       0       0       0       0       0       0       0       
      +0       0       0       0       0       0
  1819 ;;      Locals:         0       0       0       0       0       0       0       0       0       0       0       0       
      +0       0       0       0       0       0       0       0       0       0       0       0       0       0       0       
      +0       0       0       0       0       0
  1820 ;;      Temps:          0       0       0       0       0       0       0       0       0       0       0       0       
      +0       0       0       0       0       0       0       0       0       0       0       0       0       0       0       
      +0       0       0       0       0       0
  1821 ;;      Totals:         0       0       0       0       0       0       0       0       0       0       0       0       
      +0       0       0       0       0       0       0       0       0       0       0       0       0       0       0       
      +0       0       0       0       0       0
  1822 ;;Total ram usage:        0 bytes
  1823 ;; Hardware stack levels used: 1
  1824 ;; Hardware stack levels required when called: 1
  1825 ;; This function calls:
  1826 ;;		Nothing
  1827 ;; This function is called by:
  1828 ;;		_main
  1829 ;; This function uses a non-reentrant model
  1830 ;;
  1831                           
  1832                           	psect	text17
  1833   002890                     __ptext17:
  1834                           	callstack 0
  1835   002890                     _TMR2_Initialize:
  1836                           	callstack 125
  1837                           
  1838                           ; BSR set to: 0
  1839                           ;mmc/system.c: 104:  T2CLKCON = 0x1;
  1840                           
  1841                           ; BSR set to: 3
  1842                           ;incstack = 0
  1843   002890  0E01               	movlw	1
  1844   002892  0103               	movlb	3	; () banked
  1845   002894  6F26               	movwf	38,b	;volatile
  1846                           
  1847                           ;mmc/system.c: 107:  T2HLT = 0x0;
  1848   002896  0E00               	movlw	0
  1849   002898  6F25               	movwf	37,b	;volatile
  1850                           
  1851                           ;mmc/system.c: 109:  T2RST = 0x0;
  1852   00289A  0E00               	movlw	0
  1853   00289C  6F27               	movwf	39,b	;volatile
  1854                           
  1855                           ;mmc/system.c: 111:  T2PR = 0x7C;
  1856   00289E  0E7C               	movlw	124
  1857   0028A0  6F23               	movwf	35,b	;volatile
  1858                           
  1859                           ;mmc/system.c: 113:  T2TMR = 0x0;
  1860   0028A2  0E00               	movlw	0
  1861   0028A4  6F22               	movwf	34,b	;volatile
  1862                           
  1863                           ; BSR set to: 3
  1864                           ;mmc/system.c: 115:  PIR3bits.TMR2IF = 0;
  1865   0028A6  96B1               	bcf	177,3,c	;volatile
  1866                           
  1867                           ; BSR set to: 3
  1868                           ;mmc/system.c: 117:  PIE3bits.TMR2IE = 1;
  1869   0028A8  86A1               	bsf	161,3,c	;volatile
  1870                           
  1871                           ;mmc/system.c: 119:  T2CON = 0xF0;
  1872   0028AA  0EF0               	movlw	240
  1873   0028AC  6F24               	movwf	36,b	;volatile
  1874                           
  1875                           ; BSR set to: 3
  1876   0028AE  0012               	return		;funcret
  1877   0028B0                     __end_of_TMR2_Initialize:
  1878                           	callstack 0
  1879                           
  1880 ;; *************** function _U3RX_ISR *****************
  1881 ;; Defined at:
  1882 ;;		line 22 in file "mmc/uart3.c"
  1883 ;; Parameters:    Size  Location     Type
  1884 ;;		None
  1885 ;; Auto vars:     Size  Location     Type
  1886 ;;  data            1    0[COMRAM] unsigned char 
  1887 ;; Return value:  Size  Location     Type
  1888 ;;                  1    wreg      void 
  1889 ;; Registers used:
  1890 ;;		wreg, fsr2l, fsr2h, status,2, status,0
  1891 ;; Tracked objects:
  1892 ;;		On entry : 0/0
  1893 ;;		On exit  : 0/0
  1894 ;;		Unchanged: 0/0
  1895 ;; Data sizes:     COMRAM   BANK5   BANK6   BANK7   BANK8   BANK9  BANK10  BANK11  BANK12  BANK13  BANK14  BANK15  BANK1
      +6  BANK17  BANK18  BANK19  BANK20  BANK21  BANK22  BANK23  BANK24  BANK25  BANK26  BANK27  BANK28  BANK29  BANK30  BANK3
      +1  BANK32  BANK33  BANK34  BANK35  BANK36
  1896 ;;      Params:         0       0       0       0       0       0       0       0       0       0       0       0       
      +0       0       0       0       0       0       0       0       0       0       0       0       0       0       0       
      +0       0       0       0       0       0
  1897 ;;      Locals:         1       0       0       0       0       0       0       0       0       0       0       0       
      +0       0       0       0       0       0       0       0       0       0       0       0       0       0       0       
      +0       0       0       0       0       0
  1898 ;;      Temps:          0       0       0       0       0       0       0       0       0       0       0       0       
      +0       0       0       0       0       0       0       0       0       0       0       0       0       0       0       
      +0       0       0       0       0       0
  1899 ;;      Totals:         1       0       0       0       0       0       0       0       0       0       0       0       
      +0       0       0       0       0       0       0       0       0       0       0       0       0       0       0       
      +0       0       0       0       0       0
  1900 ;;Total ram usage:        1 bytes
  1901 ;; Hardware stack levels used: 1
  1902 ;; This function calls:
  1903 ;;		Nothing
  1904 ;; This function is called by:
  1905 ;;		Interrupt level 2
  1906 ;; This function uses a non-reentrant model
  1907 ;;
  1908                           
  1909                           	psect	text18
  1910   002828                     __ptext18:
  1911                           	callstack 0
  1912   002828                     _U3RX_ISR:
  1913                           	callstack 123
  1914                           
  1915                           ;mmc/uart3.c: 23:  uint8_t data;;mmc/uart3.c: 25:  data = U3RXB;
  1916                           
  1917                           ; BSR set to: 3
  1918                           ;incstack = 0
  1919   002828  C2C7 F52F          	movff	711,U3RX_ISR@data	;volatile
  1920                           
  1921                           ;mmc/uart3.c: 26:  if (u8_rx_count < (16)) {
  1922   00282C  0E10               	movlw	16
  1923   00282E  6028               	cpfslt	_u8_rx_count^(0+1280),c	;volatile
  1924   002830  0011               	retfie		f
  1925                           
  1926                           ;mmc/uart3.c: 27:   au8_rx_buffer[u8_rx_head] = data;
  1927   002832  0E11               	movlw	low _au8_rx_buffer
  1928   002834  242A               	addwf	_u8_rx_head^(0+1280),w,c	;volatile
  1929   002836  6ED9               	movwf	fsr2l,c
  1930   002838  6ADA               	clrf	fsr2h,c
  1931   00283A  0E05               	movlw	high _au8_rx_buffer
  1932   00283C  22DA               	addwfc	fsr2h,f,c
  1933   00283E  C52F  F4DF         	movff	U3RX_ISR@data,indf2
  1934                           
  1935                           ;mmc/uart3.c: 28:   u8_rx_head = (u8_rx_head + 1) & ((16) - 1);
  1936   002842  282A               	incf	_u8_rx_head^(0+1280),w,c	;volatile
  1937   002844  0B0F               	andlw	15
  1938   002846  6E2A               	movwf	_u8_rx_head^(0+1280),c	;volatile
  1939                           
  1940                           ;mmc/uart3.c: 29:   u8_rx_count++;
  1941   002848  2A28               	incf	_u8_rx_count^(0+1280),f,c	;volatile
  1942   00284A  0011               	retfie		f
  1943   00284C                     __end_of_U3RX_ISR:
  1944                           	callstack 0
  1945                           
  1946 ;; *************** function _U3TX_ISR *****************
  1947 ;; Defined at:
  1948 ;;		line 33 in file "mmc/uart3.c"
  1949 ;; Parameters:    Size  Location     Type
  1950 ;;		None
  1951 ;; Auto vars:     Size  Location     Type
  1952 ;;		None
  1953 ;; Return value:  Size  Location     Type
  1954 ;;                  1    wreg      void 
  1955 ;; Registers used:
  1956 ;;		wreg, fsr2l, fsr2h, status,2, status,0
  1957 ;; Tracked objects:
  1958 ;;		On entry : 0/0
  1959 ;;		On exit  : 0/0
  1960 ;;		Unchanged: 0/0
  1961 ;; Data sizes:     COMRAM   BANK5   BANK6   BANK7   BANK8   BANK9  BANK10  BANK11  BANK12  BANK13  BANK14  BANK15  BANK1
      +6  BANK17  BANK18  BANK19  BANK20  BANK21  BANK22  BANK23  BANK24  BANK25  BANK26  BANK27  BANK28  BANK29  BANK30  BANK3
      +1  BANK32  BANK33  BANK34  BANK35  BANK36
  1962 ;;      Params:         0       0       0       0       0       0       0       0       0       0       0       0       
      +0       0       0       0       0       0       0       0       0       0       0       0       0       0       0       
      +0       0       0       0       0       0
  1963 ;;      Locals:         0       0       0       0       0       0       0       0       0       0       0       0       
      +0       0       0       0       0       0       0       0       0       0       0       0       0       0       0       
      +0       0       0       0       0       0
  1964 ;;      Temps:          0       0       0       0       0       0       0       0       0       0       0       0       
      +0       0       0       0       0       0       0       0       0       0       0       0       0       0       0       
      +0       0       0       0       0       0
  1965 ;;      Totals:         0       0       0       0       0       0       0       0       0       0       0       0       
      +0       0       0       0       0       0       0       0       0       0       0       0       0       0       0       
      +0       0       0       0       0       0
  1966 ;;Total ram usage:        0 bytes
  1967 ;; Hardware stack levels used: 1
  1968 ;; This function calls:
  1969 ;;		Nothing
  1970 ;; This function is called by:
  1971 ;;		Interrupt level 2
  1972 ;; This function uses a non-reentrant model
  1973 ;;
  1974                           
  1975                           	psect	text19
  1976   002800                     __ptext19:
  1977                           	callstack 0
  1978   002800                     _U3TX_ISR:
  1979                           	callstack 123
  1980                           
  1981                           ;mmc/uart3.c: 35:  if (u8_tx_count > 0) {
  1982                           
  1983                           ;incstack = 0
  1984   002800  5025               	movf	_u8_tx_count^(0+1280),w,c	;volatile
  1985   002802  B4D8               	btfsc	status,2,c
  1986   002804  D00E               	goto	i2l57
  1987                           
  1988                           ;mmc/uart3.c: 36:   U3TXB = au8_tx_buffer[u8_tx_tail];
  1989   002806  0E01               	movlw	low _au8_tx_buffer
  1990   002808  2426               	addwf	_u8_tx_tail^(0+1280),w,c	;volatile
  1991   00280A  6ED9               	movwf	fsr2l,c
  1992   00280C  6ADA               	clrf	fsr2h,c
  1993   00280E  0E05               	movlw	high _au8_tx_buffer
  1994   002810  22DA               	addwfc	fsr2h,f,c
  1995   002812  50DF               	movf	indf2,w,c
  1996   002814  0102               	movlb	2	; () banked
  1997   002816  6FC9               	movwf	201,b	;volatile
  1998                           
  1999                           ; BSR set to: 2
  2000                           ;mmc/uart3.c: 37:   u8_tx_tail = (u8_tx_tail + 1) & ((16) - 1);
  2001   002818  2826               	incf	_u8_tx_tail^(0+1280),w,c	;volatile
  2002   00281A  0B0F               	andlw	15
  2003   00281C  6E26               	movwf	_u8_tx_tail^(0+1280),c	;volatile
  2004                           
  2005                           ; BSR set to: 2
  2006                           ;mmc/uart3.c: 38:   u8_tx_count--;
  2007   00281E  0625               	decf	_u8_tx_count^(0+1280),f,c	;volatile
  2008                           
  2009                           ;mmc/uart3.c: 39:  }
  2010   002820  0011               	retfie		f
  2011   002822                     i2l57:
  2012                           
  2013                           ;mmc/uart3.c: 41:   U3TXIE = 0;
  2014   002822  92A7               	bcf	1191,1,c	;volatile
  2015   002824  0011               	retfie		f
  2016   002826                     __end_of_U3TX_ISR:
  2017                           	callstack 0
  2018                           
  2019 ;; *************** function _INT0_ISR *****************
  2020 ;; Defined at:
  2021 ;;		line 22 in file "mix_sam03.c"
  2022 ;; Parameters:    Size  Location     Type
  2023 ;;		None
  2024 ;; Auto vars:     Size  Location     Type
  2025 ;;		None
  2026 ;; Return value:  Size  Location     Type
  2027 ;;                  1    wreg      void 
  2028 ;; Registers used:
  2029 ;;		status,2, status,0
  2030 ;; Tracked objects:
  2031 ;;		On entry : 0/0
  2032 ;;		On exit  : 0/0
  2033 ;;		Unchanged: 0/0
  2034 ;; Data sizes:     COMRAM   BANK5   BANK6   BANK7   BANK8   BANK9  BANK10  BANK11  BANK12  BANK13  BANK14  BANK15  BANK1
      +6  BANK17  BANK18  BANK19  BANK20  BANK21  BANK22  BANK23  BANK24  BANK25  BANK26  BANK27  BANK28  BANK29  BANK30  BANK3
      +1  BANK32  BANK33  BANK34  BANK35  BANK36
  2035 ;;      Params:         0       0       0       0       0       0       0       0       0       0       0       0       
      +0       0       0       0       0       0       0       0       0       0       0       0       0       0       0       
      +0       0       0       0       0       0
  2036 ;;      Locals:         0       0       0       0       0       0       0       0       0       0       0       0       
      +0       0       0       0       0       0       0       0       0       0       0       0       0       0       0       
      +0       0       0       0       0       0
  2037 ;;      Temps:          0       0       0       0       0       0       0       0       0       0       0       0       
      +0       0       0       0       0       0       0       0       0       0       0       0       0       0       0       
      +0       0       0       0       0       0
  2038 ;;      Totals:         0       0       0       0       0       0       0       0       0       0       0       0       
      +0       0       0       0       0       0       0       0       0       0       0       0       0       0       0       
      +0       0       0       0       0       0
  2039 ;;Total ram usage:        0 bytes
  2040 ;; Hardware stack levels used: 1
  2041 ;; This function calls:
  2042 ;;		Nothing
  2043 ;; This function is called by:
  2044 ;;		Interrupt level 2
  2045 ;; This function uses a non-reentrant model
  2046 ;;
  2047                           
  2048                           	psect	text20
  2049   002918                     __ptext20:
  2050                           	callstack 0
  2051   002918                     _INT0_ISR:
  2052                           	callstack 123
  2053                           
  2054                           ;mix_sam03.c: 24:  INT0IF = 0;
  2055                           
  2056                           ;incstack = 0
  2057   002918  90AF               	bcf	1199,0,c	;volatile
  2058                           
  2059                           ;mix_sam03.c: 26:  u8_count_out++;
  2060   00291A  2A24               	incf	_u8_count_out^(0+1280),f,c	;volatile
  2061   00291C  0011               	retfie		f
  2062   00291E                     __end_of_INT0_ISR:
  2063                           	callstack 0
  2064                           
  2065 ;; *************** function _DEFAULT_ISR *****************
  2066 ;; Defined at:
  2067 ;;		line 73 in file "mmc/system.c"
  2068 ;; Parameters:    Size  Location     Type
  2069 ;;		None
  2070 ;; Auto vars:     Size  Location     Type
  2071 ;;		None
  2072 ;; Return value:  Size  Location     Type
  2073 ;;                  1    wreg      void 
  2074 ;; Registers used:
  2075 ;;		None
  2076 ;; Tracked objects:
  2077 ;;		On entry : 0/0
  2078 ;;		On exit  : 0/0
  2079 ;;		Unchanged: 0/0
  2080 ;; Data sizes:     COMRAM   BANK5   BANK6   BANK7   BANK8   BANK9  BANK10  BANK11  BANK12  BANK13  BANK14  BANK15  BANK1
      +6  BANK17  BANK18  BANK19  BANK20  BANK21  BANK22  BANK23  BANK24  BANK25  BANK26  BANK27  BANK28  BANK29  BANK30  BANK3
      +1  BANK32  BANK33  BANK34  BANK35  BANK36
  2081 ;;      Params:         0       0       0       0       0       0       0       0       0       0       0       0       
      +0       0       0       0       0       0       0       0       0       0       0       0       0       0       0       
      +0       0       0       0       0       0
  2082 ;;      Locals:         0       0       0       0       0       0       0       0       0       0       0       0       
      +0       0       0       0       0       0       0       0       0       0       0       0       0       0       0       
      +0       0       0       0       0       0
  2083 ;;      Temps:          0       0       0       0       0       0       0       0       0       0       0       0       
      +0       0       0       0       0       0       0       0       0       0       0       0       0       0       0       
      +0       0       0       0       0       0
  2084 ;;      Totals:         0       0       0       0       0       0       0       0       0       0       0       0       
      +0       0       0       0       0       0       0       0       0       0       0       0       0       0       0       
      +0       0       0       0       0       0
  2085 ;;Total ram usage:        0 bytes
  2086 ;; Hardware stack levels used: 1
  2087 ;; This function calls:
  2088 ;;		Nothing
  2089 ;; This function is called by:
  2090 ;;		Interrupt level 2
  2091 ;; This function uses a non-reentrant model
  2092 ;;
  2093                           
  2094                           	psect	text21
  2095   00292C                     __ptext21:
  2096                           	callstack 0
  2097   00292C                     _DEFAULT_ISR:
  2098                           	callstack 123
  2099                           
  2100                           ;incstack = 0
  2101   00292C  0011               	retfie		f
  2102   00292E                     __end_of_DEFAULT_ISR:
  2103                           	callstack 0
  2104                           
  2105 ;; *************** function _TMR2_ISR *****************
  2106 ;; Defined at:
  2107 ;;		line 76 in file "mmc/system.c"
  2108 ;; Parameters:    Size  Location     Type
  2109 ;;		None
  2110 ;; Auto vars:     Size  Location     Type
  2111 ;;		None
  2112 ;; Return value:  Size  Location     Type
  2113 ;;                  1    wreg      void 
  2114 ;; Registers used:
  2115 ;;		status,2, status,0
  2116 ;; Tracked objects:
  2117 ;;		On entry : 0/0
  2118 ;;		On exit  : 0/0
  2119 ;;		Unchanged: 0/0
  2120 ;; Data sizes:     COMRAM   BANK5   BANK6   BANK7   BANK8   BANK9  BANK10  BANK11  BANK12  BANK13  BANK14  BANK15  BANK1
      +6  BANK17  BANK18  BANK19  BANK20  BANK21  BANK22  BANK23  BANK24  BANK25  BANK26  BANK27  BANK28  BANK29  BANK30  BANK3
      +1  BANK32  BANK33  BANK34  BANK35  BANK36
  2121 ;;      Params:         0       0       0       0       0       0       0       0       0       0       0       0       
      +0       0       0       0       0       0       0       0       0       0       0       0       0       0       0       
      +0       0       0       0       0       0
  2122 ;;      Locals:         0       0       0       0       0       0       0       0       0       0       0       0       
      +0       0       0       0       0       0       0       0       0       0       0       0       0       0       0       
      +0       0       0       0       0       0
  2123 ;;      Temps:          0       0       0       0       0       0       0       0       0       0       0       0       
      +0       0       0       0       0       0       0       0       0       0       0       0       0       0       0       
      +0       0       0       0       0       0
  2124 ;;      Totals:         0       0       0       0       0       0       0       0       0       0       0       0       
      +0       0       0       0       0       0       0       0       0       0       0       0       0       0       0       
      +0       0       0       0       0       0
  2125 ;;Total ram usage:        0 bytes
  2126 ;; Hardware stack levels used: 1
  2127 ;; This function calls:
  2128 ;;		Nothing
  2129 ;; This function is called by:
  2130 ;;		Interrupt level 2
  2131 ;; This function uses a non-reentrant model
  2132 ;;
  2133                           
  2134                           	psect	text22
  2135   002920                     __ptext22:
  2136                           	callstack 0
  2137   002920                     _TMR2_ISR:
  2138                           	callstack 123
  2139                           
  2140                           ;mmc/system.c: 78:  TMR2IF = 0;
  2141                           
  2142                           ;incstack = 0
  2143   002920  96B1               	bcf	1201,3,c	;volatile
  2144                           
  2145                           ;mmc/system.c: 80:  u8_sys_counter++;
  2146   002922  2A23               	incf	_u8_sys_counter^(0+1280),f,c	;volatile
  2147   002924  0011               	retfie		f
  2148   002926                     __end_of_TMR2_ISR:
  2149                           	callstack 0
  2150                           
  2151                           ;
  2152                           ; Interrupt Vector Table @ 0x8
  2153                           ;
  2154                           
  2155                           	psect	ivt0x8
  2156   000008                     __pivt0x8:
  2157                           	callstack 0
  2158   000008                     ivt0x8_base:
  2159                           	callstack 0
  2160                           
  2161                           ; Vector 0 : SWINT
  2162   000008  0A4B               	dw	_DEFAULT_ISR shr (0+2)
  2163                           
  2164                           ; Vector 1 : HLVD
  2165   00000A  0A4B               	dw	_DEFAULT_ISR shr (0+2)
  2166                           
  2167                           ; Vector 2 : OSF
  2168   00000C  0A4B               	dw	_DEFAULT_ISR shr (0+2)
  2169                           
  2170                           ; Vector 3 : CSW
  2171   00000E  0A4B               	dw	_DEFAULT_ISR shr (0+2)
  2172                           
  2173                           ; Vector 4 : Undefined
  2174   000010  0040               	dw	ivt0x8_undefint shr (0+2)
  2175                           
  2176                           ; Vector 5 : CLC1
  2177   000012  0A4B               	dw	_DEFAULT_ISR shr (0+2)
  2178                           
  2179                           ; Vector 6 : Undefined
  2180   000014  0040               	dw	ivt0x8_undefint shr (0+2)
  2181                           
  2182                           ; Vector 7 : IOC
  2183   000016  0A4B               	dw	_DEFAULT_ISR shr (0+2)
  2184                           
  2185                           ; Vector 8 : INT0
  2186   000018  0A46               	dw	_INT0_ISR shr (0+2)
  2187                           
  2188                           ; Vector 9 : ZCD
  2189   00001A  0A4B               	dw	_DEFAULT_ISR shr (0+2)
  2190                           
  2191                           ; Vector 10 : AD
  2192   00001C  0A4B               	dw	_DEFAULT_ISR shr (0+2)
  2193                           
  2194                           ; Vector 11 : ACT
  2195   00001E  0A4B               	dw	_DEFAULT_ISR shr (0+2)
  2196                           
  2197                           ; Vector 12 : CMP1
  2198   000020  0A4B               	dw	_DEFAULT_ISR shr (0+2)
  2199                           
  2200                           ; Vector 13 : SMT1
  2201   000022  0A4B               	dw	_DEFAULT_ISR shr (0+2)
  2202                           
  2203                           ; Vector 14 : SMT1PRA
  2204   000024  0A4B               	dw	_DEFAULT_ISR shr (0+2)
  2205                           
  2206                           ; Vector 15 : SMT1PRW
  2207   000026  0A4B               	dw	_DEFAULT_ISR shr (0+2)
  2208                           
  2209                           ; Vector 16 : ADT
  2210   000028  0A4B               	dw	_DEFAULT_ISR shr (0+2)
  2211                           
  2212                           ; Vector 17 : Undefined
  2213   00002A  0040               	dw	ivt0x8_undefint shr (0+2)
  2214                           
  2215                           ; Vector 18 : Undefined
  2216   00002C  0040               	dw	ivt0x8_undefint shr (0+2)
  2217                           
  2218                           ; Vector 19 : Undefined
  2219   00002E  0040               	dw	ivt0x8_undefint shr (0+2)
  2220                           
  2221                           ; Vector 20 : DMA1SCNT
  2222   000030  0A4B               	dw	_DEFAULT_ISR shr (0+2)
  2223                           
  2224                           ; Vector 21 : DMA1DCNT
  2225   000032  0A4B               	dw	_DEFAULT_ISR shr (0+2)
  2226                           
  2227                           ; Vector 22 : DMA1OR
  2228   000034  0A4B               	dw	_DEFAULT_ISR shr (0+2)
  2229                           
  2230                           ; Vector 23 : DMA1A
  2231   000036  0A4B               	dw	_DEFAULT_ISR shr (0+2)
  2232                           
  2233                           ; Vector 24 : SPI1RX
  2234   000038  0A4B               	dw	_DEFAULT_ISR shr (0+2)
  2235                           
  2236                           ; Vector 25 : SPI1TX
  2237   00003A  0A4B               	dw	_DEFAULT_ISR shr (0+2)
  2238                           
  2239                           ; Vector 26 : SPI1
  2240   00003C  0A4B               	dw	_DEFAULT_ISR shr (0+2)
  2241                           
  2242                           ; Vector 27 : TMR2
  2243   00003E  0A48               	dw	_TMR2_ISR shr (0+2)
  2244                           
  2245                           ; Vector 28 : TMR1
  2246   000040  0A4B               	dw	_DEFAULT_ISR shr (0+2)
  2247                           
  2248                           ; Vector 29 : TMR1G
  2249   000042  0A4B               	dw	_DEFAULT_ISR shr (0+2)
  2250                           
  2251                           ; Vector 30 : CCP1
  2252   000044  0A4B               	dw	_DEFAULT_ISR shr (0+2)
  2253                           
  2254                           ; Vector 31 : TMR0
  2255   000046  0A4B               	dw	_DEFAULT_ISR shr (0+2)
  2256                           
  2257                           ; Vector 32 : U1RX
  2258   000048  0A4B               	dw	_DEFAULT_ISR shr (0+2)
  2259                           
  2260                           ; Vector 33 : U1TX
  2261   00004A  0A4B               	dw	_DEFAULT_ISR shr (0+2)
  2262                           
  2263                           ; Vector 34 : U1E
  2264   00004C  0A4B               	dw	_DEFAULT_ISR shr (0+2)
  2265                           
  2266                           ; Vector 35 : U1
  2267   00004E  0A4B               	dw	_DEFAULT_ISR shr (0+2)
  2268                           
  2269                           ; Vector 36 : Undefined
  2270   000050  0040               	dw	ivt0x8_undefint shr (0+2)
  2271                           
  2272                           ; Vector 37 : Undefined
  2273   000052  0040               	dw	ivt0x8_undefint shr (0+2)
  2274                           
  2275                           ; Vector 38 : PWM1PR
  2276   000054  0A4B               	dw	_DEFAULT_ISR shr (0+2)
  2277                           
  2278                           ; Vector 39 : PWM1
  2279   000056  0A4B               	dw	_DEFAULT_ISR shr (0+2)
  2280                           
  2281                           ; Vector 40 : SPI2RX
  2282   000058  0A4B               	dw	_DEFAULT_ISR shr (0+2)
  2283                           
  2284                           ; Vector 41 : SPI2TX
  2285   00005A  0A4B               	dw	_DEFAULT_ISR shr (0+2)
  2286                           
  2287                           ; Vector 42 : SPI2
  2288   00005C  0A4B               	dw	_DEFAULT_ISR shr (0+2)
  2289                           
  2290                           ; Vector 43 : Undefined
  2291   00005E  0040               	dw	ivt0x8_undefint shr (0+2)
  2292                           
  2293                           ; Vector 44 : TMR3
  2294   000060  0A4B               	dw	_DEFAULT_ISR shr (0+2)
  2295                           
  2296                           ; Vector 45 : TMR3G
  2297   000062  0A4B               	dw	_DEFAULT_ISR shr (0+2)
  2298                           
  2299                           ; Vector 46 : PWM2PR
  2300   000064  0A4B               	dw	_DEFAULT_ISR shr (0+2)
  2301                           
  2302                           ; Vector 47 : PWM2
  2303   000066  0A4B               	dw	_DEFAULT_ISR shr (0+2)
  2304                           
  2305                           ; Vector 48 : INT1
  2306   000068  0A4B               	dw	_DEFAULT_ISR shr (0+2)
  2307                           
  2308                           ; Vector 49 : CLC2
  2309   00006A  0A4B               	dw	_DEFAULT_ISR shr (0+2)
  2310                           
  2311                           ; Vector 50 : CWG1
  2312   00006C  0A4B               	dw	_DEFAULT_ISR shr (0+2)
  2313                           
  2314                           ; Vector 51 : NCO1
  2315   00006E  0A4B               	dw	_DEFAULT_ISR shr (0+2)
  2316                           
  2317                           ; Vector 52 : DMA2SCNT
  2318   000070  0A4B               	dw	_DEFAULT_ISR shr (0+2)
  2319                           
  2320                           ; Vector 53 : DMA2DCNT
  2321   000072  0A4B               	dw	_DEFAULT_ISR shr (0+2)
  2322                           
  2323                           ; Vector 54 : DMA2OR
  2324   000074  0A4B               	dw	_DEFAULT_ISR shr (0+2)
  2325                           
  2326                           ; Vector 55 : DMA2A
  2327   000076  0A4B               	dw	_DEFAULT_ISR shr (0+2)
  2328                           
  2329                           ; Vector 56 : I2C1RX
  2330   000078  0A4B               	dw	_DEFAULT_ISR shr (0+2)
  2331                           
  2332                           ; Vector 57 : I2C1TX
  2333   00007A  0A4B               	dw	_DEFAULT_ISR shr (0+2)
  2334                           
  2335                           ; Vector 58 : I2C1
  2336   00007C  0A4B               	dw	_DEFAULT_ISR shr (0+2)
  2337                           
  2338                           ; Vector 59 : I2C1E
  2339   00007E  0A4B               	dw	_DEFAULT_ISR shr (0+2)
  2340                           
  2341                           ; Vector 60 : Undefined
  2342   000080  0040               	dw	ivt0x8_undefint shr (0+2)
  2343                           
  2344                           ; Vector 61 : CLC3
  2345   000082  0A4B               	dw	_DEFAULT_ISR shr (0+2)
  2346                           
  2347                           ; Vector 62 : PWM3PR
  2348   000084  0A4B               	dw	_DEFAULT_ISR shr (0+2)
  2349                           
  2350                           ; Vector 63 : PWM3
  2351   000086  0A4B               	dw	_DEFAULT_ISR shr (0+2)
  2352                           
  2353                           ; Vector 64 : U2RX
  2354   000088  0A4B               	dw	_DEFAULT_ISR shr (0+2)
  2355                           
  2356                           ; Vector 65 : U2TX
  2357   00008A  0A4B               	dw	_DEFAULT_ISR shr (0+2)
  2358                           
  2359                           ; Vector 66 : U2E
  2360   00008C  0A4B               	dw	_DEFAULT_ISR shr (0+2)
  2361                           
  2362                           ; Vector 67 : U2
  2363   00008E  0A4B               	dw	_DEFAULT_ISR shr (0+2)
  2364                           
  2365                           ; Vector 68 : TMR5
  2366   000090  0A4B               	dw	_DEFAULT_ISR shr (0+2)
  2367                           
  2368                           ; Vector 69 : TMR5G
  2369   000092  0A4B               	dw	_DEFAULT_ISR shr (0+2)
  2370                           
  2371                           ; Vector 70 : CCP2
  2372   000094  0A4B               	dw	_DEFAULT_ISR shr (0+2)
  2373                           
  2374                           ; Vector 71 : SCAN
  2375   000096  0A4B               	dw	_DEFAULT_ISR shr (0+2)
  2376                           
  2377                           ; Vector 72 : U3RX
  2378   000098  0A0A               	dw	_U3RX_ISR shr (0+2)
  2379                           
  2380                           ; Vector 73 : U3TX
  2381   00009A  0A00               	dw	_U3TX_ISR shr (0+2)
  2382                           
  2383                           ; Vector 74 : U3E
  2384   00009C  0A4B               	dw	_DEFAULT_ISR shr (0+2)
  2385                           
  2386                           ; Vector 75 : U3
  2387   00009E  0A4B               	dw	_DEFAULT_ISR shr (0+2)
  2388                           
  2389                           ; Vector 76 : Undefined
  2390   0000A0  0040               	dw	ivt0x8_undefint shr (0+2)
  2391                           
  2392                           ; Vector 77 : CLC4
  2393   0000A2  0A4B               	dw	_DEFAULT_ISR shr (0+2)
  2394                           
  2395                           ; Vector 78 : Undefined
  2396   0000A4  0040               	dw	ivt0x8_undefint shr (0+2)
  2397                           
  2398                           ; Vector 79 : Undefined
  2399   0000A6  0040               	dw	ivt0x8_undefint shr (0+2)
  2400                           
  2401                           ; Vector 80 : INT2
  2402   0000A8  0A4B               	dw	_DEFAULT_ISR shr (0+2)
  2403                           
  2404                           ; Vector 81 : CLC5
  2405   0000AA  0A4B               	dw	_DEFAULT_ISR shr (0+2)
  2406                           
  2407                           ; Vector 82 : CWG2
  2408   0000AC  0A4B               	dw	_DEFAULT_ISR shr (0+2)
  2409                           
  2410                           ; Vector 83 : NCO2
  2411   0000AE  0A4B               	dw	_DEFAULT_ISR shr (0+2)
  2412                           
  2413                           ; Vector 84 : DMA3SCNT
  2414   0000B0  0A4B               	dw	_DEFAULT_ISR shr (0+2)
  2415                           
  2416                           ; Vector 85 : DMA3DCNT
  2417   0000B2  0A4B               	dw	_DEFAULT_ISR shr (0+2)
  2418                           
  2419                           ; Vector 86 : DMA3OR
  2420   0000B4  0A4B               	dw	_DEFAULT_ISR shr (0+2)
  2421                           
  2422                           ; Vector 87 : DMA3A
  2423   0000B6  0A4B               	dw	_DEFAULT_ISR shr (0+2)
  2424                           
  2425                           ; Vector 88 : CCP3
  2426   0000B8  0A4B               	dw	_DEFAULT_ISR shr (0+2)
  2427                           
  2428                           ; Vector 89 : CLC6
  2429   0000BA  0A4B               	dw	_DEFAULT_ISR shr (0+2)
  2430                           
  2431                           ; Vector 90 : CWG3
  2432   0000BC  0A4B               	dw	_DEFAULT_ISR shr (0+2)
  2433                           
  2434                           ; Vector 91 : TMR4
  2435   0000BE  0A4B               	dw	_DEFAULT_ISR shr (0+2)
  2436                           
  2437                           ; Vector 92 : DMA4SCNT
  2438   0000C0  0A4B               	dw	_DEFAULT_ISR shr (0+2)
  2439                           
  2440                           ; Vector 93 : DMA4DCNT
  2441   0000C2  0A4B               	dw	_DEFAULT_ISR shr (0+2)
  2442                           
  2443                           ; Vector 94 : DMA4OR
  2444   0000C4  0A4B               	dw	_DEFAULT_ISR shr (0+2)
  2445                           
  2446                           ; Vector 95 : DMA4A
  2447   0000C6  0A4B               	dw	_DEFAULT_ISR shr (0+2)
  2448                           
  2449                           ; Vector 96 : U4RX
  2450   0000C8  0A4B               	dw	_DEFAULT_ISR shr (0+2)
  2451                           
  2452                           ; Vector 97 : U4TX
  2453   0000CA  0A4B               	dw	_DEFAULT_ISR shr (0+2)
  2454                           
  2455                           ; Vector 98 : U4E
  2456   0000CC  0A4B               	dw	_DEFAULT_ISR shr (0+2)
  2457                           
  2458                           ; Vector 99 : U4
  2459   0000CE  0A4B               	dw	_DEFAULT_ISR shr (0+2)
  2460                           
  2461                           ; Vector 100 : DMA5SCNT
  2462   0000D0  0A4B               	dw	_DEFAULT_ISR shr (0+2)
  2463                           
  2464                           ; Vector 101 : DMA5DCNT
  2465   0000D2  0A4B               	dw	_DEFAULT_ISR shr (0+2)
  2466                           
  2467                           ; Vector 102 : DMA5OR
  2468   0000D4  0A4B               	dw	_DEFAULT_ISR shr (0+2)
  2469                           
  2470                           ; Vector 103 : DMA5A
  2471   0000D6  0A4B               	dw	_DEFAULT_ISR shr (0+2)
  2472                           
  2473                           ; Vector 104 : U5RX
  2474   0000D8  0A4B               	dw	_DEFAULT_ISR shr (0+2)
  2475                           
  2476                           ; Vector 105 : U5TX
  2477   0000DA  0A4B               	dw	_DEFAULT_ISR shr (0+2)
  2478                           
  2479                           ; Vector 106 : U5E
  2480   0000DC  0A4B               	dw	_DEFAULT_ISR shr (0+2)
  2481                           
  2482                           ; Vector 107 : U5
  2483   0000DE  0A4B               	dw	_DEFAULT_ISR shr (0+2)
  2484                           
  2485                           ; Vector 108 : DMA6SCNT
  2486   0000E0  0A4B               	dw	_DEFAULT_ISR shr (0+2)
  2487                           
  2488                           ; Vector 109 : DMA6DCNT
  2489   0000E2  0A4B               	dw	_DEFAULT_ISR shr (0+2)
  2490                           
  2491                           ; Vector 110 : DMA6OR
  2492   0000E4  0A4B               	dw	_DEFAULT_ISR shr (0+2)
  2493                           
  2494                           ; Vector 111 : DMA6A
  2495   0000E6  0A4B               	dw	_DEFAULT_ISR shr (0+2)
  2496                           
  2497                           ; Vector 112 : Undefined
  2498   0000E8  0040               	dw	ivt0x8_undefint shr (0+2)
  2499                           
  2500                           ; Vector 113 : CLC7
  2501   0000EA  0A4B               	dw	_DEFAULT_ISR shr (0+2)
  2502                           
  2503                           ; Vector 114 : CMP2
  2504   0000EC  0A4B               	dw	_DEFAULT_ISR shr (0+2)
  2505                           
  2506                           ; Vector 115 : NCO3
  2507   0000EE  0A4B               	dw	_DEFAULT_ISR shr (0+2)
  2508                           
  2509                           ; Vector 116 : Undefined
  2510   0000F0  0040               	dw	ivt0x8_undefint shr (0+2)
  2511                           
  2512                           ; Vector 117 : Undefined
  2513   0000F2  0040               	dw	ivt0x8_undefint shr (0+2)
  2514                           
  2515                           ; Vector 118 : Undefined
  2516   0000F4  0040               	dw	ivt0x8_undefint shr (0+2)
  2517                           
  2518                           ; Vector 119 : Undefined
  2519   0000F6  0040               	dw	ivt0x8_undefint shr (0+2)
  2520                           
  2521                           ; Vector 120 : NVM
  2522   0000F8  0A4B               	dw	_DEFAULT_ISR shr (0+2)
  2523                           
  2524                           ; Vector 121 : CLC8
  2525   0000FA  0A4B               	dw	_DEFAULT_ISR shr (0+2)
  2526                           
  2527                           ; Vector 122 : CRC
  2528   0000FC  0A4B               	dw	_DEFAULT_ISR shr (0+2)
  2529                           
  2530                           ; Vector 123 : TMR6
  2531   0000FE  0A4B               	dw	_DEFAULT_ISR shr (0+2)
  2532   000100                     ivt0x8_undefint:
  2533                           	callstack 0
  2534   000100  00FF               	reset	
  2535                           
  2536                           	psect	rparam
  2537   000000                     
  2538                           	psect	config
  2539                           
  2540                           ;Config register CONFIG1 @ 0x300000
  2541                           ;	External Oscillator Selection
  2542                           ;	FEXTOSC = OFF, Oscillator not enabled
  2543                           ;	Reset Oscillator Selection
  2544                           ;	RSTOSC = HFINTOSC_64MHZ, HFINTOSC with HFFRQ = 64 MHz and CDIV = 1:1
  2545   300000                     	org	3145728
  2546   300000  8C                 	db	140
  2547                           
  2548                           ;Config register CONFIG2 @ 0x300001
  2549                           ;	Clock out Enable bit
  2550                           ;	CLKOUTEN = OFF, CLKOUT function is disabled
  2551                           ;	PRLOCKED One-Way Set Enable bit
  2552                           ;	PR1WAY = ON, PRLOCKED bit can be cleared and set only once
  2553                           ;	Clock Switch Enable bit
  2554                           ;	CSWEN = ON, Writing to NOSC and NDIV is allowed
  2555                           ;	Fail-Safe Clock Monitor Enable bit
  2556                           ;	FCMEN = ON, Fail-Safe Clock Monitor enabled
  2557   300001                     	org	3145729
  2558   300001  FF                 	db	255
  2559                           
  2560                           ;Config register CONFIG3 @ 0x300002
  2561                           ;	MCLR Enable bit
  2562                           ;	MCLRE = EXTMCLR, If LVP = 0, MCLR pin is MCLR; If LVP = 1, RE3 pin function is MCLR
  2563                           ;	Power-up timer selection bits
  2564                           ;	PWRTS = PWRT_OFF, PWRT is disabled
  2565                           ;	Multi-vector enable bit
  2566                           ;	MVECEN = ON, Multi-vector enabled, Vector table used for interrupts
  2567                           ;	IVTLOCK bit One-way set enable bit
  2568                           ;	IVT1WAY = ON, IVTLOCKED bit can be cleared and set only once
  2569                           ;	Low Power BOR Enable bit
  2570                           ;	LPBOREN = OFF, Low-Power BOR disabled
  2571                           ;	Brown-out Reset Enable bits
  2572                           ;	BOREN = SBORDIS, Brown-out Reset enabled , SBOREN bit is ignored
  2573   300002                     	org	3145730
  2574   300002  FF                 	db	255
  2575                           
  2576                           ;Config register CONFIG4 @ 0x300003
  2577                           ;	Brown-out Reset Voltage Selection bits
  2578                           ;	BORV = VBOR_1P9, Brown-out Reset Voltage (VBOR) set to 1.9V
  2579                           ;	ZCD Disable bit
  2580                           ;	ZCD = OFF, ZCD module is disabled. ZCD can be enabled by setting the ZCDSEN bit of ZCD
      +                          CON
  2581                           ;	PPSLOCK bit One-Way Set Enable bit
  2582                           ;	PPS1WAY = OFF, PPSLOCKED bit can be set and cleared repeatedly (subject to the unlock 
      +                          sequence)
  2583                           ;	Stack Full/Underflow Reset Enable bit
  2584                           ;	STVREN = ON, Stack full/underflow will cause Reset
  2585                           ;	Low Voltage Programming Enable bit
  2586                           ;	LVP = ON, Low voltage programming enabled. MCLR/VPP pin function is MCLR. MCLRE config
      +                          uration bit is ignored
  2587                           ;	Extended Instruction Set Enable bit
  2588                           ;	XINST = OFF, Extended Instruction Set and Indexed Addressing Mode disabled
  2589   300003                     	org	3145731
  2590   300003  F7                 	db	247
  2591                           
  2592                           ;Config register CONFIG5 @ 0x300004
  2593                           ;	WDT Period selection bits
  2594                           ;	WDTCPS = WDTCPS_31, Divider ratio 1:65536; software control of WDTPS
  2595                           ;	WDT operating mode
  2596                           ;	WDTE = OFF, WDT Disabled; SWDTEN is ignored
  2597   300004                     	org	3145732
  2598   300004  9F                 	db	159
  2599                           
  2600                           ;Config register CONFIG6 @ 0x300005
  2601                           ;	WDT Window Select bits
  2602                           ;	WDTCWS = WDTCWS_7, window always open (100%); software control; keyed access not requi
      +                          red
  2603                           ;	WDT input clock selector
  2604                           ;	WDTCCS = SC, Software Control
  2605   300005                     	org	3145733
  2606   300005  FF                 	db	255
  2607                           
  2608                           ;Config register CONFIG7 @ 0x300006
  2609                           ;	Boot Block Size selection bits
  2610                           ;	BBSIZE = BBSIZE_512, Boot Block size is 512 words
  2611                           ;	Boot Block enable bit
  2612                           ;	BBEN = OFF, Boot block disabled
  2613                           ;	Storage Area Flash enable bit
  2614                           ;	SAFEN = OFF, SAF disabled
  2615                           ;	Background Debugger
  2616                           ;	DEBUG = OFF, Background Debugger disabled
  2617   300006                     	org	3145734
  2618   300006  FF                 	db	255
  2619                           
  2620                           ;Config register CONFIG8 @ 0x300007
  2621                           ;	Boot Block Write Protection bit
  2622                           ;	WRTB = OFF, Boot Block not Write protected
  2623                           ;	Configuration Register Write Protection bit
  2624                           ;	WRTC = OFF, Configuration registers not Write protected
  2625                           ;	Data EEPROM Write Protection bit
  2626                           ;	WRTD = OFF, Data EEPROM not Write protected
  2627                           ;	SAF Write protection bit
  2628                           ;	WRTSAF = OFF, SAF not Write Protected
  2629                           ;	Application Block write protection bit
  2630                           ;	WRTAPP = OFF, Application Block not write protected
  2631   300007                     	org	3145735
  2632   300007  FF                 	db	255
  2633                           
  2634                           ;Config register CONFIG10 @ 0x300009
  2635                           ;	PFM and Data EEPROM Code Protection bit
  2636                           ;	CP = OFF, PFM and Data EEPROM code protection disabled
  2637   300009                     	org	3145737
  2638   300009  FF                 	db	255
  2639                           tosu	equ	0x4FF
  2640                           tosh	equ	0x4FE
  2641                           tosl	equ	0x4FD
  2642                           stkptr	equ	0x4FC
  2643                           pclatu	equ	0x4FB
  2644                           pclath	equ	0x4FA
  2645                           pcl	equ	0x4F9
  2646                           tblptru	equ	0x4F8
  2647                           tblptrh	equ	0x4F7
  2648                           tblptrl	equ	0x4F6
  2649                           tablat	equ	0x4F5
  2650                           prodh	equ	0x4F4
  2651                           prodl	equ	0x4F3
  2652                           indf0	equ	0x4EF
  2653                           postinc0	equ	0x4EE
  2654                           postdec0	equ	0x4ED
  2655                           preinc0	equ	0x4EC
  2656                           plusw0	equ	0x4EB
  2657                           fsr0h	equ	0x4EA
  2658                           fsr0l	equ	0x4E9
  2659                           wreg	equ	0x4E8
  2660                           indf1	equ	0x4E7
  2661                           postinc1	equ	0x4E6
  2662                           postdec1	equ	0x4E5
  2663                           preinc1	equ	0x4E4
  2664                           plusw1	equ	0x4E3
  2665                           fsr1h	equ	0x4E2
  2666                           fsr1l	equ	0x4E1
  2667                           bsr	equ	0x4E0
  2668                           indf2	equ	0x4DF
  2669                           postinc2	equ	0x4DE
  2670                           postdec2	equ	0x4DD
  2671                           preinc2	equ	0x4DC
  2672                           plusw2	equ	0x4DB
  2673                           fsr2h	equ	0x4DA
  2674                           fsr2l	equ	0x4D9
  2675                           status	equ	0x4D8

Data Sizes:
    Strings     3
    Constant    16
    Data        0
    BSS         46
    Persistent  0
    Stack       0

Auto Spaces:
    Space          Size  Autos    Used
    COMRAM           95      9      57
    BANK5           160      0       0
    BANK6           256      0       0
    BANK7           256      0       0
    BANK8           256      0       0
    BANK9           256      0       0
    BANK10          256      0       0
    BANK11          256      0       0
    BANK12          256      0       0
    BANK13          256      0       0
    BANK14          256      0       0
    BANK15          256      0       0
    BANK16          256      0       0
    BANK17          256      0       0
    BANK18          256      0       0
    BANK19          256      0       0
    BANK20          256      0       0
    BANK21          256      0       0
    BANK22          256      0       0
    BANK23          256      0       0
    BANK24          256      0       0
    BANK25          256      0       0
    BANK26          256      0       0
    BANK27          256      0       0
    BANK28          256      0       0
    BANK29          256      0       0
    BANK30          256      0       0
    BANK31          256      0       0
    BANK32          256      0       0
    BANK33          256      0       0
    BANK34          256      0       0
    BANK35          256      0       0
    BANK36          256      0       0

Pointer List with Targets:

    EchoStr@p_data	PTR unsigned char  size(1) Largest target is 3
		 -> STR_1(CODE[3]), 

    TimerCheck@p_timer	PTR unsigned short  size(2) Largest target is 2
		 -> u16_timer_1s(COMRAM[2]), u16_timer_200m(COMRAM[2]), 

    TimerStart@p_timer	PTR unsigned short  size(2) Largest target is 2
		 -> u16_timer_1s(COMRAM[2]), u16_timer_200m(COMRAM[2]), 


Critical Paths under _main in COMRAM

    _main->_loop
    _setup->_TimerStart
    _loop->_TimerCheck
    _update_out->_UART3_Write
    _request_in->_UART3_Read
    _EchoStr->_UART3_Write
    _EchoHex->_UART3_Write

Critical Paths under _U3RX_ISR in COMRAM

    None.

Critical Paths under _U3TX_ISR in COMRAM

    None.

Critical Paths under _INT0_ISR in COMRAM

    None.

Critical Paths under _DEFAULT_ISR in COMRAM

    None.

Critical Paths under _TMR2_ISR in COMRAM

    None.

Critical Paths under _main in BANK5

    None.

Critical Paths under _U3RX_ISR in BANK5

    None.

Critical Paths under _U3TX_ISR in BANK5

    None.

Critical Paths under _INT0_ISR in BANK5

    None.

Critical Paths under _DEFAULT_ISR in BANK5

    None.

Critical Paths under _TMR2_ISR in BANK5

    None.

Critical Paths under _main in BANK6

    None.

Critical Paths under _U3RX_ISR in BANK6

    None.

Critical Paths under _U3TX_ISR in BANK6

    None.

Critical Paths under _INT0_ISR in BANK6

    None.

Critical Paths under _DEFAULT_ISR in BANK6

    None.

Critical Paths under _TMR2_ISR in BANK6

    None.

Critical Paths under _main in BANK7

    None.

Critical Paths under _U3RX_ISR in BANK7

    None.

Critical Paths under _U3TX_ISR in BANK7

    None.

Critical Paths under _INT0_ISR in BANK7

    None.

Critical Paths under _DEFAULT_ISR in BANK7

    None.

Critical Paths under _TMR2_ISR in BANK7

    None.

Critical Paths under _main in BANK8

    None.

Critical Paths under _U3RX_ISR in BANK8

    None.

Critical Paths under _U3TX_ISR in BANK8

    None.

Critical Paths under _INT0_ISR in BANK8

    None.

Critical Paths under _DEFAULT_ISR in BANK8

    None.

Critical Paths under _TMR2_ISR in BANK8

    None.

Critical Paths under _main in BANK9

    None.

Critical Paths under _U3RX_ISR in BANK9

    None.

Critical Paths under _U3TX_ISR in BANK9

    None.

Critical Paths under _INT0_ISR in BANK9

    None.

Critical Paths under _DEFAULT_ISR in BANK9

    None.

Critical Paths under _TMR2_ISR in BANK9

    None.

Critical Paths under _main in BANK10

    None.

Critical Paths under _U3RX_ISR in BANK10

    None.

Critical Paths under _U3TX_ISR in BANK10

    None.

Critical Paths under _INT0_ISR in BANK10

    None.

Critical Paths under _DEFAULT_ISR in BANK10

    None.

Critical Paths under _TMR2_ISR in BANK10

    None.

Critical Paths under _main in BANK11

    None.

Critical Paths under _U3RX_ISR in BANK11

    None.

Critical Paths under _U3TX_ISR in BANK11

    None.

Critical Paths under _INT0_ISR in BANK11

    None.

Critical Paths under _DEFAULT_ISR in BANK11

    None.

Critical Paths under _TMR2_ISR in BANK11

    None.

Critical Paths under _main in BANK12

    None.

Critical Paths under _U3RX_ISR in BANK12

    None.

Critical Paths under _U3TX_ISR in BANK12

    None.

Critical Paths under _INT0_ISR in BANK12

    None.

Critical Paths under _DEFAULT_ISR in BANK12

    None.

Critical Paths under _TMR2_ISR in BANK12

    None.

Critical Paths under _main in BANK13

    None.

Critical Paths under _U3RX_ISR in BANK13

    None.

Critical Paths under _U3TX_ISR in BANK13

    None.

Critical Paths under _INT0_ISR in BANK13

    None.

Critical Paths under _DEFAULT_ISR in BANK13

    None.

Critical Paths under _TMR2_ISR in BANK13

    None.

Critical Paths under _main in BANK14

    None.

Critical Paths under _U3RX_ISR in BANK14

    None.

Critical Paths under _U3TX_ISR in BANK14

    None.

Critical Paths under _INT0_ISR in BANK14

    None.

Critical Paths under _DEFAULT_ISR in BANK14

    None.

Critical Paths under _TMR2_ISR in BANK14

    None.

Critical Paths under _main in BANK15

    None.

Critical Paths under _U3RX_ISR in BANK15

    None.

Critical Paths under _U3TX_ISR in BANK15

    None.

Critical Paths under _INT0_ISR in BANK15

    None.

Critical Paths under _DEFAULT_ISR in BANK15

    None.

Critical Paths under _TMR2_ISR in BANK15

    None.

Critical Paths under _main in BANK16

    None.

Critical Paths under _U3RX_ISR in BANK16

    None.

Critical Paths under _U3TX_ISR in BANK16

    None.

Critical Paths under _INT0_ISR in BANK16

    None.

Critical Paths under _DEFAULT_ISR in BANK16

    None.

Critical Paths under _TMR2_ISR in BANK16

    None.

Critical Paths under _main in BANK17

    None.

Critical Paths under _U3RX_ISR in BANK17

    None.

Critical Paths under _U3TX_ISR in BANK17

    None.

Critical Paths under _INT0_ISR in BANK17

    None.

Critical Paths under _DEFAULT_ISR in BANK17

    None.

Critical Paths under _TMR2_ISR in BANK17

    None.

Critical Paths under _main in BANK18

    None.

Critical Paths under _U3RX_ISR in BANK18

    None.

Critical Paths under _U3TX_ISR in BANK18

    None.

Critical Paths under _INT0_ISR in BANK18

    None.

Critical Paths under _DEFAULT_ISR in BANK18

    None.

Critical Paths under _TMR2_ISR in BANK18

    None.

Critical Paths under _main in BANK19

    None.

Critical Paths under _U3RX_ISR in BANK19

    None.

Critical Paths under _U3TX_ISR in BANK19

    None.

Critical Paths under _INT0_ISR in BANK19

    None.

Critical Paths under _DEFAULT_ISR in BANK19

    None.

Critical Paths under _TMR2_ISR in BANK19

    None.

Critical Paths under _main in BANK20

    None.

Critical Paths under _U3RX_ISR in BANK20

    None.

Critical Paths under _U3TX_ISR in BANK20

    None.

Critical Paths under _INT0_ISR in BANK20

    None.

Critical Paths under _DEFAULT_ISR in BANK20

    None.

Critical Paths under _TMR2_ISR in BANK20

    None.

Critical Paths under _main in BANK21

    None.

Critical Paths under _U3RX_ISR in BANK21

    None.

Critical Paths under _U3TX_ISR in BANK21

    None.

Critical Paths under _INT0_ISR in BANK21

    None.

Critical Paths under _DEFAULT_ISR in BANK21

    None.

Critical Paths under _TMR2_ISR in BANK21

    None.

Critical Paths under _main in BANK22

    None.

Critical Paths under _U3RX_ISR in BANK22

    None.

Critical Paths under _U3TX_ISR in BANK22

    None.

Critical Paths under _INT0_ISR in BANK22

    None.

Critical Paths under _DEFAULT_ISR in BANK22

    None.

Critical Paths under _TMR2_ISR in BANK22

    None.

Critical Paths under _main in BANK23

    None.

Critical Paths under _U3RX_ISR in BANK23

    None.

Critical Paths under _U3TX_ISR in BANK23

    None.

Critical Paths under _INT0_ISR in BANK23

    None.

Critical Paths under _DEFAULT_ISR in BANK23

    None.

Critical Paths under _TMR2_ISR in BANK23

    None.

Critical Paths under _main in BANK24

    None.

Critical Paths under _U3RX_ISR in BANK24

    None.

Critical Paths under _U3TX_ISR in BANK24

    None.

Critical Paths under _INT0_ISR in BANK24

    None.

Critical Paths under _DEFAULT_ISR in BANK24

    None.

Critical Paths under _TMR2_ISR in BANK24

    None.

Critical Paths under _main in BANK25

    None.

Critical Paths under _U3RX_ISR in BANK25

    None.

Critical Paths under _U3TX_ISR in BANK25

    None.

Critical Paths under _INT0_ISR in BANK25

    None.

Critical Paths under _DEFAULT_ISR in BANK25

    None.

Critical Paths under _TMR2_ISR in BANK25

    None.

Critical Paths under _main in BANK26

    None.

Critical Paths under _U3RX_ISR in BANK26

    None.

Critical Paths under _U3TX_ISR in BANK26

    None.

Critical Paths under _INT0_ISR in BANK26

    None.

Critical Paths under _DEFAULT_ISR in BANK26

    None.

Critical Paths under _TMR2_ISR in BANK26

    None.

Critical Paths under _main in BANK27

    None.

Critical Paths under _U3RX_ISR in BANK27

    None.

Critical Paths under _U3TX_ISR in BANK27

    None.

Critical Paths under _INT0_ISR in BANK27

    None.

Critical Paths under _DEFAULT_ISR in BANK27

    None.

Critical Paths under _TMR2_ISR in BANK27

    None.

Critical Paths under _main in BANK28

    None.

Critical Paths under _U3RX_ISR in BANK28

    None.

Critical Paths under _U3TX_ISR in BANK28

    None.

Critical Paths under _INT0_ISR in BANK28

    None.

Critical Paths under _DEFAULT_ISR in BANK28

    None.

Critical Paths under _TMR2_ISR in BANK28

    None.

Critical Paths under _main in BANK29

    None.

Critical Paths under _U3RX_ISR in BANK29

    None.

Critical Paths under _U3TX_ISR in BANK29

    None.

Critical Paths under _INT0_ISR in BANK29

    None.

Critical Paths under _DEFAULT_ISR in BANK29

    None.

Critical Paths under _TMR2_ISR in BANK29

    None.

Critical Paths under _main in BANK30

    None.

Critical Paths under _U3RX_ISR in BANK30

    None.

Critical Paths under _U3TX_ISR in BANK30

    None.

Critical Paths under _INT0_ISR in BANK30

    None.

Critical Paths under _DEFAULT_ISR in BANK30

    None.

Critical Paths under _TMR2_ISR in BANK30

    None.

Critical Paths under _main in BANK31

    None.

Critical Paths under _U3RX_ISR in BANK31

    None.

Critical Paths under _U3TX_ISR in BANK31

    None.

Critical Paths under _INT0_ISR in BANK31

    None.

Critical Paths under _DEFAULT_ISR in BANK31

    None.

Critical Paths under _TMR2_ISR in BANK31

    None.

Critical Paths under _main in BANK32

    None.

Critical Paths under _U3RX_ISR in BANK32

    None.

Critical Paths under _U3TX_ISR in BANK32

    None.

Critical Paths under _INT0_ISR in BANK32

    None.

Critical Paths under _DEFAULT_ISR in BANK32

    None.

Critical Paths under _TMR2_ISR in BANK32

    None.

Critical Paths under _main in BANK33

    None.

Critical Paths under _U3RX_ISR in BANK33

    None.

Critical Paths under _U3TX_ISR in BANK33

    None.

Critical Paths under _INT0_ISR in BANK33

    None.

Critical Paths under _DEFAULT_ISR in BANK33

    None.

Critical Paths under _TMR2_ISR in BANK33

    None.

Critical Paths under _main in BANK34

    None.

Critical Paths under _U3RX_ISR in BANK34

    None.

Critical Paths under _U3TX_ISR in BANK34

    None.

Critical Paths under _INT0_ISR in BANK34

    None.

Critical Paths under _DEFAULT_ISR in BANK34

    None.

Critical Paths under _TMR2_ISR in BANK34

    None.

Critical Paths under _main in BANK35

    None.

Critical Paths under _U3RX_ISR in BANK35

    None.

Critical Paths under _U3TX_ISR in BANK35

    None.

Critical Paths under _INT0_ISR in BANK35

    None.

Critical Paths under _DEFAULT_ISR in BANK35

    None.

Critical Paths under _TMR2_ISR in BANK35

    None.

Critical Paths under _main in BANK36

    None.

Critical Paths under _U3RX_ISR in BANK36

    None.

Critical Paths under _U3TX_ISR in BANK36

    None.

Critical Paths under _INT0_ISR in BANK36

    None.

Critical Paths under _DEFAULT_ISR in BANK36

    None.

Critical Paths under _TMR2_ISR in BANK36

    None.

Call Graph Tables:

 ---------------------------------------------------------------------------------
 (Depth) Function   	        Calls       Base Space   Used Autos Params    Refs
 ---------------------------------------------------------------------------------
 (0) _main                                                 0     0      0    1483
                    _TMR2_Initialize
                               _loop
                              _setup
 ---------------------------------------------------------------------------------
 (1) _setup                                                0     0      0     326
                    _ADCC_Initialize
                    _PWM1_Initialize
                         _TimerStart
                   _UART3_Initialize
 ---------------------------------------------------------------------------------
 (2) _UART3_Initialize                                     0     0      0       0
 ---------------------------------------------------------------------------------
 (2) _PWM1_Initialize                                      0     0      0       0
 ---------------------------------------------------------------------------------
 (2) _ADCC_Initialize                                      0     0      0       0
 ---------------------------------------------------------------------------------
 (1) _loop                                                 1     1      0    1157
                                              8 COMRAM     1     1      0
           _ADCC_GetSingleConversion
                            _EchoHex
                            _EchoStr
           _PWM1_LoadBufferRegisters
_PWM1_SetSlice1Output2DutyCycleRegis
                         _TimerCheck
                         _TimerStart
                         _request_in
                         _update_out
 ---------------------------------------------------------------------------------
 (2) _update_out                                           0     0      0      15
                        _UART3_Write
 ---------------------------------------------------------------------------------
 (2) _request_in                                           3     3      0      30
                                              2 COMRAM     3     3      0
                         _UART3_Read
 ---------------------------------------------------------------------------------
 (3) _UART3_Read                                           1     1      0      15
                                              1 COMRAM     1     1      0
 ---------------------------------------------------------------------------------
 (2) _TimerStart                                           2     0      2     326
                                              1 COMRAM     2     0      2
 ---------------------------------------------------------------------------------
 (2) _TimerCheck                                           7     3      4     438
                                              1 COMRAM     7     3      4
 ---------------------------------------------------------------------------------
 (2) _PWM1_SetSlice1Output2DutyCycleRegister               2     0      2     121
                                              1 COMRAM     2     0      2
 ---------------------------------------------------------------------------------
 (2) _PWM1_LoadBufferRegisters                             0     0      0       0
 ---------------------------------------------------------------------------------
 (2) _EchoStr                                              1     0      1     136
                                              2 COMRAM     1     0      1
                        _UART3_Write
 ---------------------------------------------------------------------------------
 (2) _EchoHex                                              3     3      0      45
                                              2 COMRAM     3     3      0
                        _UART3_Write
 ---------------------------------------------------------------------------------
 (3) _UART3_Write                                          1     1      0      15
                                              1 COMRAM     1     1      0
 ---------------------------------------------------------------------------------
 (2) _ADCC_GetSingleConversion                             4     2      2       0
                                              1 COMRAM     4     2      2
 ---------------------------------------------------------------------------------
 (1) _TMR2_Initialize                                      0     0      0       0
 ---------------------------------------------------------------------------------
 Estimated maximum stack depth 3
 ---------------------------------------------------------------------------------
 (Depth) Function   	        Calls       Base Space   Used Autos Params    Refs
 ---------------------------------------------------------------------------------
 (4) _U3RX_ISR                                             1     1      0      15
                                              0 COMRAM     1     1      0
 ---------------------------------------------------------------------------------
 Estimated maximum stack depth 4
 ---------------------------------------------------------------------------------
 (Depth) Function   	        Calls       Base Space   Used Autos Params    Refs
 ---------------------------------------------------------------------------------
 (4) _U3TX_ISR                                             0     0      0       0
 ---------------------------------------------------------------------------------
 Estimated maximum stack depth 4
 ---------------------------------------------------------------------------------
 (Depth) Function   	        Calls       Base Space   Used Autos Params    Refs
 ---------------------------------------------------------------------------------
 (4) _INT0_ISR                                             0     0      0       0
 ---------------------------------------------------------------------------------
 Estimated maximum stack depth 4
 ---------------------------------------------------------------------------------
 (Depth) Function   	        Calls       Base Space   Used Autos Params    Refs
 ---------------------------------------------------------------------------------
 (4) _DEFAULT_ISR                                          0     0      0       0
 ---------------------------------------------------------------------------------
 Estimated maximum stack depth 4
 ---------------------------------------------------------------------------------
 (Depth) Function   	        Calls       Base Space   Used Autos Params    Refs
 ---------------------------------------------------------------------------------
 (4) _TMR2_ISR                                             0     0      0       0
 ---------------------------------------------------------------------------------
 Estimated maximum stack depth 4
 ---------------------------------------------------------------------------------

 Call Graph Graphs:

 _main (ROOT)
   _TMR2_Initialize
   _loop
     _ADCC_GetSingleConversion
     _EchoHex
       _UART3_Write
     _EchoStr
       _UART3_Write
     _PWM1_LoadBufferRegisters
     _PWM1_SetSlice1Output2DutyCycleRegister
     _TimerCheck
     _TimerStart
     _request_in
       _UART3_Read
     _update_out
       _UART3_Write
   _setup
     _ADCC_Initialize
     _PWM1_Initialize
     _TimerStart
     _UART3_Initialize

 _U3RX_ISR (ROOT)

 _U3TX_ISR (ROOT)

 _INT0_ISR (ROOT)

 _DEFAULT_ISR (ROOT)

 _TMR2_ISR (ROOT)

 Address spaces:
Name               Size   Autos  Total    Cost      Usage
BIGRAM            1FFF      0       0      69        0.0%
EEDATA             400      0       0       0        0.0%
BITBIGSFRlllh      155      0       0      91        0.0%
BITBIGSFR_1        100      0       0      68        0.0%
BITBANK36          100      0       0      66        0.0%
BANK36             100      0       0      67        0.0%
BITBANK35          100      0       0      64        0.0%
BANK35             100      0       0      65        0.0%
BITBANK34          100      0       0      62        0.0%
BANK34             100      0       0      63        0.0%
BITBANK33          100      0       0      60        0.0%
BANK33             100      0       0      61        0.0%
BITBANK32          100      0       0      58        0.0%
BANK32             100      0       0      59        0.0%
BITBANK31          100      0       0      56        0.0%
BANK31             100      0       0      57        0.0%
BITBANK30          100      0       0      54        0.0%
BANK30             100      0       0      55        0.0%
BITBANK29          100      0       0      52        0.0%
BANK29             100      0       0      53        0.0%
BITBANK28          100      0       0      50        0.0%
BANK28             100      0       0      51        0.0%
BITBANK27          100      0       0      48        0.0%
BANK27             100      0       0      49        0.0%
BITBANK26          100      0       0      46        0.0%
BANK26             100      0       0      47        0.0%
BITBANK25          100      0       0      44        0.0%
BANK25             100      0       0      45        0.0%
BITBANK24          100      0       0      42        0.0%
BANK24             100      0       0      43        0.0%
BITBANK23          100      0       0      40        0.0%
BANK23             100      0       0      41        0.0%
BITBANK22          100      0       0      38        0.0%
BANK22             100      0       0      39        0.0%
BITBANK21          100      0       0      36        0.0%
BANK21             100      0       0      37        0.0%
BITBANK20          100      0       0      34        0.0%
BANK20             100      0       0      35        0.0%
BITBANK19          100      0       0      32        0.0%
BANK19             100      0       0      33        0.0%
BITBANK18          100      0       0      30        0.0%
BANK18             100      0       0      31        0.0%
BITBANK17          100      0       0      28        0.0%
BANK17             100      0       0      29        0.0%
BITBANK16          100      0       0      26        0.0%
BANK16             100      0       0      27        0.0%
BITBANK15          100      0       0      24        0.0%
BANK15             100      0       0      25        0.0%
BITBANK14          100      0       0      22        0.0%
BANK14             100      0       0      23        0.0%
BITBANK13          100      0       0      20        0.0%
BANK13             100      0       0      21        0.0%
BITBANK12          100      0       0      18        0.0%
BANK12             100      0       0      19        0.0%
BITBANK11          100      0       0      16        0.0%
BANK11             100      0       0      17        0.0%
BITBANK10          100      0       0      14        0.0%
BANK10             100      0       0      15        0.0%
BITBANK9           100      0       0      12        0.0%
BANK9              100      0       0      13        0.0%
BITBANK8           100      0       0      10        0.0%
BANK8              100      0       0      11        0.0%
BITBANK7           100      0       0       8        0.0%
BANK7              100      0       0       9        0.0%
BITBANK6           100      0       0       6        0.0%
BANK6              100      0       0       7        0.0%
BITBIGSFRhhlhll     C2      0       0      83        0.0%
BITBIGSFRllll       B1      0       0      92        0.0%
BITBANK5            A0      0       0       4        0.0%
BANK5               A0      0       0       5        0.0%
BITBIGSFRllhh       63      0       0      89        0.0%
BITCOMRAM           5F      0       2       0        2.1%
COMRAM              5F      9      39       1       60.0%
BITBIGSFRhhlhhh     56      0       0      79        0.0%
BITBIGSFRlh         50      0       0      88        0.0%
BITBIGSFRhhlhll     4C      0       0      84        0.0%
BITBIGSFRhhlhhh     30      0       0      78        0.0%
BITBIGSFRhhhhh      29      0       0      70        0.0%
BITBIGSFRhhhhl       D      0       0      71        0.0%
BITBIGSFRhhlhlh      C      0       0      81        0.0%
BITBIGSFRhhhllh      B      0       0      73        0.0%
BITBIGSFRllhl        9      0       0      90        0.0%
BITBIGSFRhhhlh       7      0       0      72        0.0%
BITBIGSFRhhlhhl      7      0       0      80        0.0%
BITBIGSFRhhhlll      7      0       0      75        0.0%
BITBIGSFRhhlll       7      0       0      86        0.0%
BITBIGSFRhhlhll      6      0       0      82        0.0%
BITBIGSFRhhlhhh      4      0       0      76        0.0%
BITBIGSFRhhlhhh      1      0       0      77        0.0%
BITBIGSFRhhhllh      1      0       0      74        0.0%
BITBIGSFRhhllh       1      0       0      85        0.0%
BITBIGSFRhl          1      0       0      87        0.0%
BIGSFR_1             0      0       0     200        0.0%
BIGSFR               0      0       0     200        0.0%
BITSFR_6             0      0       0     200        0.0%
SFR_6                0      0       0     200        0.0%
BITSFR_5             0      0       0     200        0.0%
SFR_5                0      0       0     200        0.0%
BITSFR_4             0      0       0     200        0.0%
SFR_4                0      0       0     200        0.0%
BITSFR_3             0      0       0     200        0.0%
SFR_3                0      0       0     200        0.0%
BITSFR_2             0      0       0     200        0.0%
SFR_2                0      0       0     200        0.0%
BITSFR_1             0      0       0     200        0.0%
SFR_1                0      0       0     200        0.0%
BITSFR               0      0       0     200        0.0%
SFR                  0      0       0     200        0.0%
STACK                0      0       0       2        0.0%
NULL                 0      0       0       0        0.0%
ABS                  0      0      39      93        0.0%
DATA                 0      0      39       3        0.0%
CODE                 0      0       0       0        0.0%


Microchip Technology PIC18 Macro Assembler V2.45 build 20230818022343 
Symbol Table                                                                                   Sat May 25 15:35:30 2024

                                            u70 270A                               TimerCheck@p_timer 0530  
                                 _u16_data_adcc 0521     PWM1_SetSlice1Output2DutyCycleRegister@value 0530  
                             TimerCheck@ret_val 0536                                             l153 26F4  
                                           l155 26F8                                             l148 259A  
                                           l157 2702                                             l249 28D0  
                                           _GIE 26B7                                 _TMR2_Initialize 2890  
                                           wreg 04E8                                    _u8_count_out 0524  
                      _PWM1_LoadBufferRegisters 2926                                            l1035 27D4  
                                          l1301 2780                                            l1141 270E  
                                          l1049 27FA                                            l1305 2796  
                                          l1137 26FC                                            l1155 28FC  
                                          l1353 2570                                            l1283 2664  
                                          l1289 269A                                            l1369 2880  
                                          STR_1 2511                         __end_of_PWM1_Initialize 25FC  
                                          _LATA 04BE                                            _T2PR 0323  
                                          _U3ON 1697                                            i2l57 2822  
                                          _main 286E                                            _loop 2516  
                                          fsr2h 04DA                                            indf2 04DF  
                                          fsr2l 04D9                                            start 0102  
                               __end_of_EchoHex 26EC                                   EchoStr@p_data 0531  
                               __end_of_EchoStr 27AE                                    ___param_bank 0000  
                                   ?_UART3_Read 052F                                __end_of_INT0_ISR 291E  
                              __end_of_U3RX_ISR 284C                                           ?_main 052F  
                                         _ADPCH 03EC                                __end_of_U3TX_ISR 2826  
                                         ?_loop 052F                                           _T2CON 0324  
                                         _LATA6 25F6                                           _U3BRG 02D4  
                                         _T2HLT 0325                                           _T2TMR 0322  
                                         _T2RST 0327                                           _U3RXB 02C7  
                                         _U3TXB 02C9                                   _au8_rx_buffer 0511  
                                         _TRISA 04C6                                           _WPUB0 2048  
                                 _au8_tx_buffer 0501                                __end_of_TMR2_ISR 2926  
                                         _setup 25FC                                  __pbitbssCOMRAM 29C8  
                                         tablat 04F5                             request_in@data_recv 0533  
                                         status 04D8                                  TimerCheck@time 0532  
                               __initialization 284C                                    __end_of_main 2890  
                                  __end_of_loop 25A4                         __end_of_TMR2_Initialize 28B0  
                                  ?_UART3_Write 052F                                          ??_main 0538  
                                        ??_loop 0537                                   __activetblptr 0003  
                                        _ADRESH 03EB                                          _ADRESL 03EA  
                                        ?_setup 052F                                          _ANSELA 0400  
                                        _RC0PPS 0211                                          _RC1PPS 0212  
                                        _RA6PPS 0207                                          _INT0IE 24F8  
                                        _INT0IF 2578                                ?_PWM1_Initialize 052F  
                                     ??_EchoHex 0531                                          _U3RXIE 2538  
                                        _U3RXEN 168C                                          _U3TXIE 2539  
                                        _U3TXEN 168D                                       ??_EchoStr 0532  
                                        _OSCFRQ 00B1                                          _TMR2IF 258B  
                                        _TRISB0 2638                                          _TRISC0 2640  
                                        _TRISC1 2641                                          _TRISA6 2636  
                                        _TRISB4 263C                                          _TRISA7 2637  
                                _u16_timer_200m 052B                                      _TimerCheck 264E  
                                    _TimerStart 2900                                          clear_0 2854  
                                        isa$std 0001                                 _ADCC_Initialize 28B0  
                                  __mediumconst 0000                                _UART3_Initialize 2738  
                                        tblptrh 04F7                                          tblptrl 04F6  
                                        tblptru 04F8                       ?_ADCC_GetSingleConversion 0530  
                                    __accesstop 0560                         __end_of__initialization 2868  
                                     ?_INT0_ISR 052F                                   ___rparam_used 0001  
                                     ?_U3RX_ISR 052F                                       ?_U3TX_ISR 052F  
                                __pcstackCOMRAM 052F                                      _u8_rx_head 052A  
                                     ?_TMR2_ISR 052F                                      _u8_rx_tail 0529  
                                    _u8_tx_head 0527                                  ivt0x8_undefint 0100  
                                    _u8_tx_tail 0526                                   __end_of_setup 264E  
                              ?_TMR2_Initialize 052F                      ??_PWM1_LoadBufferRegisters 0530  
                                   loop@chk_val 0537                                         ??_setup 0532  
                                    ??_INT0_ISR 0530                                      ??_U3RX_ISR 052F  
                                    ??_U3TX_ISR 0530                                         IVTBASEH 045E  
                                       IVTBASEL 045D                                         IVTBASEU 045F  
                              EchoHex@hex_table 2501                                     ?_TimerCheck 0530  
                                  ??_UART3_Read 0530                                      ??_TMR2_ISR 0530  
                       __end_of_ADCC_Initialize 28CC                                     ?_TimerStart 0530  
                                  U3RX_ISR@data 052F                                         _ANSELB0 2040  
                                       _ANSELA6 2006                                         _ANSELB4 2044  
                                       _ANSELA7 2007                                         _INT0EDG 26B0  
                                 ??_DEFAULT_ISR 0530                                         _U3RXPPS 0276  
                                       _PWM1CLK 0461                                         _PWM1GIE 0468  
                                       _PWM1CON 0469                                         _PWM1GIR 0467  
                                       _PWM1ERS 0460                                         _PWM1LDS 0462  
                                       _PWM1PRH 0464                                         _PWM1PRL 0463  
                                       _EchoHex 269E                                         _EchoStr 277E  
                            __end_of_UART3_Read 27D8                                         __Hparam 0000  
                                       __Lparam 0000                                    __psmallconst 2500  
                                       __pcinit 284C                                         __ramtop 2500  
                                       __ptext0 286E                                         __ptext1 25FC  
                                       __ptext2 2738                                         __ptext3 25A4  
                                       __ptext4 28B0                                         __ptext5 2516  
                                       __ptext6 28E8                                         __ptext7 26EC  
                                       __ptext8 27AE                                         __ptext9 2900  
                               UART3_Write@data 0530                             __end_of_DEFAULT_ISR 292E  
                          end_of_initialization 2868                                  _u8_sys_counter 0523  
                      __end_of_UART3_Initialize 277E                                         postdec2 04DD  
                                     _PWM1S1CFG 046A                                       _PWM1S1P1H 046C  
                                     _PWM1S1P2H 046E                                       _PWM1S1P1L 046B  
                                     _PWM1S1P2L 046D                                         postinc0 04EE  
                                       postinc2 04DE                                      _request_in 26EC  
                                     _PWM1PIPOS 0466                                ?_ADCC_Initialize 052F  
              __end_of_ADCC_GetSingleConversion 28E8                                      _update_out 28E8  
                                   _u8_rx_count 0528                                    _u16_timer_1s 052D  
                                   _u8_tx_count 0525                                     _DEFAULT_ISR 292C  
                                 __pbitnvCOMRAM 29C0                             start_initialization 284C  
                      __end_ofEchoHex@hex_table 2511                                      ivt0x8_base 0008  
                             TimerStart@p_timer 0530                                    ??_TimerCheck 0534  
                                   ?_request_in 052F                                    ??_TimerStart 0532  
                      _ADCC_GetSingleConversion 28CC                                     __pbssCOMRAM 0501  
                                   ?_update_out 052F                                        ?_EchoHex 052F  
                                UART3_Read@data 0530                              __end_of_TimerCheck 269E  
                                      ?_EchoStr 0531                              __end_of_TimerStart 290E  
                     ?_PWM1_LoadBufferRegisters 052F                                       _bit_state 29C0  
                             ??_PWM1_Initialize 0530                                   ??_UART3_Write 0530  
                                   __smallconst 2500                                        _T2CLKCON 0326  
                                      _INT0_ISR 2918                                        _U3RX_ISR 2828  
                                      _PIE3bits 04A1                                        _PIE4bits 04A2  
                                      _U3TX_ISR 2800                                     EchoHex@data 0533  
                                      _PIR3bits 04B1                                        _PIR4bits 04B2  
                             ?_UART3_Initialize 052F                                        _PWM1CPRE 0465  
                                      _TMR2_ISR 2920                              ??_UART3_Initialize 0530  
                                    _ADCON0bits 03F3                             __end_of_UART3_Write 27FE  
                             ??_TMR2_Initialize 0530                                        __Hrparam 0000  
                                      __Lrparam 0000                                    ?_DEFAULT_ISR 052F  
                                      __pivt0x8 0008                                        _bit_flag 29C8  
                                      __ptext10 264E                                        __ptext11 290E  
                                      __ptext20 2918                                        __ptext12 2926  
                                      __ptext21 292C                                        __ptext13 277E  
                                      __ptext22 2920                                        __ptext14 269E  
                                      __ptext15 27D8                                        __ptext16 28CC  
                                      __ptext17 2890                                        __ptext18 2828  
                                      __ptext19 2800                                        isa$xinst 0000  
                    ??_ADCC_GetSingleConversion 0532                                    ??_request_in 0531  
                                   _UART3_Write 27D8                __end_of_PWM1_LoadBufferRegisters 292A  
                                   _PWM1CONbits 0469                                     _PWM1GIRbits 0467  
                                  ??_update_out 0531  __end_of_PWM1_SetSlice1Output2DutyCycleRegister 2918  
      ??_PWM1_SetSlice1Output2DutyCycleRegister 0532         ?_PWM1_SetSlice1Output2DutyCycleRegister 0530  
        _PWM1_SetSlice1Output2DutyCycleRegister 290E                                        intlevel2 0000  
                            __end_of_request_in 2738                                 _PWM1_Initialize 25A4  
                                    _UART3_Read 27AE                              __end_of_update_out 2900  
                             ??_ADCC_Initialize 0530  
