

Microchip MPLAB XC8 Assembler V2.45 build 20230818022343 
                                                                                               Sat May 18 16:22:04 2024

Microchip MPLAB XC8 C Compiler v2.45 (Free license) build 20230818022343 Og9 
     1                           	processor	18F47Q43
     2                           	fnconf	rparam,??,?,0
     3                           	pagewidth 120
     4                           	opt	flic
     5                           	psect	eeprom_data,global,delta=1
     6                           	psect	smallconst,global,reloc=2,class=SMALLCONST,delta=1,noexec
     7                           	psect	nvCOMRAM,global,class=COMRAM,space=1,delta=1,lowdata,noexec
     8                           	psect	nvBANK5,global,class=BANK5,space=1,delta=1,lowdata,noexec
     9                           	psect	cinit,global,reloc=2,class=CODE,delta=1
    10                           	psect	bitbssCOMRAM,global,bit,class=COMRAM,space=1,delta=1,lowdata,noexec
    11                           	psect	bssCOMRAM,global,class=COMRAM,space=1,delta=1,lowdata,noexec
    12                           	psect	bssBANK5,global,class=BANK5,space=1,delta=1,lowdata,noexec
    13                           	psect	cstackCOMRAM,global,class=COMRAM,space=1,delta=1,lowdata,noexec
    14                           	psect	text0,global,reloc=2,class=CODE,delta=1
    15                           	psect	text1,global,reloc=2,class=CODE,delta=1
    16                           	psect	text2,global,reloc=2,class=CODE,delta=1
    17                           	psect	text3,global,reloc=2,class=CODE,delta=1
    18                           	psect	text4,global,reloc=2,class=CODE,delta=1
    19                           	psect	text5,global,reloc=2,class=CODE,delta=1
    20                           	psect	text6,global,reloc=2,class=CODE,delta=1
    21                           	psect	text7,global,reloc=2,class=CODE,delta=1
    22                           	psect	text8,global,reloc=2,class=CODE,delta=1
    23                           	psect	text9,global,reloc=2,class=CODE,delta=1
    24                           	psect	text10,global,reloc=2,class=CODE,delta=1
    25                           	psect	text11,global,reloc=2,class=CODE,delta=1
    26                           	psect	text12,global,reloc=2,class=CODE,delta=1
    27                           	psect	text13,global,reloc=2,class=CODE,delta=1
    28                           	psect	text14,global,reloc=2,class=CODE,delta=1
    29                           	psect	text15,global,reloc=2,class=CODE,delta=1
    30                           	psect	text16,global,reloc=2,class=CODE,delta=1
    31                           	psect	text17,global,reloc=2,class=CODE,delta=1
    32                           	psect	text18,global,reloc=2,class=CODE,delta=1
    33                           	psect	text19,global,reloc=2,class=CODE,delta=1
    34                           	psect	text20,global,reloc=2,class=CODE,delta=1
    35                           	psect	text21,global,reloc=2,class=CODE,delta=1
    36                           	psect	text22,global,reloc=2,class=CODE,delta=1
    37                           	psect	text23,global,reloc=2,class=CODE,delta=1
    38                           	psect	text24,global,reloc=2,class=CODE,delta=1
    39                           	psect	text25,global,reloc=2,class=CODE,delta=1
    40                           	psect	text26,global,reloc=2,class=CODE,delta=1
    41                           	psect	text27,global,reloc=2,class=CODE,delta=1
    42                           	psect	text28,global,reloc=2,class=CODE,delta=1
    43                           	psect	text29,global,reloc=2,class=CODE,delta=1
    44                           	psect	text30,global,reloc=2,class=CODE,delta=1
    45                           	psect	text31,global,reloc=2,class=CODE,delta=1
    46                           	psect	text32,global,reloc=2,class=CODE,delta=1
    47                           	psect	text33,global,reloc=2,class=CODE,delta=1
    48                           	psect	text34,global,reloc=2,class=CODE,delta=1
    49                           	psect	text35,global,reloc=2,class=CODE,delta=1
    50                           	psect	text36,global,reloc=2,class=CODE,delta=1
    51                           	psect	text37,global,reloc=2,class=CODE,delta=1
    52                           	psect	text38,global,reloc=4,class=CODE,delta=1
    53                           	psect	text39,global,reloc=4,class=CODE,delta=1
    54                           	psect	text40,global,reloc=2,class=CODE,delta=1
    55                           	psect	text41,global,reloc=2,class=CODE,delta=1
    56                           	psect	text42,global,reloc=2,class=CODE,delta=1
    57                           	psect	text43,global,reloc=4,class=CODE,delta=1
    58                           	psect	text44,global,reloc=2,class=CODE,delta=1
    59                           	psect	text45,global,reloc=2,class=CODE,delta=1
    60                           	psect	text46,global,reloc=4,class=CODE,delta=1
    61                           	psect	text47,global,reloc=2,class=CODE,delta=1
    62                           	psect	text48,global,reloc=2,class=CODE,delta=1
    63                           	psect	text49,global,reloc=4,class=CODE,delta=1
    64                           	psect	text50,global,reloc=2,class=CODE,delta=1
    65                           	psect	text51,global,reloc=2,class=CODE,delta=1
    66                           	psect	text52,global,reloc=4,class=CODE,delta=1
    67                           	psect	text53,global,reloc=2,class=CODE,delta=1
    68                           	psect	text54,global,reloc=2,class=CODE,delta=1
    69                           	psect	text55,global,reloc=2,class=CODE,delta=1
    70                           	psect	text56,global,reloc=2,class=CODE,delta=1
    71                           	psect	text57,global,reloc=4,class=CODE,delta=1
    72                           	psect	text58,global,reloc=2,class=CODE,delta=1
    73                           	psect	ivt0x8,global,reloc=2,class=CODE,delta=1,noexec,keep,optim=
    74                           	psect	intsave_regs,global,class=BIGRAM,space=1,delta=1,noexec
    75                           	psect	text59,global,reloc=2,class=CODE,delta=1
    76                           	psect	rparam,global,class=COMRAM,space=1,delta=1,noexec
    77                           	psect	config,global,abs,ovrld,class=CONFIG,space=4,delta=1,noexec
    78   000000                     
    79                           ; Generated 18/07/2023 GMT
    80                           ; 
    81                           ; Copyright © 2023, Microchip Technology Inc. and its subsidiaries ("Microchip")
    82                           ; All rights reserved.
    83                           ; 
    84                           ; This software is developed by Microchip Technology Inc. and its subsidiaries ("Microch
      +                          ip").
    85                           ; 
    86                           ; Redistribution and use in source and binary forms, with or without modification, are
    87                           ; permitted provided that the following conditions are met:
    88                           ; 
    89                           ;     1. Redistributions of source code must retain the above copyright notice, this lis
      +                          t of
    90                           ;        conditions and the following disclaimer.
    91                           ; 
    92                           ;     2. Redistributions in binary form must reproduce the above copyright notice, this 
      +                          list
    93                           ;        of conditions and the following disclaimer in the documentation and/or other
    94                           ;        materials provided with the distribution. Publication is not required when
    95                           ;        this file is used in an embedded application.
    96                           ; 
    97                           ;     3. Microchip's name may not be used to endorse or promote products derived from th
      +                          is
    98                           ;        software without specific prior written permission.
    99                           ; 
   100                           ; THIS SOFTWARE IS PROVIDED BY MICROCHIP "AS IS" AND ANY EXPRESS OR IMPLIED WARRANTIES,
   101                           ; INCLUDING, BUT NOT LIMITED TO, THE IMPLIED WARRANTIES OF MERCHANTABILITY AND FITNESS F
      +                          OR
   102                           ; PURPOSE ARE DISCLAIMED.  IN NO EVENT SHALL MICROCHIP BE LIABLE FOR ANY DIRECT, INDIREC
      +                          T,
   103                           ; INCIDENTAL, SPECIAL, EXEMPLARY, OR CONSEQUENTIAL DAMAGES (INCLUDING BUT NOT LIMITED TO
   104                           ; PROCUREMENT OF SUBSTITUTE GOODS OR SERVICES; LOSS OF USE, DATA OR PROFITS; OR BUSINESS
   105                           ; INTERRUPTION) HOWSOEVER CAUSED AND ON ANY THEORY OF LIABILITY, WHETHER IN CONTRACT, ST
      +                          RICT
   106                           ; LIABILITY, OR TORT (INCLUDING NEGLIGENCE OR OTHERWISE) ARISING IN ANY WAY OUT OF THE U
      +                          SE OF
   107                           ; THIS SOFTWARE, EVEN IF ADVISED OF THE POSSIBILITY OF SUCH DAMAGE.
   108                           ; 
   109                           ; 
   110                           ; Code-generator required, PIC18F47Q43 Definitions
   111                           ; 
   112                           ; SFR Addresses
   113   000000                     
   114                           	psect	eeprom_data
   115   380000                     _data_eep:
   116                           	callstack 0
   117   380000  00 00              	db	0,0	;# 
   118   000000                     
   119 ;; Function _TMR0_Start is unused but had its address taken
   120   000000                     
   121 ;; Function _TMR0_Stop is unused but had its address taken
   122   000000                     
   123 ;; Function _TMR0_PeriodCountSet is unused but had its address taken
   124   000000                     
   125 ;; Function _UART3_Deinitialize is unused but had its address taken
   126   000000                     
   127 ;; Function _UART3_TransmitEnable is unused but had its address taken
   128   000000                     
   129 ;; Function _UART3_TransmitDisable is unused but had its address taken
   130   000000                     
   131 ;; Function _UART3_AutoBaudSet is unused but had its address taken
   132   000000                     
   133 ;; Function _UART3_AutoBaudQuery is unused but had its address taken
   134   000000                     
   135 ;; Function _UART3_IsRxReady is unused but had its address taken
   136   000000                     
   137 ;; Function _UART3_IsTxReady is unused but had its address taken
   138   000000                     
   139 ;; Function _UART3_IsTxDone is unused but had its address taken
   140   000000                     
   141 ;; Function _UART3_ErrorGet is unused but had its address taken
   142   000000                     
   143 ;; Function _UART3_Read is unused but had its address taken
   144   000000                     
   145 ;; Function _UART3_DefaultParityErrorCallback is unused but had its address taken
   146   000000                     
   147 ;; Function _UART3_TxCompleteCallbackRegister is unused but had its address taken
   148   000000                     
   149                           	psect	smallconst
   150   002500                     __psmallconst:
   151                           	callstack 0
   152   002500  00                 	db	0
   153   002501                     _UART3:
   154                           	callstack 0
   155   002501  1C                 	db	low _UART3_Initialize
   156   002502  27                 	db	high _UART3_Initialize
   157   002503  00                 	db	low (_UART3_Initialize shr (0+16))
   158   002504  00                 	db	0
   159   002505  00                 	db	0
   160   002506  00                 	db	0
   161   002507  00                 	db	0
   162   002508  00                 	db	0
   163   002509  00                 	db	0
   164   00250A  70                 	db	low _UART3_Write
   165   00250B  2A                 	db	high _UART3_Write
   166   00250C  00                 	db	low (_UART3_Write shr (0+16))
   167   00250D  00                 	db	0
   168   00250E  00                 	db	0
   169   00250F  00                 	db	0
   170   002510  00                 	db	0
   171   002511  00                 	db	0
   172   002512  00                 	db	0
   173   002513  00                 	db	0
   174   002514  00                 	db	0
   175   002515  00                 	db	0
   176   002516  00                 	db	0
   177   002517  00                 	db	0
   178   002518  00                 	db	0
   179   002519  00                 	db	0
   180   00251A  00                 	db	0
   181   00251B  00                 	db	0
   182   00251C  00                 	db	0
   183   00251D  00                 	db	0
   184   00251E  00                 	db	0
   185   00251F  00                 	db	0
   186   002520  00                 	db	0
   187   002521  00                 	db	0
   188   002522  00                 	db	0
   189   002523  00                 	db	0
   190   002524  00                 	db	0
   191   002525  00                 	db	0
   192   002526  00                 	db	0
   193   002527  00                 	db	0
   194   002528  00                 	db	0
   195   002529  00                 	db	0
   196   00252A  00                 	db	0
   197   00252B  00                 	db	0
   198   00252C  00                 	db	0
   199   00252D  00                 	db	0
   200   00252E  00                 	db	0
   201   00252F  00                 	db	0
   202   002530  00                 	db	0
   203   002531  00                 	db	0
   204   002532  00                 	db	0
   205   002533  00                 	db	0
   206   002534  00                 	db	0
   207   002535  00                 	db	0
   208   002536  00                 	db	0
   209   002537  C4                 	db	low _UART3_RxCompleteCallbackRegister
   210   002538  2C                 	db	high _UART3_RxCompleteCallbackRegister
   211   002539  00                 	db	low (_UART3_RxCompleteCallbackRegister shr (0+16))
   212   00253A  00                 	db	0
   213   00253B  00                 	db	0
   214   00253C  00                 	db	0
   215   00253D  0C                 	db	low _UART3_FramingErrorCallbackRegister
   216   00253E  2D                 	db	high _UART3_FramingErrorCallbackRegister
   217   00253F  00                 	db	low (_UART3_FramingErrorCallbackRegister shr (0+16))
   218   002540  F4                 	db	low _UART3_OverrunErrorCallbackRegister
   219   002541  2C                 	db	high _UART3_OverrunErrorCallbackRegister
   220   002542  00                 	db	low (_UART3_OverrunErrorCallbackRegister shr (0+16))
   221   002543  DC                 	db	low _UART3_ParityErrorCallbackRegister
   222   002544  2C                 	db	high _UART3_ParityErrorCallbackRegister
   223   002545  00                 	db	low (_UART3_ParityErrorCallbackRegister shr (0+16))
   224   002546  00                 	db	0
   225   002547  00                 	db	0
   226   002548  00                 	db	0
   227   002549                     __end_of_UART3:
   228                           	callstack 0
   229   002549                     _Timer0:
   230                           	callstack 0
   231   002549  3A                 	db	low _TMR0_Initialize
   232   00254A  2A                 	db	high _TMR0_Initialize
   233   00254B  00                 	db	low (_TMR0_Initialize shr (0+16))
   234   00254C  00                 	db	0
   235   00254D  00                 	db	0
   236   00254E  00                 	db	0
   237   00254F  00                 	db	0
   238   002550  00                 	db	0
   239   002551  00                 	db	0
   240   002552  00                 	db	0
   241   002553  00                 	db	0
   242   002554  00                 	db	0
   243   002555  B2                 	db	low _TMR0_OverflowCallbackRegister
   244   002556  2D                 	db	high _TMR0_OverflowCallbackRegister
   245   002557  00                 	db	low (_TMR0_OverflowCallbackRegister shr (0+16))
   246   002558  00                 	db	0
   247   002559  00                 	db	0
   248   00255A  00                 	db	0
   249   00255B                     __end_of_Timer0:
   250                           	callstack 0
   251   00255B                     _data_wakeup:
   252                           	callstack 0
   253   00255B  53                 	db	83
   254   00255C  74                 	db	116
   255   00255D  61                 	db	97
   256   00255E  74                 	db	116
   257   00255F  75                 	db	117
   258   002560  73                 	db	115
   259   002561  20                 	db	32
   260   002562  69                 	db	105
   261   002563  73                 	db	115
   262   002564  20                 	db	32
   263   002565  57                 	db	87
   264   002566  41                 	db	65
   265   002567  4B                 	db	75
   266   002568  45                 	db	69
   267   002569  55                 	db	85
   268   00256A  50                 	db	80
   269   00256B  2E                 	db	46
   270   00256C  0D                 	db	13
   271   00256D  0A                 	db	10
   272   00256E  00                 	db	0
   273   00256F                     __end_of_data_wakeup:
   274                           	callstack 0
   275   00256F                     _data_reset:
   276                           	callstack 0
   277   00256F  53                 	db	83
   278   002570  74                 	db	116
   279   002571  61                 	db	97
   280   002572  74                 	db	116
   281   002573  75                 	db	117
   282   002574  73                 	db	115
   283   002575  20                 	db	32
   284   002576  69                 	db	105
   285   002577  73                 	db	115
   286   002578  20                 	db	32
   287   002579  52                 	db	82
   288   00257A  45                 	db	69
   289   00257B  53                 	db	83
   290   00257C  45                 	db	69
   291   00257D  54                 	db	84
   292   00257E  2E                 	db	46
   293   00257F  0D                 	db	13
   294   002580  0A                 	db	10
   295   002581  00                 	db	0
   296   002582                     __end_of_data_reset:
   297                           	callstack 0
   298   000000                     _DMAnSPTR	set	244
   299   000000                     _DMAnSCNT	set	242
   300   000000                     _DMAnSSZ	set	247
   301   000000                     _NVMLOCK	set	66
   302   000000                     _NVMADRL	set	67
   303   000000                     _NVMADRH	set	68
   304   000000                     _NVMADRU	set	69
   305   000000                     _NVMCON1bits	set	65
   306   000000                     _T0CON0	set	794
   307   000000                     _T0CON1	set	795
   308   000000                     _IOCCF	set	1047
   309   000000                     _IOCCN	set	1046
   310   000000                     _IOCCP	set	1045
   311   000000                     _IOCBF	set	1039
   312   000000                     _IOCBN	set	1038
   313   000000                     _IOCBP	set	1037
   314   000000                     _IOCAF	set	1031
   315   000000                     _IOCAN	set	1030
   316   000000                     _IOCAP	set	1029
   317   000000                     _INLVLC	set	1044
   318   000000                     _INLVLB	set	1036
   319   000000                     _INLVLA	set	1028
   320   000000                     _SLRCONC	set	1043
   321   000000                     _SLRCONB	set	1035
   322   000000                     _SLRCONA	set	1027
   323   000000                     _ODCONC	set	1042
   324   000000                     _ODCONB	set	1034
   325   000000                     _ODCONA	set	1026
   326   000000                     _WPUC	set	1041
   327   000000                     _WPUB	set	1033
   328   000000                     _WPUA	set	1025
   329   000000                     _ANSELD	set	1048
   330   000000                     _ANSELC	set	1040
   331   000000                     _ANSELB	set	1032
   332   000000                     _OSCTUNE	set	176
   333   000000                     _OSCFRQ	set	177
   334   000000                     _OSCEN	set	179
   335   000000                     _SCANPR	set	181
   336   000000                     _DMA1PR	set	182
   337   000000                     _DMAnCON0	set	252
   338   000000                     _DMAnAIRQ	set	254
   339   000000                     _DMAnSIRQ	set	255
   340   000000                     _DMAnCON1	set	253
   341   000000                     _U3TXB	set	713
   342   002582  00                 	db	0	; dummy byte at the end
   343   000000                     
   344                           	psect	nvCOMRAM
   345   000559                     __pnvCOMRAM:
   346                           	callstack 0
   347   000559                     _TMR0_OverflowCallback:
   348                           	callstack 0
   349   000559                     	ds	3
   350   00055C                     _UART3_TxInterruptHandler:
   351                           	callstack 0
   352   00055C                     	ds	3
   353                           
   354                           	psect	nvBANK5
   355   000568                     __pnvBANK5:
   356                           	callstack 0
   357   000568                     _UART3_RxInterruptHandler:
   358                           	callstack 0
   359   000568                     	ds	3
   360   000000                     _PRLOCKbits	set	180
   361   000000                     _DMAnCON0bits	set	252
   362   000000                     _U3ERRIRbits	set	728
   363   000000                     _U3UIRbits	set	727
   364   000000                     _U3CON0bits	set	721
   365   000000                     _T0CON0bits	set	794
   366   000000                     _IVTLOCKbits	set	1113
   367   000000                     _TMR0IF	set	9615
   368   000000                     _TMR0IE	set	9487
   369   000000                     _GIE	set	9911
   370   000000                     _NVMCON0bits	set	64
   371   000000                     _ACTCON	set	172
   372   000000                     _OSCCON1	set	173
   373   000000                     _PRLOCK	set	180
   374   000000                     _DMASELECT	set	232
   375   000000                     _DMAnSSA	set	249
   376   000000                     _DMAnDCNT	set	234
   377   000000                     _DMAnDPTR	set	236
   378   000000                     _DMAnDSZ	set	238
   379   000000                     _DMAnDSA	set	240
   380   000000                     _U3P1L	set	715
   381   000000                     _TMR0L	set	792
   382   000000                     _TMR0H	set	793
   383   000000                     _IPR1bits	set	867
   384   000000                     _ANSELA	set	1024
   385   000000                     _PIE2bits	set	1184
   386   000000                     _PIR2bits	set	1200
   387   000000                     _RA6PPS	set	519
   388   000000                     _INT0PPS	set	574
   389   000000                     _U3RXPPS	set	630
   390   000000                     _RC4I2C	set	646
   391   000000                     _RC3I2C	set	647
   392   000000                     _RB2I2C	set	648
   393   000000                     _RB1I2C	set	649
   394   000000                     _PIR3bits	set	1201
   395   000000                     _PIR6bits	set	1204
   396   000000                     _LATA	set	1214
   397   000000                     _INTCON0bits	set	1238
   398   000000                     _PIE9bits	set	1191
   399   000000                     _PIE3bits	set	1185
   400   000000                     _PIR1bits	set	1199
   401   000000                     _PRODL	set	1267
   402   000000                     _PRODH	set	1268
   403   000000                     _MAINPR	set	190
   404   000000                     _DMA6PR	set	187
   405   000000                     _DMA5PR	set	186
   406   000000                     _DMA4PR	set	185
   407   000000                     _DMA3PR	set	184
   408   000000                     _DMA2PR	set	183
   409   000000                     _ISRPR	set	191
   410   000000                     _OSCCON3	set	175
   411   000000                     _TRISA	set	1222
   412   000000                     _LATE	set	1218
   413   000000                     _LATD	set	1217
   414   000000                     _LATC	set	1216
   415   000000                     _LATB	set	1215
   416   000000                     _TRISE	set	1226
   417   000000                     _TRISD	set	1225
   418   000000                     _TRISC	set	1224
   419   000000                     _TRISB	set	1223
   420   000000                     _INLVLD	set	1052
   421   000000                     _SLRCOND	set	1051
   422   000000                     _ODCOND	set	1050
   423   000000                     _WPUD	set	1049
   424   000000                     _ANSELE	set	1056
   425   000000                     _IVTLOCK	set	1113
   426   000000                     _IOCEF	set	1063
   427   000000                     _IOCEN	set	1062
   428   000000                     _IOCEP	set	1061
   429   000000                     _INLVLE	set	1060
   430   000000                     _SLRCONE	set	1059
   431   000000                     _ODCONE	set	1058
   432   000000                     _WPUE	set	1057
   433   000000                     _U3RXB	set	711
   434   000000                     _IVTBASEL	set	1117
   435   000000                     _IVTBASEH	set	1118
   436   000000                     _IVTBASEU	set	1119
   437   000000                     _PIE1bits	set	1183
   438   000000                     _IPR3bits	set	869
   439   000000                     _IPR9bits	set	875
   440   000000                     _PIR10bits	set	1208
   441   000000                     _U3P2L	set	717
   442   000000                     _U3P3L	set	719
   443   000000                     _U3CON0	set	721
   444   000000                     _U3ERRIE	set	729
   445   000000                     _U3ERRIR	set	728
   446   000000                     _U3UIR	set	727
   447   000000                     _U3FIFO	set	726
   448   000000                     _U3BRGH	set	725
   449   000000                     _U3BRGL	set	724
   450   000000                     _U3CON2	set	723
   451   000000                     _U3CON1	set	722
   452   000000                     _NVMDATL	set	70
   453                           
   454                           ; #config settings
   455                           
   456                           	psect	cinit
   457   002B3E                     __pcinit:
   458                           	callstack 0
   459   002B3E                     start_initialization:
   460                           	callstack 0
   461   002B3E                     __initialization:
   462                           	callstack 0
   463                           
   464                           ; Clear objects allocated to BANK5 (8 bytes)
   465   002B3E  EE01  F160         	lfsr	0,__pbssBANK5
   466   002B42  0E08               	movlw	8
   467   002B44                     clear_0:
   468   002B44  6AEE               	clrf	postinc0,c
   469   002B46  06E8               	decf	wreg,f,c
   470   002B48  E1FD               	bnz	clear_0
   471                           
   472                           ; Clear objects allocated to BITCOMRAM (1 bytes)
   473   002B4A  6A5F               	clrf	(__pbitbssCOMRAM/(0+8))& (0+255),c
   474                           
   475                           ; Clear objects allocated to COMRAM (62 bytes)
   476   002B4C  EE01  F101         	lfsr	0,__pbssCOMRAM
   477   002B50  0E3E               	movlw	62
   478   002B52                     clear_1:
   479   002B52  6AEE               	clrf	postinc0,c
   480   002B54  06E8               	decf	wreg,f,c
   481   002B56  E1FD               	bnz	clear_1
   482                           
   483                           ;
   484                           ; Setup IVTBASE
   485                           ;
   486   002B58  0104               	movlb	4
   487   002B5A  0E08               	movlw	(ivt0x8_base shr 0)& (0+255)
   488   002B5C  6F5D               	movwf	93,b
   489   002B5E  0E00               	movlw	(ivt0x8_base shr (0+8))& (0+255)
   490   002B60  6F5E               	movwf	94,b
   491   002B62  0E00               	movlw	(ivt0x8_base shr (0+16))& (0+255)
   492   002B64  6F5F               	movwf	95,b
   493   002B66                     end_of_initialization:
   494                           	callstack 0
   495   002B66                     __end_of__initialization:
   496                           	callstack 0
   497   002B66  0100               	movlb	0
   498   002B68  EF5D  F014         	goto	_main	;jump to C main() function
   499                           
   500                           	psect	bitbssCOMRAM
   501   002AF8                     __pbitbssCOMRAM:
   502                           	callstack 0
   503   002AF8                     _bit_state:
   504                           	callstack 0
   505   002AF8                     	ds	1
   506   002AF9                     _bit_flag:
   507                           	callstack 0
   508   002AF9                     	ds	1
   509                           
   510                           	psect	bssCOMRAM
   511   000501                     __pbssCOMRAM:
   512                           	callstack 0
   513   000501                     _uart3RxStatusBuffer:
   514                           	callstack 0
   515   000501                     	ds	16
   516   000511                     _uart3TxBuffer:
   517                           	callstack 0
   518   000511                     	ds	8
   519   000519                     _UART3_RxCompleteInterruptHandler:
   520                           	callstack 0
   521   000519                     	ds	3
   522   00051C                     _UART3_TxCompleteInterruptHandler:
   523                           	callstack 0
   524   00051C                     	ds	3
   525   00051F                     _UART3_ParityErrorHandler:
   526                           	callstack 0
   527   00051F                     	ds	3
   528   000522                     _UART3_OverrunErrorHandler:
   529                           	callstack 0
   530   000522                     	ds	3
   531   000525                     _UART3_FramingErrorHandler:
   532                           	callstack 0
   533   000525                     	ds	3
   534   000528                     _INT2_InterruptHandler:
   535                           	callstack 0
   536   000528                     	ds	3
   537   00052B                     _INT1_InterruptHandler:
   538                           	callstack 0
   539   00052B                     	ds	3
   540   00052E                     _INT0_InterruptHandler:
   541                           	callstack 0
   542   00052E                     	ds	3
   543   000531                     _uart3RxLastError:
   544                           	callstack 0
   545   000531                     	ds	2
   546   000533                     _timerTMR0ReloadVal16bit:
   547                           	callstack 0
   548   000533                     	ds	2
   549   000535                     _unlockKeyHigh:
   550                           	callstack 0
   551   000535                     	ds	1
   552   000536                     _unlockKeyLow:
   553                           	callstack 0
   554   000536                     	ds	1
   555   000537                     _data_recv:
   556                           	callstack 0
   557   000537                     	ds	1
   558   000538                     _count_out:
   559                           	callstack 0
   560   000538                     	ds	1
   561   000539                     _uart3RxCount:
   562                           	callstack 0
   563   000539                     	ds	1
   564   00053A                     _uart3RxTail:
   565                           	callstack 0
   566   00053A                     	ds	1
   567   00053B                     _uart3RxHead:
   568                           	callstack 0
   569   00053B                     	ds	1
   570   00053C                     _uart3TxBufferRemaining:
   571                           	callstack 0
   572   00053C                     	ds	1
   573   00053D                     _uart3TxTail:
   574                           	callstack 0
   575   00053D                     	ds	1
   576   00053E                     _uart3TxHead:
   577                           	callstack 0
   578   00053E                     	ds	1
   579                           
   580                           	psect	bssBANK5
   581   000560                     __pbssBANK5:
   582                           	callstack 0
   583   000560                     _uart3RxBuffer:
   584                           	callstack 0
   585   000560                     	ds	8
   586                           
   587                           	psect	cstackCOMRAM
   588   00053F                     __pcstackCOMRAM:
   589                           	callstack 0
   590   00053F                     ??_INT0_ISR:
   591   00053F                     
   592                           ; 2 bytes @ 0x0
   593   00053F                     	ds	2
   594   000541                     ??_INT1_ISR:
   595                           
   596                           ; 1 bytes @ 0x2
   597   000541                     	ds	2
   598   000543                     ??_INT2_ISR:
   599                           
   600                           ; 1 bytes @ 0x4
   601   000543                     	ds	2
   602   000545                     ??_TMR0_OverflowISR:
   603   000545                     
   604                           ; 1 bytes @ 0x6
   605   000545                     	ds	2
   606   000547                     UART3_ReceiveISR@regValue:
   607                           	callstack 0
   608                           
   609                           ; 1 bytes @ 0x8
   610   000547                     	ds	1
   611   000548                     UART3_ReceiveISR@tempRxHead:
   612                           	callstack 0
   613                           
   614                           ; 1 bytes @ 0x9
   615   000548                     	ds	1
   616   000549                     ??_UART3_Receive_Vector_ISR:
   617                           
   618                           ; 1 bytes @ 0xA
   619   000549                     	ds	2
   620   00054B                     UART3_TransmitISR@tempTxTail:
   621                           	callstack 0
   622                           
   623                           ; 1 bytes @ 0xC
   624   00054B                     	ds	1
   625   00054C                     DMA1_DMAPrioritySet@priority:
   626                           	callstack 0
   627   00054C                     UART3_Write@tempTxHead:
   628                           	callstack 0
   629   00054C                     DMA1_SourceSizeSet@size:
   630                           	callstack 0
   631   00054C                     NVM_UnlockKeySet@unlockKey:
   632                           	callstack 0
   633   00054C                     DMA1_SourceAddressSet@address:
   634                           	callstack 0
   635   00054C                     INT0_SetInterruptHandler@InterruptHandler:
   636                           	callstack 0
   637   00054C                     INT1_SetInterruptHandler@InterruptHandler:
   638                           	callstack 0
   639   00054C                     INT2_SetInterruptHandler@InterruptHandler:
   640                           	callstack 0
   641   00054C                     TMR0_OverflowCallbackRegister@CallbackHandler:
   642                           	callstack 0
   643   00054C                     UART3_FramingErrorCallbackRegister@callbackHandler:
   644                           	callstack 0
   645   00054C                     UART3_OverrunErrorCallbackRegister@callbackHandler:
   646                           	callstack 0
   647   00054C                     UART3_ParityErrorCallbackRegister@callbackHandler:
   648                           	callstack 0
   649   00054C                     UART3_RxCompleteCallbackRegister@callbackHandler:
   650                           	callstack 0
   651   00054C                     EEPROM_Read@address:
   652                           	callstack 0
   653   00054C                     EEPROM_Write@address:
   654                           	callstack 0
   655                           
   656                           ; 3 bytes @ 0xD
   657   00054C                     	ds	1
   658   00054D                     DMA1_DMAPrioritySet@GIESaveState:
   659                           	callstack 0
   660   00054D                     UART3_Write@txData:
   661                           	callstack 0
   662                           
   663                           ; 1 bytes @ 0xE
   664   00054D                     	ds	1
   665   00054E                     
   666                           ; 1 bytes @ 0xF
   667   00054E                     	ds	1
   668   00054F                     ??_TMR0_Initialize:
   669   00054F                     ??_eep_read:
   670   00054F                     INTERRUPT_Initialize@state:
   671                           	callstack 0
   672   00054F                     EEPROM_Write@data:
   673                           	callstack 0
   674                           
   675                           ; 1 bytes @ 0x10
   676   00054F                     	ds	1
   677   000550                     EEPROM_Write@globalInterruptBitValue:
   678                           	callstack 0
   679                           
   680                           ; 1 bytes @ 0x11
   681   000550                     	ds	1
   682   000551                     eep_write@data:
   683                           	callstack 0
   684                           
   685                           ; 1 bytes @ 0x12
   686   000551                     	ds	1
   687   000552                     ??_eep_write:
   688                           
   689                           ; 1 bytes @ 0x13
   690   000552                     	ds	2
   691   000554                     eep_read@addr:
   692                           	callstack 0
   693                           
   694                           ; 1 bytes @ 0x15
   695   000554                     	ds	1
   696   000555                     eep_read@data:
   697                           	callstack 0
   698                           
   699                           ; 1 bytes @ 0x16
   700   000555                     	ds	2
   701   000557                     eep_write@addr:
   702                           	callstack 0
   703                           
   704                           ; 1 bytes @ 0x18
   705   000557                     	ds	1
   706   000558                     ??_main:
   707                           
   708                           ; 1 bytes @ 0x19
   709   000558                     	ds	1
   710                           
   711 ;;
   712 ;;Main: autosize = 0, tempsize = 1, incstack = 0, save=0
   713 ;;
   714 ;; *************** function _main *****************
   715 ;; Defined at:
   716 ;;		line 84 in file "main.c"
   717 ;; Parameters:    Size  Location     Type
   718 ;;		None
   719 ;; Auto vars:     Size  Location     Type
   720 ;;		None
   721 ;; Return value:  Size  Location     Type
   722 ;;                  2  814[None  ] int 
   723 ;; Registers used:
   724 ;;		wreg, fsr2l, fsr2h, status,2, status,0, cstack
   725 ;; Tracked objects:
   726 ;;		On entry : 0/0
   727 ;;		On exit  : 0/0
   728 ;;		Unchanged: 0/0
   729 ;; Data sizes:     COMRAM   BANK5   BANK6   BANK7   BANK8   BANK9  BANK10  BANK11  BANK12  BANK13  BANK14  BANK15  BANK1
      +6  BANK17  BANK18  BANK19  BANK20  BANK21  BANK22  BANK23  BANK24  BANK25  BANK26  BANK27  BANK28  BANK29  BANK30  BANK3
      +1  BANK32  BANK33  BANK34  BANK35  BANK36
   730 ;;      Params:         0       0       0       0       0       0       0       0       0       0       0       0       
      +0       0       0       0       0       0       0       0       0       0       0       0       0       0       0       
      +0       0       0       0       0       0
   731 ;;      Locals:         0       0       0       0       0       0       0       0       0       0       0       0       
      +0       0       0       0       0       0       0       0       0       0       0       0       0       0       0       
      +0       0       0       0       0       0
   732 ;;      Temps:          1       0       0       0       0       0       0       0       0       0       0       0       
      +0       0       0       0       0       0       0       0       0       0       0       0       0       0       0       
      +0       0       0       0       0       0
   733 ;;      Totals:         1       0       0       0       0       0       0       0       0       0       0       0       
      +0       0       0       0       0       0       0       0       0       0       0       0       0       0       0       
      +0       0       0       0       0       0
   734 ;;Total ram usage:        1 bytes
   735 ;; Hardware stack levels required when called: 6
   736 ;; This function calls:
   737 ;;		_INT0_SetInterruptHandler
   738 ;;		_SYSTEM_Initialize
   739 ;;		_TMR0_OverflowCallbackRegister
   740 ;;		_UART3_RxCompleteCallbackRegister
   741 ;;		_dma1_init
   742 ;;		_eep_read
   743 ;;		_request_in
   744 ;;		_update_out
   745 ;; This function is called by:
   746 ;;		Startup code after reset
   747 ;; This function uses a non-reentrant model
   748 ;;
   749                           
   750                           	psect	text0
   751   0028BA                     __ptext0:
   752                           	callstack 0
   753   0028BA                     _main:
   754                           	callstack 121
   755                           
   756                           ;main.c: 86:     SYSTEM_Initialize();
   757                           
   758                           ;incstack = 0
   759   0028BA  ECF6  F015         	call	_SYSTEM_Initialize	;wreg free
   760                           
   761                           ;main.c: 89:  INT0_SetInterruptHandler(int0Isr);
   762   0028BE  0E46               	movlw	low _int0Isr
   763   0028C0  6E4C               	movwf	INT0_SetInterruptHandler@InterruptHandler^(0+1280),c
   764   0028C2  0E2E               	movlw	high _int0Isr
   765   0028C4  6E4D               	movwf	(INT0_SetInterruptHandler@InterruptHandler+1)^(0+1280),c
   766   0028C6  0E00               	movlw	low (_int0Isr shr (0+16))
   767   0028C8  6E4E               	movwf	(INT0_SetInterruptHandler@InterruptHandler+2)^(0+1280),c
   768   0028CA  ECF5  F016         	call	_INT0_SetInterruptHandler	;wreg free
   769                           
   770                           ;main.c: 90:  TMR0_OverflowCallbackRegister(tmr0Isr);
   771   0028CE  0E2E               	movlw	low _tmr0Isr
   772   0028D0  6E4C               	movwf	TMR0_OverflowCallbackRegister@CallbackHandler^(0+1280),c
   773   0028D2  0E2E               	movlw	high _tmr0Isr
   774   0028D4  6E4D               	movwf	(TMR0_OverflowCallbackRegister@CallbackHandler+1)^(0+1280),c
   775   0028D6  0E00               	movlw	low (_tmr0Isr shr (0+16))
   776   0028D8  6E4E               	movwf	(TMR0_OverflowCallbackRegister@CallbackHandler+2)^(0+1280),c
   777   0028DA  ECD9  F016         	call	_TMR0_OverflowCallbackRegister	;wreg free
   778                           
   779                           ;main.c: 91:  UART3_RxCompleteCallbackRegister(u3rxIsr);
   780   0028DE  0E34               	movlw	low _u3rxIsr
   781   0028E0  6E4C               	movwf	UART3_RxCompleteCallbackRegister@callbackHandler^(0+1280),c
   782   0028E2  0E2E               	movlw	high _u3rxIsr
   783   0028E4  6E4D               	movwf	(UART3_RxCompleteCallbackRegister@callbackHandler+1)^(0+1280),c
   784   0028E6  0E00               	movlw	low (_u3rxIsr shr (0+16))
   785   0028E8  6E4E               	movwf	(UART3_RxCompleteCallbackRegister@callbackHandler+2)^(0+1280),c
   786   0028EA  EC62  F016         	call	_UART3_RxCompleteCallbackRegister	;wreg free
   787                           
   788                           ;main.c: 94:  dma1_init();
   789   0028EE  ECB6  F015         	call	_dma1_init	;wreg free
   790                           
   791                           ; BSR set to: 0
   792                           ;main.c: 97:  count_out = eep_read(0);
   793   0028F2  0E00               	movlw	0
   794   0028F4  EC52  F015         	call	_eep_read
   795   0028F8  6E38               	movwf	_count_out^(0+1280),c	;volatile
   796                           
   797                           ; BSR set to: 0
   798                           ;main.c: 99:  bit_state = (__bit)eep_read(1);
   799   0028FA  0E01               	movlw	1
   800   0028FC  EC52  F015         	call	_eep_read
   801   002900  6E58               	movwf	??_main^(0+1280),c
   802   002902  3058               	rrcf	??_main^(0+1280),w,c
   803   002904  A0D8               	btfss	status,0,c
   804   002906  D002               	goto	u680
   805   002908  805F               	bsf	(_bit_state/(0+8))^(0+1280),_bit_state& (0+7),c
   806   00290A  D001               	goto	u695
   807   00290C                     u680:
   808   00290C  905F               	bcf	(_bit_state/(0+8))^(0+1280),_bit_state& (0+7),c
   809   00290E                     u695:
   810                           
   811                           ;main.c: 102:  data_recv = 0x00;
   812   00290E  0E00               	movlw	0
   813   002910  6E37               	movwf	_data_recv^(0+1280),c	;volatile
   814                           
   815                           ;main.c: 103:  bit_flag = 0;
   816   002912  925F               	bcf	(_bit_flag/(0+8))^(0+1280),_bit_flag& (0+7),c	;volatile
   817                           
   818                           ;main.c: 106:  (INTCON0bits.GIE = 1);
   819   002914  8ED6               	bsf	214,7,c	;volatile
   820   002916                     l2380:
   821                           
   822                           ;main.c: 109:   request_in();
   823   002916  EC25  F014         	call	_request_in	;wreg free
   824                           
   825                           ;main.c: 110:   update_out();
   826   00291A  EC4A  F016         	call	_update_out	;wreg free
   827   00291E  D7FB               	goto	l2380
   828   002920                     __end_of_main:
   829                           	callstack 0
   830                           
   831 ;; *************** function _update_out *****************
   832 ;; Defined at:
   833 ;;		line 179 in file "main.c"
   834 ;; Parameters:    Size  Location     Type
   835 ;;		None
   836 ;; Auto vars:     Size  Location     Type
   837 ;;		None
   838 ;; Return value:  Size  Location     Type
   839 ;;                  1    wreg      void 
   840 ;; Registers used:
   841 ;;		wreg, fsr2l, fsr2h, status,2, status,0, cstack
   842 ;; Tracked objects:
   843 ;;		On entry : 0/0
   844 ;;		On exit  : 0/0
   845 ;;		Unchanged: 0/0
   846 ;; Data sizes:     COMRAM   BANK5   BANK6   BANK7   BANK8   BANK9  BANK10  BANK11  BANK12  BANK13  BANK14  BANK15  BANK1
      +6  BANK17  BANK18  BANK19  BANK20  BANK21  BANK22  BANK23  BANK24  BANK25  BANK26  BANK27  BANK28  BANK29  BANK30  BANK3
      +1  BANK32  BANK33  BANK34  BANK35  BANK36
   847 ;;      Params:         0       0       0       0       0       0       0       0       0       0       0       0       
      +0       0       0       0       0       0       0       0       0       0       0       0       0       0       0       
      +0       0       0       0       0       0
   848 ;;      Locals:         0       0       0       0       0       0       0       0       0       0       0       0       
      +0       0       0       0       0       0       0       0       0       0       0       0       0       0       0       
      +0       0       0       0       0       0
   849 ;;      Temps:          0       0       0       0       0       0       0       0       0       0       0       0       
      +0       0       0       0       0       0       0       0       0       0       0       0       0       0       0       
      +0       0       0       0       0       0
   850 ;;      Totals:         0       0       0       0       0       0       0       0       0       0       0       0       
      +0       0       0       0       0       0       0       0       0       0       0       0       0       0       0       
      +0       0       0       0       0       0
   851 ;;Total ram usage:        0 bytes
   852 ;; Hardware stack levels used: 1
   853 ;; Hardware stack levels required when called: 4
   854 ;; This function calls:
   855 ;;		_UART3_Write
   856 ;; This function is called by:
   857 ;;		_main
   858 ;; This function uses a non-reentrant model
   859 ;;
   860                           
   861                           	psect	text1
   862   002C94                     __ptext1:
   863                           	callstack 0
   864   002C94                     _update_out:
   865                           	callstack 122
   866                           
   867                           ;main.c: 181:  LATA = count_out & 0x0F;
   868                           
   869                           ;incstack = 0
   870   002C94  5038               	movf	_count_out^(0+1280),w,c	;volatile
   871   002C96  0B0F               	andlw	15
   872   002C98  6EBE               	movwf	190,c	;volatile
   873                           
   874                           ;main.c: 183:  if (bit_flag == 1) {
   875   002C9A  A25F               	btfss	(_bit_flag/(0+8))^(0+1280),_bit_flag& (0+7),c	;volatile
   876   002C9C  0012               	return	
   877                           
   878                           ;main.c: 184:   if (bit_state == 1) {
   879   002C9E  A05F               	btfss	(_bit_state/(0+8))^(0+1280),_bit_state& (0+7),c
   880   002CA0  D003               	goto	l1982
   881                           
   882                           ;main.c: 185:    UART3_Write('+');
   883   002CA2  0E2B               	movlw	43
   884   002CA4  EC38  F015         	call	_UART3_Write
   885   002CA8                     l1982:
   886                           
   887                           ;main.c: 187:   bit_flag = 0;
   888   002CA8  925F               	bcf	(_bit_flag/(0+8))^(0+1280),_bit_flag& (0+7),c	;volatile
   889   002CAA  0012               	return		;funcret
   890   002CAC                     __end_of_update_out:
   891                           	callstack 0
   892                           
   893 ;; *************** function _UART3_Write *****************
   894 ;; Defined at:
   895 ;;		line 370 in file "mcc_generated_files/uart/src/uart3.c"
   896 ;; Parameters:    Size  Location     Type
   897 ;;  txData          1    wreg     unsigned char 
   898 ;; Auto vars:     Size  Location     Type
   899 ;;  txData          1   14[COMRAM] unsigned char 
   900 ;;  tempTxHead      1   13[COMRAM] unsigned char 
   901 ;; Return value:  Size  Location     Type
   902 ;;                  1    wreg      void 
   903 ;; Registers used:
   904 ;;		wreg, fsr2l, fsr2h, status,2, status,0
   905 ;; Tracked objects:
   906 ;;		On entry : 0/0
   907 ;;		On exit  : 0/0
   908 ;;		Unchanged: 0/0
   909 ;; Data sizes:     COMRAM   BANK5   BANK6   BANK7   BANK8   BANK9  BANK10  BANK11  BANK12  BANK13  BANK14  BANK15  BANK1
      +6  BANK17  BANK18  BANK19  BANK20  BANK21  BANK22  BANK23  BANK24  BANK25  BANK26  BANK27  BANK28  BANK29  BANK30  BANK3
      +1  BANK32  BANK33  BANK34  BANK35  BANK36
   910 ;;      Params:         0       0       0       0       0       0       0       0       0       0       0       0       
      +0       0       0       0       0       0       0       0       0       0       0       0       0       0       0       
      +0       0       0       0       0       0
   911 ;;      Locals:         2       0       0       0       0       0       0       0       0       0       0       0       
      +0       0       0       0       0       0       0       0       0       0       0       0       0       0       0       
      +0       0       0       0       0       0
   912 ;;      Temps:          0       0       0       0       0       0       0       0       0       0       0       0       
      +0       0       0       0       0       0       0       0       0       0       0       0       0       0       0       
      +0       0       0       0       0       0
   913 ;;      Totals:         2       0       0       0       0       0       0       0       0       0       0       0       
      +0       0       0       0       0       0       0       0       0       0       0       0       0       0       0       
      +0       0       0       0       0       0
   914 ;;Total ram usage:        2 bytes
   915 ;; Hardware stack levels used: 1
   916 ;; Hardware stack levels required when called: 3
   917 ;; This function calls:
   918 ;;		Nothing
   919 ;; This function is called by:
   920 ;;		_update_out
   921 ;; This function uses a non-reentrant model
   922 ;;
   923                           
   924                           	psect	text2
   925   002A70                     __ptext2:
   926                           	callstack 0
   927   002A70                     _UART3_Write:
   928                           	callstack 122
   929                           
   930                           ;incstack = 0
   931                           ;UART3_Write@txData stored from wreg
   932   002A70  6E4D               	movwf	UART3_Write@txData^(0+1280),c
   933                           
   934                           ;mcc_generated_files/uart/src/uart3.c: 370: void UART3_Write(uint8_t txData);mcc_generat
      +                          ed_files/uart/src/uart3.c: 371: {;mcc_generated_files/uart/src/uart3.c: 372:     uint8_t
      +                           tempTxHead;;mcc_generated_files/uart/src/uart3.c: 374:     if(0 == PIE9bits.U3TXIE)
   935   002A72  B2A7               	btfsc	167,1,c	;volatile
   936   002A74  D003               	goto	l1822
   937                           
   938                           ;mcc_generated_files/uart/src/uart3.c: 375:     {;mcc_generated_files/uart/src/uart3.c: 
      +                          376:         U3TXB = txData;
   939   002A76  C54D  F2C9         	movff	UART3_Write@txData,713	;volatile
   940                           
   941                           ;mcc_generated_files/uart/src/uart3.c: 377:     }
   942   002A7A  D012               	goto	l686
   943   002A7C                     l1822:
   944   002A7C  503C               	movf	_uart3TxBufferRemaining^(0+1280),w,c	;volatile
   945   002A7E  B4D8               	btfsc	status,2,c
   946   002A80  D00F               	goto	l686
   947                           
   948                           ;mcc_generated_files/uart/src/uart3.c: 379:     {;mcc_generated_files/uart/src/uart3.c: 
      +                          380:        uart3TxBuffer[uart3TxHead] = txData;
   949   002A82  0E11               	movlw	low _uart3TxBuffer
   950   002A84  243E               	addwf	_uart3TxHead^(0+1280),w,c	;volatile
   951   002A86  6ED9               	movwf	fsr2l,c
   952   002A88  6ADA               	clrf	fsr2h,c
   953   002A8A  0E05               	movlw	high _uart3TxBuffer
   954   002A8C  22DA               	addwfc	fsr2h,f,c
   955   002A8E  C54D  F4DF         	movff	UART3_Write@txData,indf2
   956                           
   957                           ;mcc_generated_files/uart/src/uart3.c: 381:        tempTxHead = (uart3TxHead + 1) & ((8)
      +                           - 1);
   958   002A92  283E               	incf	_uart3TxHead^(0+1280),w,c	;volatile
   959   002A94  0B07               	andlw	7
   960   002A96  6E4C               	movwf	UART3_Write@tempTxHead^(0+1280),c
   961                           
   962                           ;mcc_generated_files/uart/src/uart3.c: 383:        uart3TxHead = tempTxHead;
   963   002A98  C54C  F53E         	movff	UART3_Write@tempTxHead,_uart3TxHead	;volatile
   964                           
   965                           ;mcc_generated_files/uart/src/uart3.c: 384:        PIE9bits.U3TXIE = 0;
   966   002A9C  92A7               	bcf	167,1,c	;volatile
   967                           
   968                           ;mcc_generated_files/uart/src/uart3.c: 385:        uart3TxBufferRemaining--;
   969   002A9E  063C               	decf	_uart3TxBufferRemaining^(0+1280),f,c	;volatile
   970   002AA0                     l686:
   971                           
   972                           ;mcc_generated_files/uart/src/uart3.c: 391:     PIE9bits.U3TXIE = 1;
   973   002AA0  82A7               	bsf	167,1,c	;volatile
   974   002AA2  0012               	return		;funcret
   975   002AA4                     __end_of_UART3_Write:
   976                           	callstack 0
   977                           
   978 ;; *************** function _request_in *****************
   979 ;; Defined at:
   980 ;;		line 128 in file "main.c"
   981 ;; Parameters:    Size  Location     Type
   982 ;;		None
   983 ;; Auto vars:     Size  Location     Type
   984 ;;		None
   985 ;; Return value:  Size  Location     Type
   986 ;;                  1    wreg      void 
   987 ;; Registers used:
   988 ;;		wreg, status,2, status,0, cstack
   989 ;; Tracked objects:
   990 ;;		On entry : 0/0
   991 ;;		On exit  : 0/0
   992 ;;		Unchanged: 0/0
   993 ;; Data sizes:     COMRAM   BANK5   BANK6   BANK7   BANK8   BANK9  BANK10  BANK11  BANK12  BANK13  BANK14  BANK15  BANK1
      +6  BANK17  BANK18  BANK19  BANK20  BANK21  BANK22  BANK23  BANK24  BANK25  BANK26  BANK27  BANK28  BANK29  BANK30  BANK3
      +1  BANK32  BANK33  BANK34  BANK35  BANK36
   994 ;;      Params:         0       0       0       0       0       0       0       0       0       0       0       0       
      +0       0       0       0       0       0       0       0       0       0       0       0       0       0       0       
      +0       0       0       0       0       0
   995 ;;      Locals:         0       0       0       0       0       0       0       0       0       0       0       0       
      +0       0       0       0       0       0       0       0       0       0       0       0       0       0       0       
      +0       0       0       0       0       0
   996 ;;      Temps:          0       0       0       0       0       0       0       0       0       0       0       0       
      +0       0       0       0       0       0       0       0       0       0       0       0       0       0       0       
      +0       0       0       0       0       0
   997 ;;      Totals:         0       0       0       0       0       0       0       0       0       0       0       0       
      +0       0       0       0       0       0       0       0       0       0       0       0       0       0       0       
      +0       0       0       0       0       0
   998 ;;Total ram usage:        0 bytes
   999 ;; Hardware stack levels used: 1
  1000 ;; Hardware stack levels required when called: 5
  1001 ;; This function calls:
  1002 ;;		_dma1_wakeup
  1003 ;;		_eep_write
  1004 ;; This function is called by:
  1005 ;;		_main
  1006 ;; This function uses a non-reentrant model
  1007 ;;
  1008                           
  1009                           	psect	text3
  1010   00284A                     __ptext3:
  1011                           	callstack 0
  1012   00284A                     _request_in:
  1013                           	callstack 121
  1014                           
  1015                           ;main.c: 130:  if (data_recv == 'r') {
  1016                           
  1017                           ;incstack = 0
  1018   00284A  0E72               	movlw	114
  1019   00284C  1837               	xorwf	_data_recv^(0+1280),w,c
  1020   00284E  B4D8               	btfsc	status,2,c
  1021   002850  00FF               	reset		;# 
  1022                           
  1023                           ;main.c: 135:  if (data_recv == 's') {
  1024   002852  0E73               	movlw	115
  1025   002854  1837               	xorwf	_data_recv^(0+1280),w,c
  1026   002856  A4D8               	btfss	status,2,c
  1027   002858  D014               	goto	l825
  1028                           
  1029                           ;main.c: 136:   TMR0IE = 0;
  1030   00285A  9EA1               	bcf	1185,7,c	;volatile
  1031                           
  1032                           ;main.c: 137:   TMR0IF = 0;
  1033   00285C  9EB1               	bcf	1201,7,c	;volatile
  1034                           
  1035                           ;main.c: 139:   eep_write(0, count_out);
  1036   00285E  C538  F551         	movff	_count_out,eep_write@data	;volatile
  1037   002862  0E00               	movlw	0
  1038   002864  EC90  F014         	call	_eep_write
  1039                           
  1040                           ;main.c: 141:   eep_write(1, bit_state);
  1041   002868  0E00               	movlw	0
  1042   00286A  B05F               	btfsc	(_bit_state/(0+8))^(0+1280),_bit_state& (0+7),c
  1043   00286C  0E01               	movlw	1
  1044   00286E  6E51               	movwf	eep_write@data^(0+1280),c
  1045   002870  0E01               	movlw	1
  1046   002872  EC90  F014         	call	_eep_write
  1047   002876  0003               	sleep		;# 
  1048                           
  1049                           ;main.c: 144:   TMR0IE = 1;
  1050   002878  8EA1               	bsf	1185,7,c	;volatile
  1051                           
  1052                           ;main.c: 145:   dma1_wakeup();
  1053   00287A  ECCC  F015         	call	_dma1_wakeup	;wreg free
  1054                           
  1055                           ; BSR set to: 0
  1056                           ;main.c: 146:   data_recv = 0x00;
  1057   00287E  0E00               	movlw	0
  1058   002880  6E37               	movwf	_data_recv^(0+1280),c	;volatile
  1059   002882                     l825:
  1060                           
  1061                           ;main.c: 149:  if (data_recv == 'w') {
  1062   002882  0E77               	movlw	119
  1063   002884  1837               	xorwf	_data_recv^(0+1280),w,c
  1064   002886  A4D8               	btfss	status,2,c
  1065   002888  D004               	goto	l2336
  1066                           
  1067                           ;main.c: 150:   dma1_wakeup();
  1068   00288A  ECCC  F015         	call	_dma1_wakeup	;wreg free
  1069                           
  1070                           ; BSR set to: 0
  1071                           ;main.c: 151:   data_recv = 0x00;
  1072   00288E  0E00               	movlw	0
  1073   002890  6E37               	movwf	_data_recv^(0+1280),c	;volatile
  1074   002892                     l2336:
  1075                           
  1076                           ;main.c: 154:  if (data_recv == 'z') {
  1077   002892  0E7A               	movlw	122
  1078   002894  1837               	xorwf	_data_recv^(0+1280),w,c
  1079   002896  A4D8               	btfss	status,2,c
  1080   002898  D004               	goto	l2340
  1081                           
  1082                           ;main.c: 155:   count_out = 0x00;
  1083   00289A  0E00               	movlw	0
  1084   00289C  6E38               	movwf	_count_out^(0+1280),c	;volatile
  1085                           
  1086                           ;main.c: 156:   data_recv = 0x00;
  1087   00289E  0E00               	movlw	0
  1088   0028A0  6E37               	movwf	_data_recv^(0+1280),c	;volatile
  1089   0028A2                     l2340:
  1090                           
  1091                           ;main.c: 159:  if (data_recv == 'u') {
  1092   0028A2  0E75               	movlw	117
  1093   0028A4  1837               	xorwf	_data_recv^(0+1280),w,c
  1094   0028A6  A4D8               	btfss	status,2,c
  1095   0028A8  0012               	return	
  1096                           
  1097                           ;main.c: 160:   bit_state = !bit_state;
  1098   0028AA  B05F               	btfsc	(_bit_state/(0+8))^(0+1280),_bit_state& (0+7),c
  1099   0028AC  D002               	goto	u650
  1100   0028AE  805F               	bsf	(_bit_state/(0+8))^(0+1280),_bit_state& (0+7),c
  1101   0028B0  D001               	goto	u665
  1102   0028B2                     u650:
  1103   0028B2  905F               	bcf	(_bit_state/(0+8))^(0+1280),_bit_state& (0+7),c
  1104   0028B4                     u665:
  1105                           
  1106                           ;main.c: 161:   data_recv = 0x00;
  1107   0028B4  0E00               	movlw	0
  1108   0028B6  6E37               	movwf	_data_recv^(0+1280),c	;volatile
  1109   0028B8  0012               	return		;funcret
  1110   0028BA                     __end_of_request_in:
  1111                           	callstack 0
  1112                           
  1113 ;; *************** function _eep_write *****************
  1114 ;; Defined at:
  1115 ;;		line 197 in file "main.c"
  1116 ;; Parameters:    Size  Location     Type
  1117 ;;  addr            1    wreg     unsigned char 
  1118 ;;  data            1   18[COMRAM] unsigned char 
  1119 ;; Auto vars:     Size  Location     Type
  1120 ;;  addr            1   24[COMRAM] unsigned char 
  1121 ;; Return value:  Size  Location     Type
  1122 ;;                  1    wreg      void 
  1123 ;; Registers used:
  1124 ;;		wreg, status,2, status,0, cstack
  1125 ;; Tracked objects:
  1126 ;;		On entry : 0/0
  1127 ;;		On exit  : 3F/0
  1128 ;;		Unchanged: 0/0
  1129 ;; Data sizes:     COMRAM   BANK5   BANK6   BANK7   BANK8   BANK9  BANK10  BANK11  BANK12  BANK13  BANK14  BANK15  BANK1
      +6  BANK17  BANK18  BANK19  BANK20  BANK21  BANK22  BANK23  BANK24  BANK25  BANK26  BANK27  BANK28  BANK29  BANK30  BANK3
      +1  BANK32  BANK33  BANK34  BANK35  BANK36
  1130 ;;      Params:         1       0       0       0       0       0       0       0       0       0       0       0       
      +0       0       0       0       0       0       0       0       0       0       0       0       0       0       0       
      +0       0       0       0       0       0
  1131 ;;      Locals:         1       0       0       0       0       0       0       0       0       0       0       0       
      +0       0       0       0       0       0       0       0       0       0       0       0       0       0       0       
      +0       0       0       0       0       0
  1132 ;;      Temps:          5       0       0       0       0       0       0       0       0       0       0       0       
      +0       0       0       0       0       0       0       0       0       0       0       0       0       0       0       
      +0       0       0       0       0       0
  1133 ;;      Totals:         7       0       0       0       0       0       0       0       0       0       0       0       
      +0       0       0       0       0       0       0       0       0       0       0       0       0       0       0       
      +0       0       0       0       0       0
  1134 ;;Total ram usage:        7 bytes
  1135 ;; Hardware stack levels used: 1
  1136 ;; Hardware stack levels required when called: 4
  1137 ;; This function calls:
  1138 ;;		_EEPROM_Write
  1139 ;;		_NVM_IsBusy
  1140 ;;		_NVM_UnlockKeyClear
  1141 ;;		_NVM_UnlockKeySet
  1142 ;; This function is called by:
  1143 ;;		_request_in
  1144 ;; This function uses a non-reentrant model
  1145 ;;
  1146                           
  1147                           	psect	text4
  1148   002920                     __ptext4:
  1149                           	callstack 0
  1150   002920                     _eep_write:
  1151                           	callstack 121
  1152                           
  1153                           ;incstack = 0
  1154                           ;eep_write@addr stored from wreg
  1155   002920  6E57               	movwf	eep_write@addr^(0+1280),c
  1156                           
  1157                           ;main.c: 198:  NVM_UnlockKeySet((0xAA55U));
  1158   002922  0EAA               	movlw	170
  1159   002924  6E4D               	movwf	(NVM_UnlockKeySet@unlockKey+1)^(0+1280),c
  1160   002926  0E55               	movlw	85
  1161   002928  6E4C               	movwf	NVM_UnlockKeySet@unlockKey^(0+1280),c
  1162   00292A  ECFC  F016         	call	_NVM_UnlockKeySet	;wreg free
  1163                           
  1164                           ;main.c: 199:  EEPROM_Write((__uint24)(&data_eep[0] + addr), data);
  1165   00292E  5057               	movf	eep_write@addr^(0+1280),w,c
  1166   002930  6E52               	movwf	??_eep_write^(0+1280),c
  1167   002932  6A53               	clrf	(??_eep_write+1)^(0+1280),c
  1168   002934  0E00               	movlw	low _data_eep
  1169   002936  6E54               	movwf	(??_eep_write+2)^(0+1280),c
  1170   002938  0E00               	movlw	high _data_eep
  1171   00293A  6E55               	movwf	(??_eep_write+3)^(0+1280),c
  1172   00293C  0E38               	movlw	low (_data_eep shr (0+16))
  1173   00293E  6E56               	movwf	(??_eep_write+4)^(0+1280),c
  1174   002940  5052               	movf	??_eep_write^(0+1280),w,c
  1175   002942  2454               	addwf	(??_eep_write+2)^(0+1280),w,c
  1176   002944  6E4C               	movwf	EEPROM_Write@address^(0+1280),c
  1177   002946  5053               	movf	(??_eep_write+1)^(0+1280),w,c
  1178   002948  2055               	addwfc	(??_eep_write+3)^(0+1280),w,c
  1179   00294A  6E4D               	movwf	(EEPROM_Write@address+1)^(0+1280),c
  1180   00294C  0E00               	movlw	0
  1181   00294E  BE53               	btfsc	(??_eep_write+1)^(0+1280),7,c
  1182   002950  0EFF               	movlw	255
  1183   002952  2056               	addwfc	(??_eep_write+4)^(0+1280),w,c
  1184   002954  6E4E               	movwf	(EEPROM_Write@address+2)^(0+1280),c
  1185   002956  C551  F54F         	movff	eep_write@data,EEPROM_Write@data
  1186   00295A  ECDC  F014         	call	_EEPROM_Write	;wreg free
  1187   00295E                     l2242:
  1188                           
  1189                           ; BSR set to: 0
  1190   00295E  ECCB  F016         	call	_NVM_IsBusy	;wreg free
  1191   002962  0900               	iorlw	0
  1192   002964  A4D8               	btfss	status,2,c
  1193   002966  D7FB               	goto	l2242
  1194                           
  1195                           ; BSR set to: 0
  1196                           ;main.c: 201:  NVM_UnlockKeyClear();
  1197   002968  EC01  F017         	call	_NVM_UnlockKeyClear	;wreg free
  1198                           
  1199                           ; BSR set to: 0
  1200   00296C  0012               	return		;funcret
  1201   00296E                     __end_of_eep_write:
  1202                           	callstack 0
  1203                           
  1204 ;; *************** function _NVM_UnlockKeySet *****************
  1205 ;; Defined at:
  1206 ;;		line 70 in file "mcc_generated_files/nvm/src/nvm.c"
  1207 ;; Parameters:    Size  Location     Type
  1208 ;;  unlockKey       2   13[COMRAM] unsigned short 
  1209 ;; Auto vars:     Size  Location     Type
  1210 ;;		None
  1211 ;; Return value:  Size  Location     Type
  1212 ;;                  1    wreg      void 
  1213 ;; Registers used:
  1214 ;;		None
  1215 ;; Tracked objects:
  1216 ;;		On entry : 0/0
  1217 ;;		On exit  : 0/0
  1218 ;;		Unchanged: 0/0
  1219 ;; Data sizes:     COMRAM   BANK5   BANK6   BANK7   BANK8   BANK9  BANK10  BANK11  BANK12  BANK13  BANK14  BANK15  BANK1
      +6  BANK17  BANK18  BANK19  BANK20  BANK21  BANK22  BANK23  BANK24  BANK25  BANK26  BANK27  BANK28  BANK29  BANK30  BANK3
      +1  BANK32  BANK33  BANK34  BANK35  BANK36
  1220 ;;      Params:         2       0       0       0       0       0       0       0       0       0       0       0       
      +0       0       0       0       0       0       0       0       0       0       0       0       0       0       0       
      +0       0       0       0       0       0
  1221 ;;      Locals:         0       0       0       0       0       0       0       0       0       0       0       0       
      +0       0       0       0       0       0       0       0       0       0       0       0       0       0       0       
      +0       0       0       0       0       0
  1222 ;;      Temps:          0       0       0       0       0       0       0       0       0       0       0       0       
      +0       0       0       0       0       0       0       0       0       0       0       0       0       0       0       
      +0       0       0       0       0       0
  1223 ;;      Totals:         2       0       0       0       0       0       0       0       0       0       0       0       
      +0       0       0       0       0       0       0       0       0       0       0       0       0       0       0       
      +0       0       0       0       0       0
  1224 ;;Total ram usage:        2 bytes
  1225 ;; Hardware stack levels used: 1
  1226 ;; Hardware stack levels required when called: 3
  1227 ;; This function calls:
  1228 ;;		Nothing
  1229 ;; This function is called by:
  1230 ;;		_eep_write
  1231 ;; This function uses a non-reentrant model
  1232 ;;
  1233                           
  1234                           	psect	text5
  1235   002DF8                     __ptext5:
  1236                           	callstack 0
  1237   002DF8                     _NVM_UnlockKeySet:
  1238                           	callstack 121
  1239                           
  1240                           ;mcc_generated_files/nvm/src/nvm.c: 70: void NVM_UnlockKeySet(uint16_t unlockKey);mcc_ge
      +                          nerated_files/nvm/src/nvm.c: 71: {;mcc_generated_files/nvm/src/nvm.c: 72:     unlockKeyH
      +                          igh = (uint8_t) (unlockKey >> 8);
  1241                           
  1242                           ; BSR set to: 0
  1243                           ;incstack = 0
  1244   002DF8  C54D  F535         	movff	NVM_UnlockKeySet@unlockKey+1,_unlockKeyHigh	;volatile
  1245                           
  1246                           ;mcc_generated_files/nvm/src/nvm.c: 73:     unlockKeyLow = (uint8_t) unlockKey;
  1247   002DFC  C54C  F536         	movff	NVM_UnlockKeySet@unlockKey,_unlockKeyLow	;volatile
  1248   002E00  0012               	return		;funcret
  1249   002E02                     __end_of_NVM_UnlockKeySet:
  1250                           	callstack 0
  1251                           
  1252 ;; *************** function _NVM_UnlockKeyClear *****************
  1253 ;; Defined at:
  1254 ;;		line 76 in file "mcc_generated_files/nvm/src/nvm.c"
  1255 ;; Parameters:    Size  Location     Type
  1256 ;;		None
  1257 ;; Auto vars:     Size  Location     Type
  1258 ;;		None
  1259 ;; Return value:  Size  Location     Type
  1260 ;;                  1    wreg      void 
  1261 ;; Registers used:
  1262 ;;		wreg, status,2
  1263 ;; Tracked objects:
  1264 ;;		On entry : 3F/0
  1265 ;;		On exit  : 3F/0
  1266 ;;		Unchanged: 3F/0
  1267 ;; Data sizes:     COMRAM   BANK5   BANK6   BANK7   BANK8   BANK9  BANK10  BANK11  BANK12  BANK13  BANK14  BANK15  BANK1
      +6  BANK17  BANK18  BANK19  BANK20  BANK21  BANK22  BANK23  BANK24  BANK25  BANK26  BANK27  BANK28  BANK29  BANK30  BANK3
      +1  BANK32  BANK33  BANK34  BANK35  BANK36
  1268 ;;      Params:         0       0       0       0       0       0       0       0       0       0       0       0       
      +0       0       0       0       0       0       0       0       0       0       0       0       0       0       0       
      +0       0       0       0       0       0
  1269 ;;      Locals:         0       0       0       0       0       0       0       0       0       0       0       0       
      +0       0       0       0       0       0       0       0       0       0       0       0       0       0       0       
      +0       0       0       0       0       0
  1270 ;;      Temps:          0       0       0       0       0       0       0       0       0       0       0       0       
      +0       0       0       0       0       0       0       0       0       0       0       0       0       0       0       
      +0       0       0       0       0       0
  1271 ;;      Totals:         0       0       0       0       0       0       0       0       0       0       0       0       
      +0       0       0       0       0       0       0       0       0       0       0       0       0       0       0       
      +0       0       0       0       0       0
  1272 ;;Total ram usage:        0 bytes
  1273 ;; Hardware stack levels used: 1
  1274 ;; Hardware stack levels required when called: 3
  1275 ;; This function calls:
  1276 ;;		Nothing
  1277 ;; This function is called by:
  1278 ;;		_eep_write
  1279 ;; This function uses a non-reentrant model
  1280 ;;
  1281                           
  1282                           	psect	text6
  1283   002E02                     __ptext6:
  1284                           	callstack 0
  1285   002E02                     _NVM_UnlockKeyClear:
  1286                           	callstack 121
  1287                           
  1288                           ; BSR set to: 0
  1289                           ;mcc_generated_files/nvm/src/nvm.c: 78:     unlockKeyHigh = 0x00;
  1290                           
  1291                           ;incstack = 0
  1292   002E02  0E00               	movlw	0
  1293   002E04  6E35               	movwf	_unlockKeyHigh^(0+1280),c	;volatile
  1294                           
  1295                           ;mcc_generated_files/nvm/src/nvm.c: 79:     unlockKeyLow = 0x00;
  1296   002E06  0E00               	movlw	0
  1297   002E08  6E36               	movwf	_unlockKeyLow^(0+1280),c	;volatile
  1298                           
  1299                           ; BSR set to: 0
  1300   002E0A  0012               	return		;funcret
  1301   002E0C                     __end_of_NVM_UnlockKeyClear:
  1302                           	callstack 0
  1303                           
  1304 ;; *************** function _NVM_IsBusy *****************
  1305 ;; Defined at:
  1306 ;;		line 48 in file "mcc_generated_files/nvm/src/nvm.c"
  1307 ;; Parameters:    Size  Location     Type
  1308 ;;		None
  1309 ;; Auto vars:     Size  Location     Type
  1310 ;;		None
  1311 ;; Return value:  Size  Location     Type
  1312 ;;                  1    wreg      _Bool 
  1313 ;; Registers used:
  1314 ;;		wreg
  1315 ;; Tracked objects:
  1316 ;;		On entry : 0/0
  1317 ;;		On exit  : 3F/0
  1318 ;;		Unchanged: 0/0
  1319 ;; Data sizes:     COMRAM   BANK5   BANK6   BANK7   BANK8   BANK9  BANK10  BANK11  BANK12  BANK13  BANK14  BANK15  BANK1
      +6  BANK17  BANK18  BANK19  BANK20  BANK21  BANK22  BANK23  BANK24  BANK25  BANK26  BANK27  BANK28  BANK29  BANK30  BANK3
      +1  BANK32  BANK33  BANK34  BANK35  BANK36
  1320 ;;      Params:         0       0       0       0       0       0       0       0       0       0       0       0       
      +0       0       0       0       0       0       0       0       0       0       0       0       0       0       0       
      +0       0       0       0       0       0
  1321 ;;      Locals:         0       0       0       0       0       0       0       0       0       0       0       0       
      +0       0       0       0       0       0       0       0       0       0       0       0       0       0       0       
      +0       0       0       0       0       0
  1322 ;;      Temps:          0       0       0       0       0       0       0       0       0       0       0       0       
      +0       0       0       0       0       0       0       0       0       0       0       0       0       0       0       
      +0       0       0       0       0       0
  1323 ;;      Totals:         0       0       0       0       0       0       0       0       0       0       0       0       
      +0       0       0       0       0       0       0       0       0       0       0       0       0       0       0       
      +0       0       0       0       0       0
  1324 ;;Total ram usage:        0 bytes
  1325 ;; Hardware stack levels used: 1
  1326 ;; Hardware stack levels required when called: 3
  1327 ;; This function calls:
  1328 ;;		Nothing
  1329 ;; This function is called by:
  1330 ;;		_eep_write
  1331 ;; This function uses a non-reentrant model
  1332 ;;
  1333                           
  1334                           	psect	text7
  1335   002D96                     __ptext7:
  1336                           	callstack 0
  1337   002D96                     _NVM_IsBusy:
  1338                           	callstack 121
  1339                           
  1340                           ;mcc_generated_files/nvm/src/nvm.c: 50:     return NVMCON0bits.GO;
  1341                           
  1342                           ; BSR set to: 0
  1343                           ;incstack = 0
  1344   002D96  0100               	movlb	0	; () banked
  1345   002D98  A140               	btfss	64,0,b	;volatile
  1346   002D9A  D002               	goto	u50
  1347   002D9C  0E01               	movlw	1
  1348   002D9E  0012               	return	
  1349   002DA0                     u50:
  1350   002DA0  0E00               	movlw	0
  1351                           
  1352                           ; BSR set to: 0
  1353   002DA2  0012               	return		;funcret
  1354   002DA4                     __end_of_NVM_IsBusy:
  1355                           	callstack 0
  1356                           
  1357 ;; *************** function _EEPROM_Write *****************
  1358 ;; Defined at:
  1359 ;;		line 98 in file "mcc_generated_files/nvm/src/nvm.c"
  1360 ;; Parameters:    Size  Location     Type
  1361 ;;  address         3   13[COMRAM] unsigned um
  1362 ;;  data            1   16[COMRAM] unsigned char 
  1363 ;; Auto vars:     Size  Location     Type
  1364 ;;  globalInterr    1   17[COMRAM] unsigned char 
  1365 ;; Return value:  Size  Location     Type
  1366 ;;                  1    wreg      void 
  1367 ;; Registers used:
  1368 ;;		wreg, status,2
  1369 ;; Tracked objects:
  1370 ;;		On entry : 0/0
  1371 ;;		On exit  : 3F/0
  1372 ;;		Unchanged: 0/0
  1373 ;; Data sizes:     COMRAM   BANK5   BANK6   BANK7   BANK8   BANK9  BANK10  BANK11  BANK12  BANK13  BANK14  BANK15  BANK1
      +6  BANK17  BANK18  BANK19  BANK20  BANK21  BANK22  BANK23  BANK24  BANK25  BANK26  BANK27  BANK28  BANK29  BANK30  BANK3
      +1  BANK32  BANK33  BANK34  BANK35  BANK36
  1374 ;;      Params:         4       0       0       0       0       0       0       0       0       0       0       0       
      +0       0       0       0       0       0       0       0       0       0       0       0       0       0       0       
      +0       0       0       0       0       0
  1375 ;;      Locals:         1       0       0       0       0       0       0       0       0       0       0       0       
      +0       0       0       0       0       0       0       0       0       0       0       0       0       0       0       
      +0       0       0       0       0       0
  1376 ;;      Temps:          0       0       0       0       0       0       0       0       0       0       0       0       
      +0       0       0       0       0       0       0       0       0       0       0       0       0       0       0       
      +0       0       0       0       0       0
  1377 ;;      Totals:         5       0       0       0       0       0       0       0       0       0       0       0       
      +0       0       0       0       0       0       0       0       0       0       0       0       0       0       0       
      +0       0       0       0       0       0
  1378 ;;Total ram usage:        5 bytes
  1379 ;; Hardware stack levels used: 1
  1380 ;; Hardware stack levels required when called: 3
  1381 ;; This function calls:
  1382 ;;		Nothing
  1383 ;; This function is called by:
  1384 ;;		_eep_write
  1385 ;; This function uses a non-reentrant model
  1386 ;;
  1387                           
  1388                           ;# 
  1389                           
  1390                           	psect	text8
  1391   0029B8                     __ptext8:
  1392                           	callstack 0
  1393   0029B8                     _EEPROM_Write:
  1394                           	callstack 121
  1395                           
  1396                           ;mcc_generated_files/nvm/src/nvm.c: 98: void EEPROM_Write(eeprom_address_t address, eepr
      +                          om_data_t data);mcc_generated_files/nvm/src/nvm.c: 99: {;mcc_generated_files/nvm/src/nvm
      +                          .c: 101:     uint8_t globalInterruptBitValue = INTCON0bits.GIE;
  1397                           
  1398                           ; BSR set to: 0
  1399                           ;incstack = 0
  1400   0029B8  0E00               	movlw	0
  1401   0029BA  BED6               	btfsc	214,7,c	;volatile
  1402   0029BC  0E01               	movlw	1
  1403   0029BE  6E50               	movwf	EEPROM_Write@globalInterruptBitValue^(0+1280),c
  1404                           
  1405                           ;mcc_generated_files/nvm/src/nvm.c: 104:     NVMADRU = (uint8_t) (address >> 16);
  1406   0029C0  C54E  F045         	movff	EEPROM_Write@address+2,69	;volatile
  1407                           
  1408                           ;mcc_generated_files/nvm/src/nvm.c: 105:     NVMADRH = (uint8_t) (address >> 8);
  1409   0029C4  C54D  F044         	movff	EEPROM_Write@address+1,68	;volatile
  1410                           
  1411                           ;mcc_generated_files/nvm/src/nvm.c: 106:     NVMADRL = (uint8_t) address;
  1412   0029C8  C54C  F043         	movff	EEPROM_Write@address,67	;volatile
  1413                           
  1414                           ;mcc_generated_files/nvm/src/nvm.c: 109:     NVMDATL = data;
  1415   0029CC  C54F  F046         	movff	EEPROM_Write@data,70	;volatile
  1416                           
  1417                           ;mcc_generated_files/nvm/src/nvm.c: 112:     NVMCON1bits.NVMCMD = 0x03;
  1418   0029D0  0100               	movlb	0	; () banked
  1419   0029D2  5141               	movf	65,w,b	;volsfr
  1420   0029D4  0BF8               	andlw	-8
  1421   0029D6  0903               	iorlw	3
  1422   0029D8  6F41               	movwf	65,b	;volsfr
  1423                           
  1424                           ; BSR set to: 0
  1425                           ;mcc_generated_files/nvm/src/nvm.c: 115:     INTCON0bits.GIE = 0;
  1426   0029DA  9ED6               	bcf	214,7,c	;volatile
  1427                           
  1428                           ;# 
  1429                           ;# 
  1430   0029DC  0100               	banksel	66	;# 
  1431   0029DE                     
  1432                           ;mcc_generated_files/nvm/src/nvm.c: 121:     NVMLOCK = unlockKeyLow;
  1433   0029DE  C536  F042         	movff	_unlockKeyLow,66	;volatile
  1434   0029E2  5035               	movf	_unlockKeyHigh& (0+255),w,c	;# 
  1435   0029E4  6F42               	movwf	66,b	;# 
  1436   0029E6  8140               	bsf	64,0,b	;# 
  1437                           
  1438                           ;mcc_generated_files/nvm/src/nvm.c: 130:     INTCON0bits.GIE = globalInterruptBitValue;
  1439   0029E8  B050               	btfsc	EEPROM_Write@globalInterruptBitValue^(0+1280),0,c
  1440   0029EA  D002               	bra	u475
  1441   0029EC  9ED6               	bcf	214,7,c	;volatile
  1442   0029EE  D001               	bra	u476
  1443   0029F0                     u475:
  1444   0029F0  8ED6               	bsf	214,7,c	;volatile
  1445   0029F2                     u476:
  1446                           
  1447                           ;mcc_generated_files/nvm/src/nvm.c: 133:     NVMCON1bits.NVMCMD = 0x00;
  1448   0029F2  0EF8               	movlw	-8
  1449   0029F4  0100               	movlb	0	; () banked
  1450   0029F6  1741               	andwf	65,f,b	;volsfr
  1451                           
  1452                           ; BSR set to: 0
  1453   0029F8  0012               	return		;funcret
  1454   0029FA                     __end_of_EEPROM_Write:
  1455                           	callstack 0
  1456                           
  1457 ;; *************** function _dma1_wakeup *****************
  1458 ;; Defined at:
  1459 ;;		line 165 in file "main.c"
  1460 ;; Parameters:    Size  Location     Type
  1461 ;;		None
  1462 ;; Auto vars:     Size  Location     Type
  1463 ;;		None
  1464 ;; Return value:  Size  Location     Type
  1465 ;;                  1    wreg      void 
  1466 ;; Registers used:
  1467 ;;		wreg, status,2, cstack
  1468 ;; Tracked objects:
  1469 ;;		On entry : 0/0
  1470 ;;		On exit  : 3F/0
  1471 ;;		Unchanged: 0/0
  1472 ;; Data sizes:     COMRAM   BANK5   BANK6   BANK7   BANK8   BANK9  BANK10  BANK11  BANK12  BANK13  BANK14  BANK15  BANK1
      +6  BANK17  BANK18  BANK19  BANK20  BANK21  BANK22  BANK23  BANK24  BANK25  BANK26  BANK27  BANK28  BANK29  BANK30  BANK3
      +1  BANK32  BANK33  BANK34  BANK35  BANK36
  1473 ;;      Params:         0       0       0       0       0       0       0       0       0       0       0       0       
      +0       0       0       0       0       0       0       0       0       0       0       0       0       0       0       
      +0       0       0       0       0       0
  1474 ;;      Locals:         0       0       0       0       0       0       0       0       0       0       0       0       
      +0       0       0       0       0       0       0       0       0       0       0       0       0       0       0       
      +0       0       0       0       0       0
  1475 ;;      Temps:          0       0       0       0       0       0       0       0       0       0       0       0       
      +0       0       0       0       0       0       0       0       0       0       0       0       0       0       0       
      +0       0       0       0       0       0
  1476 ;;      Totals:         0       0       0       0       0       0       0       0       0       0       0       0       
      +0       0       0       0       0       0       0       0       0       0       0       0       0       0       0       
      +0       0       0       0       0       0
  1477 ;;Total ram usage:        0 bytes
  1478 ;; Hardware stack levels used: 1
  1479 ;; Hardware stack levels required when called: 4
  1480 ;; This function calls:
  1481 ;;		_DMA1_Disable
  1482 ;;		_DMA1_Enable
  1483 ;;		_DMA1_SourceAddressSet
  1484 ;;		_DMA1_SourceSizeSet
  1485 ;;		_DMA1_TransferWithTriggerStart
  1486 ;; This function is called by:
  1487 ;;		_request_in
  1488 ;; This function uses a non-reentrant model
  1489 ;;
  1490                           
  1491                           	psect	text9
  1492   002B98                     __ptext9:
  1493                           	callstack 0
  1494   002B98                     _dma1_wakeup:
  1495                           	callstack 121
  1496                           
  1497                           ;main.c: 168:  DMA1_Disable();
  1498                           
  1499                           ; BSR set to: 0
  1500                           ;incstack = 0
  1501   002B98  EC06  F017         	call	_DMA1_Disable	;wreg free
  1502                           
  1503                           ;main.c: 171:  DMA1_SourceAddressSet((__uint24)&data_wakeup);
  1504   002B9C  0E5B               	movlw	low _data_wakeup
  1505   002B9E  6E4C               	movwf	DMA1_SourceAddressSet@address^(0+1280),c
  1506   002BA0  0E25               	movlw	high _data_wakeup
  1507   002BA2  6E4D               	movwf	(DMA1_SourceAddressSet@address+1)^(0+1280),c
  1508   002BA4  0E00               	movlw	low (_data_wakeup shr (0+16))
  1509   002BA6  6E4E               	movwf	(DMA1_SourceAddressSet@address+2)^(0+1280),c
  1510   002BA8  ECC1  F016         	call	_DMA1_SourceAddressSet	;wreg free
  1511                           
  1512                           ;main.c: 173:  DMA1_SourceSizeSet((sizeof(data_wakeup) - 1));
  1513   002BAC  0E00               	movlw	0
  1514   002BAE  6E4D               	movwf	(DMA1_SourceSizeSet@size+1)^(0+1280),c
  1515   002BB0  0E13               	movlw	19
  1516   002BB2  6E4C               	movwf	DMA1_SourceSizeSet@size^(0+1280),c
  1517   002BB4  ECD2  F016         	call	_DMA1_SourceSizeSet	;wreg free
  1518                           
  1519                           ;main.c: 175:  DMA1_Enable();
  1520   002BB8  EC0B  F017         	call	_DMA1_Enable	;wreg free
  1521                           
  1522                           ;main.c: 176:  DMA1_TransferWithTriggerStart();
  1523   002BBC  EC10  F017         	call	_DMA1_TransferWithTriggerStart	;wreg free
  1524                           
  1525                           ; BSR set to: 0
  1526   002BC0  0012               	return		;funcret
  1527   002BC2                     __end_of_dma1_wakeup:
  1528                           	callstack 0
  1529                           
  1530 ;; *************** function _DMA1_Disable *****************
  1531 ;; Defined at:
  1532 ;;		line 90 in file "mcc_generated_files/dma/src/dma1.c"
  1533 ;; Parameters:    Size  Location     Type
  1534 ;;		None
  1535 ;; Auto vars:     Size  Location     Type
  1536 ;;		None
  1537 ;; Return value:  Size  Location     Type
  1538 ;;                  1    wreg      void 
  1539 ;; Registers used:
  1540 ;;		wreg, status,2
  1541 ;; Tracked objects:
  1542 ;;		On entry : 0/0
  1543 ;;		On exit  : 3F/0
  1544 ;;		Unchanged: 0/0
  1545 ;; Data sizes:     COMRAM   BANK5   BANK6   BANK7   BANK8   BANK9  BANK10  BANK11  BANK12  BANK13  BANK14  BANK15  BANK1
      +6  BANK17  BANK18  BANK19  BANK20  BANK21  BANK22  BANK23  BANK24  BANK25  BANK26  BANK27  BANK28  BANK29  BANK30  BANK3
      +1  BANK32  BANK33  BANK34  BANK35  BANK36
  1546 ;;      Params:         0       0       0       0       0       0       0       0       0       0       0       0       
      +0       0       0       0       0       0       0       0       0       0       0       0       0       0       0       
      +0       0       0       0       0       0
  1547 ;;      Locals:         0       0       0       0       0       0       0       0       0       0       0       0       
      +0       0       0       0       0       0       0       0       0       0       0       0       0       0       0       
      +0       0       0       0       0       0
  1548 ;;      Temps:          0       0       0       0       0       0       0       0       0       0       0       0       
      +0       0       0       0       0       0       0       0       0       0       0       0       0       0       0       
      +0       0       0       0       0       0
  1549 ;;      Totals:         0       0       0       0       0       0       0       0       0       0       0       0       
      +0       0       0       0       0       0       0       0       0       0       0       0       0       0       0       
      +0       0       0       0       0       0
  1550 ;;Total ram usage:        0 bytes
  1551 ;; Hardware stack levels used: 1
  1552 ;; Hardware stack levels required when called: 3
  1553 ;; This function calls:
  1554 ;;		Nothing
  1555 ;; This function is called by:
  1556 ;;		_dma1_wakeup
  1557 ;; This function uses a non-reentrant model
  1558 ;;
  1559                           
  1560                           	psect	text10
  1561   002E0C                     __ptext10:
  1562                           	callstack 0
  1563   002E0C                     _DMA1_Disable:
  1564                           	callstack 121
  1565                           
  1566                           ;mcc_generated_files/dma/src/dma1.c: 92:     DMASELECT = 0x0;
  1567                           
  1568                           ; BSR set to: 0
  1569                           ;incstack = 0
  1570   002E0C  0E00               	movlw	0
  1571   002E0E  0100               	movlb	0	; () banked
  1572   002E10  6FE8               	movwf	232,b	;volatile
  1573                           
  1574                           ; BSR set to: 0
  1575                           ;mcc_generated_files/dma/src/dma1.c: 93:     DMAnCON0bits.EN = 0x0;
  1576   002E12  9FFC               	bcf	252,7,b	;volatile
  1577                           
  1578                           ; BSR set to: 0
  1579   002E14  0012               	return		;funcret
  1580   002E16                     __end_of_DMA1_Disable:
  1581                           	callstack 0
  1582                           
  1583 ;; *************** function _eep_read *****************
  1584 ;; Defined at:
  1585 ;;		line 191 in file "main.c"
  1586 ;; Parameters:    Size  Location     Type
  1587 ;;  addr            1    wreg     unsigned char 
  1588 ;; Auto vars:     Size  Location     Type
  1589 ;;  addr            1   21[COMRAM] unsigned char 
  1590 ;;  data            1   22[COMRAM] unsigned char 
  1591 ;; Return value:  Size  Location     Type
  1592 ;;                  1    wreg      unsigned char 
  1593 ;; Registers used:
  1594 ;;		wreg, status,2, status,0, cstack
  1595 ;; Tracked objects:
  1596 ;;		On entry : 3F/0
  1597 ;;		On exit  : 3F/0
  1598 ;;		Unchanged: 0/0
  1599 ;; Data sizes:     COMRAM   BANK5   BANK6   BANK7   BANK8   BANK9  BANK10  BANK11  BANK12  BANK13  BANK14  BANK15  BANK1
      +6  BANK17  BANK18  BANK19  BANK20  BANK21  BANK22  BANK23  BANK24  BANK25  BANK26  BANK27  BANK28  BANK29  BANK30  BANK3
      +1  BANK32  BANK33  BANK34  BANK35  BANK36
  1600 ;;      Params:         0       0       0       0       0       0       0       0       0       0       0       0       
      +0       0       0       0       0       0       0       0       0       0       0       0       0       0       0       
      +0       0       0       0       0       0
  1601 ;;      Locals:         2       0       0       0       0       0       0       0       0       0       0       0       
      +0       0       0       0       0       0       0       0       0       0       0       0       0       0       0       
      +0       0       0       0       0       0
  1602 ;;      Temps:          5       0       0       0       0       0       0       0       0       0       0       0       
      +0       0       0       0       0       0       0       0       0       0       0       0       0       0       0       
      +0       0       0       0       0       0
  1603 ;;      Totals:         7       0       0       0       0       0       0       0       0       0       0       0       
      +0       0       0       0       0       0       0       0       0       0       0       0       0       0       0       
      +0       0       0       0       0       0
  1604 ;;Total ram usage:        7 bytes
  1605 ;; Hardware stack levels used: 1
  1606 ;; Hardware stack levels required when called: 4
  1607 ;; This function calls:
  1608 ;;		_EEPROM_Read
  1609 ;; This function is called by:
  1610 ;;		_main
  1611 ;; This function uses a non-reentrant model
  1612 ;;
  1613                           
  1614                           	psect	text11
  1615   002AA4                     __ptext11:
  1616                           	callstack 0
  1617   002AA4                     _eep_read:
  1618                           	callstack 122
  1619                           
  1620                           ; BSR set to: 0
  1621                           ;incstack = 0
  1622                           ;eep_read@addr stored from wreg
  1623   002AA4  6E54               	movwf	eep_read@addr^(0+1280),c
  1624                           
  1625                           ;main.c: 192:  uint8_t data;;main.c: 193:  data = EEPROM_Read((__uint24)(&data_eep[0] + 
      +                          addr));
  1626   002AA6  5054               	movf	eep_read@addr^(0+1280),w,c
  1627   002AA8  6E4F               	movwf	??_eep_read^(0+1280),c
  1628   002AAA  6A50               	clrf	(??_eep_read+1)^(0+1280),c
  1629   002AAC  0E00               	movlw	low _data_eep
  1630   002AAE  6E51               	movwf	(??_eep_read+2)^(0+1280),c
  1631   002AB0  0E00               	movlw	high _data_eep
  1632   002AB2  6E52               	movwf	(??_eep_read+3)^(0+1280),c
  1633   002AB4  0E38               	movlw	low (_data_eep shr (0+16))
  1634   002AB6  6E53               	movwf	(??_eep_read+4)^(0+1280),c
  1635   002AB8  504F               	movf	??_eep_read^(0+1280),w,c
  1636   002ABA  2451               	addwf	(??_eep_read+2)^(0+1280),w,c
  1637   002ABC  6E4C               	movwf	EEPROM_Read@address^(0+1280),c
  1638   002ABE  5050               	movf	(??_eep_read+1)^(0+1280),w,c
  1639   002AC0  2052               	addwfc	(??_eep_read+3)^(0+1280),w,c
  1640   002AC2  6E4D               	movwf	(EEPROM_Read@address+1)^(0+1280),c
  1641   002AC4  0E00               	movlw	0
  1642   002AC6  BE50               	btfsc	(??_eep_read+1)^(0+1280),7,c
  1643   002AC8  0EFF               	movlw	255
  1644   002ACA  2053               	addwfc	(??_eep_read+4)^(0+1280),w,c
  1645   002ACC  6E4E               	movwf	(EEPROM_Read@address+2)^(0+1280),c
  1646   002ACE  EC56  F016         	call	_EEPROM_Read	;wreg free
  1647   002AD2  6E55               	movwf	eep_read@data^(0+1280),c
  1648                           
  1649                           ; BSR set to: 0
  1650                           ;main.c: 194:  return data;
  1651   002AD4  5055               	movf	eep_read@data^(0+1280),w,c
  1652                           
  1653                           ; BSR set to: 0
  1654   002AD6  0012               	return		;funcret
  1655   002AD8                     __end_of_eep_read:
  1656                           	callstack 0
  1657                           
  1658 ;; *************** function _EEPROM_Read *****************
  1659 ;; Defined at:
  1660 ;;		line 82 in file "mcc_generated_files/nvm/src/nvm.c"
  1661 ;; Parameters:    Size  Location     Type
  1662 ;;  address         3   13[COMRAM] unsigned um
  1663 ;; Auto vars:     Size  Location     Type
  1664 ;;		None
  1665 ;; Return value:  Size  Location     Type
  1666 ;;                  1    wreg      unsigned char 
  1667 ;; Registers used:
  1668 ;;		wreg, status,2
  1669 ;; Tracked objects:
  1670 ;;		On entry : 0/0
  1671 ;;		On exit  : 3F/0
  1672 ;;		Unchanged: 0/0
  1673 ;; Data sizes:     COMRAM   BANK5   BANK6   BANK7   BANK8   BANK9  BANK10  BANK11  BANK12  BANK13  BANK14  BANK15  BANK1
      +6  BANK17  BANK18  BANK19  BANK20  BANK21  BANK22  BANK23  BANK24  BANK25  BANK26  BANK27  BANK28  BANK29  BANK30  BANK3
      +1  BANK32  BANK33  BANK34  BANK35  BANK36
  1674 ;;      Params:         3       0       0       0       0       0       0       0       0       0       0       0       
      +0       0       0       0       0       0       0       0       0       0       0       0       0       0       0       
      +0       0       0       0       0       0
  1675 ;;      Locals:         0       0       0       0       0       0       0       0       0       0       0       0       
      +0       0       0       0       0       0       0       0       0       0       0       0       0       0       0       
      +0       0       0       0       0       0
  1676 ;;      Temps:          0       0       0       0       0       0       0       0       0       0       0       0       
      +0       0       0       0       0       0       0       0       0       0       0       0       0       0       0       
      +0       0       0       0       0       0
  1677 ;;      Totals:         3       0       0       0       0       0       0       0       0       0       0       0       
      +0       0       0       0       0       0       0       0       0       0       0       0       0       0       0       
      +0       0       0       0       0       0
  1678 ;;Total ram usage:        3 bytes
  1679 ;; Hardware stack levels used: 1
  1680 ;; Hardware stack levels required when called: 3
  1681 ;; This function calls:
  1682 ;;		Nothing
  1683 ;; This function is called by:
  1684 ;;		_eep_read
  1685 ;; This function uses a non-reentrant model
  1686 ;;
  1687                           
  1688                           	psect	text12
  1689   002CAC                     __ptext12:
  1690                           	callstack 0
  1691   002CAC                     _EEPROM_Read:
  1692                           	callstack 122
  1693                           
  1694                           ;mcc_generated_files/nvm/src/nvm.c: 82: eeprom_data_t EEPROM_Read(eeprom_address_t addre
      +                          ss);mcc_generated_files/nvm/src/nvm.c: 83: {;mcc_generated_files/nvm/src/nvm.c: 85:     
      +                          NVMADRU = (uint8_t) (address >> 16);
  1695                           
  1696                           ; BSR set to: 0
  1697                           ;incstack = 0
  1698   002CAC  C54E  F045         	movff	EEPROM_Read@address+2,69	;volatile
  1699                           
  1700                           ;mcc_generated_files/nvm/src/nvm.c: 86:     NVMADRH = (uint8_t) (address >> 8);
  1701   002CB0  C54D  F044         	movff	EEPROM_Read@address+1,68	;volatile
  1702                           
  1703                           ;mcc_generated_files/nvm/src/nvm.c: 87:     NVMADRL = (uint8_t) address;
  1704   002CB4  C54C  F043         	movff	EEPROM_Read@address,67	;volatile
  1705                           
  1706                           ;mcc_generated_files/nvm/src/nvm.c: 90:     NVMCON1bits.NVMCMD = 0x00;
  1707   002CB8  0EF8               	movlw	-8
  1708   002CBA  0100               	movlb	0	; () banked
  1709   002CBC  1741               	andwf	65,f,b	;volsfr
  1710                           
  1711                           ; BSR set to: 0
  1712                           ;mcc_generated_files/nvm/src/nvm.c: 93:     NVMCON0bits.GO = 1;
  1713   002CBE  8140               	bsf	64,0,b	;volatile
  1714                           
  1715                           ;mcc_generated_files/nvm/src/nvm.c: 95:     return NVMDATL;
  1716   002CC0  5146               	movf	70,w,b	;volatile
  1717                           
  1718                           ; BSR set to: 0
  1719   002CC2  0012               	return		;funcret
  1720   002CC4                     __end_of_EEPROM_Read:
  1721                           	callstack 0
  1722                           
  1723 ;; *************** function _dma1_init *****************
  1724 ;; Defined at:
  1725 ;;		line 114 in file "main.c"
  1726 ;; Parameters:    Size  Location     Type
  1727 ;;		None
  1728 ;; Auto vars:     Size  Location     Type
  1729 ;;		None
  1730 ;; Return value:  Size  Location     Type
  1731 ;;                  1    wreg      void 
  1732 ;; Registers used:
  1733 ;;		wreg, status,2, cstack
  1734 ;; Tracked objects:
  1735 ;;		On entry : 3C/0
  1736 ;;		On exit  : 3F/0
  1737 ;;		Unchanged: 0/0
  1738 ;; Data sizes:     COMRAM   BANK5   BANK6   BANK7   BANK8   BANK9  BANK10  BANK11  BANK12  BANK13  BANK14  BANK15  BANK1
      +6  BANK17  BANK18  BANK19  BANK20  BANK21  BANK22  BANK23  BANK24  BANK25  BANK26  BANK27  BANK28  BANK29  BANK30  BANK3
      +1  BANK32  BANK33  BANK34  BANK35  BANK36
  1739 ;;      Params:         0       0       0       0       0       0       0       0       0       0       0       0       
      +0       0       0       0       0       0       0       0       0       0       0       0       0       0       0       
      +0       0       0       0       0       0
  1740 ;;      Locals:         0       0       0       0       0       0       0       0       0       0       0       0       
      +0       0       0       0       0       0       0       0       0       0       0       0       0       0       0       
      +0       0       0       0       0       0
  1741 ;;      Temps:          0       0       0       0       0       0       0       0       0       0       0       0       
      +0       0       0       0       0       0       0       0       0       0       0       0       0       0       0       
      +0       0       0       0       0       0
  1742 ;;      Totals:         0       0       0       0       0       0       0       0       0       0       0       0       
      +0       0       0       0       0       0       0       0       0       0       0       0       0       0       0       
      +0       0       0       0       0       0
  1743 ;;Total ram usage:        0 bytes
  1744 ;; Hardware stack levels used: 1
  1745 ;; Hardware stack levels required when called: 4
  1746 ;; This function calls:
  1747 ;;		_DMA1_DMAPrioritySet
  1748 ;;		_DMA1_Enable
  1749 ;;		_DMA1_SourceAddressSet
  1750 ;;		_DMA1_SourceSizeSet
  1751 ;;		_DMA1_TransferWithTriggerStart
  1752 ;; This function is called by:
  1753 ;;		_main
  1754 ;; This function uses a non-reentrant model
  1755 ;;
  1756                           
  1757                           	psect	text13
  1758   002B6C                     __ptext13:
  1759                           	callstack 0
  1760   002B6C                     _dma1_init:
  1761                           	callstack 122
  1762                           
  1763                           ;main.c: 117:  DMA1_SourceAddressSet((__uint24)&data_reset);
  1764                           
  1765                           ; BSR set to: 0
  1766                           ;incstack = 0
  1767   002B6C  0E6F               	movlw	low _data_reset
  1768   002B6E  6E4C               	movwf	DMA1_SourceAddressSet@address^(0+1280),c
  1769   002B70  0E25               	movlw	high _data_reset
  1770   002B72  6E4D               	movwf	(DMA1_SourceAddressSet@address+1)^(0+1280),c
  1771   002B74  0E00               	movlw	low (_data_reset shr (0+16))
  1772   002B76  6E4E               	movwf	(DMA1_SourceAddressSet@address+2)^(0+1280),c
  1773   002B78  ECC1  F016         	call	_DMA1_SourceAddressSet	;wreg free
  1774                           
  1775                           ;main.c: 119:  DMA1_SourceSizeSet((sizeof(data_reset) - 1));
  1776   002B7C  0E00               	movlw	0
  1777   002B7E  6E4D               	movwf	(DMA1_SourceSizeSet@size+1)^(0+1280),c
  1778   002B80  0E12               	movlw	18
  1779   002B82  6E4C               	movwf	DMA1_SourceSizeSet@size^(0+1280),c
  1780   002B84  ECD2  F016         	call	_DMA1_SourceSizeSet	;wreg free
  1781                           
  1782                           ;main.c: 122:  DMA1_DMAPrioritySet(0x1);
  1783   002B88  0E01               	movlw	1
  1784   002B8A  EC86  F015         	call	_DMA1_DMAPrioritySet
  1785                           
  1786                           ;main.c: 124:  DMA1_Enable();
  1787   002B8E  EC0B  F017         	call	_DMA1_Enable	;wreg free
  1788                           
  1789                           ;main.c: 125:  DMA1_TransferWithTriggerStart();
  1790   002B92  EC10  F017         	call	_DMA1_TransferWithTriggerStart	;wreg free
  1791                           
  1792                           ; BSR set to: 0
  1793   002B96  0012               	return		;funcret
  1794   002B98                     __end_of_dma1_init:
  1795                           	callstack 0
  1796                           
  1797 ;; *************** function _DMA1_TransferWithTriggerStart *****************
  1798 ;; Defined at:
  1799 ;;		line 192 in file "mcc_generated_files/dma/src/dma1.c"
  1800 ;; Parameters:    Size  Location     Type
  1801 ;;		None
  1802 ;; Auto vars:     Size  Location     Type
  1803 ;;		None
  1804 ;; Return value:  Size  Location     Type
  1805 ;;                  1    wreg      void 
  1806 ;; Registers used:
  1807 ;;		wreg, status,2
  1808 ;; Tracked objects:
  1809 ;;		On entry : 3F/0
  1810 ;;		On exit  : 3F/0
  1811 ;;		Unchanged: 0/0
  1812 ;; Data sizes:     COMRAM   BANK5   BANK6   BANK7   BANK8   BANK9  BANK10  BANK11  BANK12  BANK13  BANK14  BANK15  BANK1
      +6  BANK17  BANK18  BANK19  BANK20  BANK21  BANK22  BANK23  BANK24  BANK25  BANK26  BANK27  BANK28  BANK29  BANK30  BANK3
      +1  BANK32  BANK33  BANK34  BANK35  BANK36
  1813 ;;      Params:         0       0       0       0       0       0       0       0       0       0       0       0       
      +0       0       0       0       0       0       0       0       0       0       0       0       0       0       0       
      +0       0       0       0       0       0
  1814 ;;      Locals:         0       0       0       0       0       0       0       0       0       0       0       0       
      +0       0       0       0       0       0       0       0       0       0       0       0       0       0       0       
      +0       0       0       0       0       0
  1815 ;;      Temps:          0       0       0       0       0       0       0       0       0       0       0       0       
      +0       0       0       0       0       0       0       0       0       0       0       0       0       0       0       
      +0       0       0       0       0       0
  1816 ;;      Totals:         0       0       0       0       0       0       0       0       0       0       0       0       
      +0       0       0       0       0       0       0       0       0       0       0       0       0       0       0       
      +0       0       0       0       0       0
  1817 ;;Total ram usage:        0 bytes
  1818 ;; Hardware stack levels used: 1
  1819 ;; Hardware stack levels required when called: 3
  1820 ;; This function calls:
  1821 ;;		Nothing
  1822 ;; This function is called by:
  1823 ;;		_dma1_init
  1824 ;;		_dma1_wakeup
  1825 ;; This function uses a non-reentrant model
  1826 ;;
  1827                           
  1828                           	psect	text14
  1829   002E20                     __ptext14:
  1830                           	callstack 0
  1831   002E20                     _DMA1_TransferWithTriggerStart:
  1832                           	callstack 121
  1833                           
  1834                           ; BSR set to: 0
  1835                           ;mcc_generated_files/dma/src/dma1.c: 194:     DMASELECT = 0x0;
  1836                           
  1837                           ; BSR set to: 0
  1838                           ;incstack = 0
  1839   002E20  0E00               	movlw	0
  1840   002E22  6FE8               	movwf	232,b	;volatile
  1841                           
  1842                           ; BSR set to: 0
  1843                           ;mcc_generated_files/dma/src/dma1.c: 195:  DMAnCON0bits.SIRQEN = 1;
  1844   002E24  8DFC               	bsf	252,6,b	;volatile
  1845                           
  1846                           ; BSR set to: 0
  1847   002E26  0012               	return		;funcret
  1848   002E28                     __end_of_DMA1_TransferWithTriggerStart:
  1849                           	callstack 0
  1850                           
  1851 ;; *************** function _DMA1_SourceSizeSet *****************
  1852 ;; Defined at:
  1853 ;;		line 126 in file "mcc_generated_files/dma/src/dma1.c"
  1854 ;; Parameters:    Size  Location     Type
  1855 ;;  size            2   13[COMRAM] unsigned short 
  1856 ;; Auto vars:     Size  Location     Type
  1857 ;;		None
  1858 ;; Return value:  Size  Location     Type
  1859 ;;                  1    wreg      void 
  1860 ;; Registers used:
  1861 ;;		wreg, status,2
  1862 ;; Tracked objects:
  1863 ;;		On entry : 3F/0
  1864 ;;		On exit  : 3F/0
  1865 ;;		Unchanged: 0/0
  1866 ;; Data sizes:     COMRAM   BANK5   BANK6   BANK7   BANK8   BANK9  BANK10  BANK11  BANK12  BANK13  BANK14  BANK15  BANK1
      +6  BANK17  BANK18  BANK19  BANK20  BANK21  BANK22  BANK23  BANK24  BANK25  BANK26  BANK27  BANK28  BANK29  BANK30  BANK3
      +1  BANK32  BANK33  BANK34  BANK35  BANK36
  1867 ;;      Params:         2       0       0       0       0       0       0       0       0       0       0       0       
      +0       0       0       0       0       0       0       0       0       0       0       0       0       0       0       
      +0       0       0       0       0       0
  1868 ;;      Locals:         0       0       0       0       0       0       0       0       0       0       0       0       
      +0       0       0       0       0       0       0       0       0       0       0       0       0       0       0       
      +0       0       0       0       0       0
  1869 ;;      Temps:          0       0       0       0       0       0       0       0       0       0       0       0       
      +0       0       0       0       0       0       0       0       0       0       0       0       0       0       0       
      +0       0       0       0       0       0
  1870 ;;      Totals:         2       0       0       0       0       0       0       0       0       0       0       0       
      +0       0       0       0       0       0       0       0       0       0       0       0       0       0       0       
      +0       0       0       0       0       0
  1871 ;;Total ram usage:        2 bytes
  1872 ;; Hardware stack levels used: 1
  1873 ;; Hardware stack levels required when called: 3
  1874 ;; This function calls:
  1875 ;;		Nothing
  1876 ;; This function is called by:
  1877 ;;		_dma1_init
  1878 ;;		_dma1_wakeup
  1879 ;; This function uses a non-reentrant model
  1880 ;;
  1881                           
  1882                           	psect	text15
  1883   002DA4                     __ptext15:
  1884                           	callstack 0
  1885   002DA4                     _DMA1_SourceSizeSet:
  1886                           	callstack 121
  1887                           
  1888                           ; BSR set to: 0
  1889                           ;mcc_generated_files/dma/src/dma1.c: 126: void DMA1_SourceSizeSet(uint16_t size);mcc_gen
      +                          erated_files/dma/src/dma1.c: 127: {;mcc_generated_files/dma/src/dma1.c: 128:     DMASELE
      +                          CT = 0x0;
  1890                           
  1891                           ; BSR set to: 0
  1892                           ;incstack = 0
  1893   002DA4  0E00               	movlw	0
  1894   002DA6  6FE8               	movwf	232,b	;volatile
  1895                           
  1896                           ; BSR set to: 0
  1897                           ;mcc_generated_files/dma/src/dma1.c: 129:  DMAnSSZ= size;
  1898   002DA8  C54C  F0F7         	movff	DMA1_SourceSizeSet@size,247	;volatile
  1899   002DAC  C54D  F0F8         	movff	DMA1_SourceSizeSet@size+1,248	;volatile
  1900                           
  1901                           ; BSR set to: 0
  1902   002DB0  0012               	return		;funcret
  1903   002DB2                     __end_of_DMA1_SourceSizeSet:
  1904                           	callstack 0
  1905                           
  1906 ;; *************** function _DMA1_SourceAddressSet *****************
  1907 ;; Defined at:
  1908 ;;		line 102 in file "mcc_generated_files/dma/src/dma1.c"
  1909 ;; Parameters:    Size  Location     Type
  1910 ;;  address         3   13[COMRAM] unsigned um
  1911 ;; Auto vars:     Size  Location     Type
  1912 ;;		None
  1913 ;; Return value:  Size  Location     Type
  1914 ;;                  1    wreg      void 
  1915 ;; Registers used:
  1916 ;;		wreg, status,2
  1917 ;; Tracked objects:
  1918 ;;		On entry : 3C/0
  1919 ;;		On exit  : 3F/0
  1920 ;;		Unchanged: 0/0
  1921 ;; Data sizes:     COMRAM   BANK5   BANK6   BANK7   BANK8   BANK9  BANK10  BANK11  BANK12  BANK13  BANK14  BANK15  BANK1
      +6  BANK17  BANK18  BANK19  BANK20  BANK21  BANK22  BANK23  BANK24  BANK25  BANK26  BANK27  BANK28  BANK29  BANK30  BANK3
      +1  BANK32  BANK33  BANK34  BANK35  BANK36
  1922 ;;      Params:         3       0       0       0       0       0       0       0       0       0       0       0       
      +0       0       0       0       0       0       0       0       0       0       0       0       0       0       0       
      +0       0       0       0       0       0
  1923 ;;      Locals:         0       0       0       0       0       0       0       0       0       0       0       0       
      +0       0       0       0       0       0       0       0       0       0       0       0       0       0       0       
      +0       0       0       0       0       0
  1924 ;;      Temps:          0       0       0       0       0       0       0       0       0       0       0       0       
      +0       0       0       0       0       0       0       0       0       0       0       0       0       0       0       
      +0       0       0       0       0       0
  1925 ;;      Totals:         3       0       0       0       0       0       0       0       0       0       0       0       
      +0       0       0       0       0       0       0       0       0       0       0       0       0       0       0       
      +0       0       0       0       0       0
  1926 ;;Total ram usage:        3 bytes
  1927 ;; Hardware stack levels used: 1
  1928 ;; Hardware stack levels required when called: 3
  1929 ;; This function calls:
  1930 ;;		Nothing
  1931 ;; This function is called by:
  1932 ;;		_dma1_init
  1933 ;;		_dma1_wakeup
  1934 ;; This function uses a non-reentrant model
  1935 ;;
  1936                           
  1937                           	psect	text16
  1938   002D82                     __ptext16:
  1939                           	callstack 0
  1940   002D82                     _DMA1_SourceAddressSet:
  1941                           	callstack 121
  1942                           
  1943                           ;mcc_generated_files/dma/src/dma1.c: 102: void DMA1_SourceAddressSet(uint24_t address);m
      +                          cc_generated_files/dma/src/dma1.c: 103: {;mcc_generated_files/dma/src/dma1.c: 104:     D
      +                          MASELECT = 0x0;
  1944                           
  1945                           ; BSR set to: 0
  1946                           ;incstack = 0
  1947   002D82  0E00               	movlw	0
  1948   002D84  0100               	movlb	0	; () banked
  1949   002D86  6FE8               	movwf	232,b	;volatile
  1950                           
  1951                           ; BSR set to: 0
  1952                           ;mcc_generated_files/dma/src/dma1.c: 105:  DMAnSSA = address;
  1953   002D88  C54C  F0F9         	movff	DMA1_SourceAddressSet@address,249	;volatile
  1954   002D8C  C54D  F0FA         	movff	DMA1_SourceAddressSet@address+1,250	;volatile
  1955   002D90  C54E  F0FB         	movff	DMA1_SourceAddressSet@address+2,251	;volatile
  1956                           
  1957                           ; BSR set to: 0
  1958   002D94  0012               	return		;funcret
  1959   002D96                     __end_of_DMA1_SourceAddressSet:
  1960                           	callstack 0
  1961                           
  1962 ;; *************** function _DMA1_Enable *****************
  1963 ;; Defined at:
  1964 ;;		line 84 in file "mcc_generated_files/dma/src/dma1.c"
  1965 ;; Parameters:    Size  Location     Type
  1966 ;;		None
  1967 ;; Auto vars:     Size  Location     Type
  1968 ;;		None
  1969 ;; Return value:  Size  Location     Type
  1970 ;;                  1    wreg      void 
  1971 ;; Registers used:
  1972 ;;		wreg, status,2
  1973 ;; Tracked objects:
  1974 ;;		On entry : 0/0
  1975 ;;		On exit  : 3F/0
  1976 ;;		Unchanged: 0/0
  1977 ;; Data sizes:     COMRAM   BANK5   BANK6   BANK7   BANK8   BANK9  BANK10  BANK11  BANK12  BANK13  BANK14  BANK15  BANK1
      +6  BANK17  BANK18  BANK19  BANK20  BANK21  BANK22  BANK23  BANK24  BANK25  BANK26  BANK27  BANK28  BANK29  BANK30  BANK3
      +1  BANK32  BANK33  BANK34  BANK35  BANK36
  1978 ;;      Params:         0       0       0       0       0       0       0       0       0       0       0       0       
      +0       0       0       0       0       0       0       0       0       0       0       0       0       0       0       
      +0       0       0       0       0       0
  1979 ;;      Locals:         0       0       0       0       0       0       0       0       0       0       0       0       
      +0       0       0       0       0       0       0       0       0       0       0       0       0       0       0       
      +0       0       0       0       0       0
  1980 ;;      Temps:          0       0       0       0       0       0       0       0       0       0       0       0       
      +0       0       0       0       0       0       0       0       0       0       0       0       0       0       0       
      +0       0       0       0       0       0
  1981 ;;      Totals:         0       0       0       0       0       0       0       0       0       0       0       0       
      +0       0       0       0       0       0       0       0       0       0       0       0       0       0       0       
      +0       0       0       0       0       0
  1982 ;;Total ram usage:        0 bytes
  1983 ;; Hardware stack levels used: 1
  1984 ;; Hardware stack levels required when called: 3
  1985 ;; This function calls:
  1986 ;;		Nothing
  1987 ;; This function is called by:
  1988 ;;		_dma1_init
  1989 ;;		_dma1_wakeup
  1990 ;; This function uses a non-reentrant model
  1991 ;;
  1992                           
  1993                           	psect	text17
  1994   002E16                     __ptext17:
  1995                           	callstack 0
  1996   002E16                     _DMA1_Enable:
  1997                           	callstack 121
  1998                           
  1999                           ;mcc_generated_files/dma/src/dma1.c: 86:     DMASELECT = 0x0;
  2000                           
  2001                           ; BSR set to: 0
  2002                           ;incstack = 0
  2003   002E16  0E00               	movlw	0
  2004   002E18  0100               	movlb	0	; () banked
  2005   002E1A  6FE8               	movwf	232,b	;volatile
  2006                           
  2007                           ; BSR set to: 0
  2008                           ;mcc_generated_files/dma/src/dma1.c: 87:     DMAnCON0bits.EN = 0x1;
  2009   002E1C  8FFC               	bsf	252,7,b	;volatile
  2010                           
  2011                           ; BSR set to: 0
  2012   002E1E  0012               	return		;funcret
  2013   002E20                     __end_of_DMA1_Enable:
  2014                           	callstack 0
  2015                           
  2016 ;; *************** function _DMA1_DMAPrioritySet *****************
  2017 ;; Defined at:
  2018 ;;		line 205 in file "mcc_generated_files/dma/src/dma1.c"
  2019 ;; Parameters:    Size  Location     Type
  2020 ;;  priority        1    wreg     unsigned char 
  2021 ;; Auto vars:     Size  Location     Type
  2022 ;;  priority        1   13[COMRAM] unsigned char 
  2023 ;;  GIESaveState    1   14[COMRAM] unsigned char 
  2024 ;; Return value:  Size  Location     Type
  2025 ;;                  1    wreg      void 
  2026 ;; Registers used:
  2027 ;;		wreg, status,2
  2028 ;; Tracked objects:
  2029 ;;		On entry : 3F/0
  2030 ;;		On exit  : 0/0
  2031 ;;		Unchanged: 0/0
  2032 ;; Data sizes:     COMRAM   BANK5   BANK6   BANK7   BANK8   BANK9  BANK10  BANK11  BANK12  BANK13  BANK14  BANK15  BANK1
      +6  BANK17  BANK18  BANK19  BANK20  BANK21  BANK22  BANK23  BANK24  BANK25  BANK26  BANK27  BANK28  BANK29  BANK30  BANK3
      +1  BANK32  BANK33  BANK34  BANK35  BANK36
  2033 ;;      Params:         0       0       0       0       0       0       0       0       0       0       0       0       
      +0       0       0       0       0       0       0       0       0       0       0       0       0       0       0       
      +0       0       0       0       0       0
  2034 ;;      Locals:         2       0       0       0       0       0       0       0       0       0       0       0       
      +0       0       0       0       0       0       0       0       0       0       0       0       0       0       0       
      +0       0       0       0       0       0
  2035 ;;      Temps:          0       0       0       0       0       0       0       0       0       0       0       0       
      +0       0       0       0       0       0       0       0       0       0       0       0       0       0       0       
      +0       0       0       0       0       0
  2036 ;;      Totals:         2       0       0       0       0       0       0       0       0       0       0       0       
      +0       0       0       0       0       0       0       0       0       0       0       0       0       0       0       
      +0       0       0       0       0       0
  2037 ;;Total ram usage:        2 bytes
  2038 ;; Hardware stack levels used: 1
  2039 ;; Hardware stack levels required when called: 3
  2040 ;; This function calls:
  2041 ;;		Nothing
  2042 ;; This function is called by:
  2043 ;;		_dma1_init
  2044 ;; This function uses a non-reentrant model
  2045 ;;
  2046                           
  2047                           	psect	text18
  2048   002B0C                     __ptext18:
  2049                           	callstack 0
  2050   002B0C                     _DMA1_DMAPrioritySet:
  2051                           	callstack 122
  2052                           
  2053                           ; BSR set to: 0
  2054                           ;incstack = 0
  2055                           ;DMA1_DMAPrioritySet@priority stored from wreg
  2056   002B0C  6E4C               	movwf	DMA1_DMAPrioritySet@priority^(0+1280),c
  2057                           
  2058                           ;mcc_generated_files/dma/src/dma1.c: 205: void DMA1_DMAPrioritySet(uint8_t priority);mcc
      +                          _generated_files/dma/src/dma1.c: 206: {;mcc_generated_files/dma/src/dma1.c: 207:     uin
      +                          t8_t GIESaveState = INTCON0bits.GIE;
  2059   002B0E  0E00               	movlw	0
  2060   002B10  BED6               	btfsc	214,7,c	;volatile
  2061   002B12  0E01               	movlw	1
  2062   002B14  6E4D               	movwf	DMA1_DMAPrioritySet@GIESaveState^(0+1280),c
  2063                           
  2064                           ;mcc_generated_files/dma/src/dma1.c: 208:     INTCON0bits.GIE = 0;
  2065   002B16  9ED6               	bcf	214,7,c	;volatile
  2066                           
  2067                           ;mcc_generated_files/dma/src/dma1.c: 209:  PRLOCK = 0x55;
  2068   002B18  0E55               	movlw	85
  2069   002B1A  0100               	movlb	0	; () banked
  2070   002B1C  6FB4               	movwf	180,b	;volatile
  2071                           
  2072                           ;mcc_generated_files/dma/src/dma1.c: 210:  PRLOCK = 0xAA;
  2073   002B1E  0EAA               	movlw	170
  2074   002B20  6FB4               	movwf	180,b	;volatile
  2075                           
  2076                           ; BSR set to: 0
  2077                           ;mcc_generated_files/dma/src/dma1.c: 211:  PRLOCKbits.PRLOCKED = 0;
  2078   002B22  91B4               	bcf	180,0,b	;volatile
  2079                           
  2080                           ; BSR set to: 0
  2081                           ;mcc_generated_files/dma/src/dma1.c: 212:  DMA1PR = priority;
  2082   002B24  C54C  F0B6         	movff	DMA1_DMAPrioritySet@priority,182	;volatile
  2083                           
  2084                           ; BSR set to: 0
  2085                           ;mcc_generated_files/dma/src/dma1.c: 213:  PRLOCK = 0x55;
  2086   002B28  0E55               	movlw	85
  2087   002B2A  6FB4               	movwf	180,b	;volatile
  2088                           
  2089                           ; BSR set to: 0
  2090                           ;mcc_generated_files/dma/src/dma1.c: 214:  PRLOCK = 0xAA;
  2091   002B2C  0EAA               	movlw	170
  2092   002B2E  6FB4               	movwf	180,b	;volatile
  2093                           
  2094                           ; BSR set to: 0
  2095                           ;mcc_generated_files/dma/src/dma1.c: 215:  PRLOCKbits.PRLOCKED = 1;
  2096   002B30  81B4               	bsf	180,0,b	;volatile
  2097                           
  2098                           ; BSR set to: 0
  2099                           ;mcc_generated_files/dma/src/dma1.c: 216:     INTCON0bits.GIE = GIESaveState;
  2100   002B32  B04D               	btfsc	DMA1_DMAPrioritySet@GIESaveState^(0+1280),0,c
  2101   002B34  D002               	bra	u65
  2102   002B36  9ED6               	bcf	214,7,c	;volatile
  2103   002B38  D001               	bra	u66
  2104   002B3A                     u65:
  2105   002B3A  8ED6               	bsf	214,7,c	;volatile
  2106   002B3C                     u66:
  2107   002B3C  0012               	return		;funcret
  2108   002B3E                     __end_of_DMA1_DMAPrioritySet:
  2109                           	callstack 0
  2110                           
  2111 ;; *************** function _UART3_RxCompleteCallbackRegister *****************
  2112 ;; Defined at:
  2113 ;;		line 463 in file "mcc_generated_files/uart/src/uart3.c"
  2114 ;; Parameters:    Size  Location     Type
  2115 ;;  callbackHand    3   13[COMRAM] PTR FTN()void 
  2116 ;;		 -> u3rxIsr(1), 
  2117 ;; Auto vars:     Size  Location     Type
  2118 ;;		None
  2119 ;; Return value:  Size  Location     Type
  2120 ;;                  1    wreg      void 
  2121 ;; Registers used:
  2122 ;;		wreg, status,2, status,0
  2123 ;; Tracked objects:
  2124 ;;		On entry : 3C/0
  2125 ;;		On exit  : 3C/0
  2126 ;;		Unchanged: 3C/0
  2127 ;; Data sizes:     COMRAM   BANK5   BANK6   BANK7   BANK8   BANK9  BANK10  BANK11  BANK12  BANK13  BANK14  BANK15  BANK1
      +6  BANK17  BANK18  BANK19  BANK20  BANK21  BANK22  BANK23  BANK24  BANK25  BANK26  BANK27  BANK28  BANK29  BANK30  BANK3
      +1  BANK32  BANK33  BANK34  BANK35  BANK36
  2128 ;;      Params:         3       0       0       0       0       0       0       0       0       0       0       0       
      +0       0       0       0       0       0       0       0       0       0       0       0       0       0       0       
      +0       0       0       0       0       0
  2129 ;;      Locals:         0       0       0       0       0       0       0       0       0       0       0       0       
      +0       0       0       0       0       0       0       0       0       0       0       0       0       0       0       
      +0       0       0       0       0       0
  2130 ;;      Temps:          0       0       0       0       0       0       0       0       0       0       0       0       
      +0       0       0       0       0       0       0       0       0       0       0       0       0       0       0       
      +0       0       0       0       0       0
  2131 ;;      Totals:         3       0       0       0       0       0       0       0       0       0       0       0       
      +0       0       0       0       0       0       0       0       0       0       0       0       0       0       0       
      +0       0       0       0       0       0
  2132 ;;Total ram usage:        3 bytes
  2133 ;; Hardware stack levels used: 1
  2134 ;; Hardware stack levels required when called: 3
  2135 ;; This function calls:
  2136 ;;		Nothing
  2137 ;; This function is called by:
  2138 ;;		_main
  2139 ;; This function uses a non-reentrant model
  2140 ;;
  2141                           
  2142                           	psect	text19
  2143   002CC4                     __ptext19:
  2144                           	callstack 0
  2145   002CC4                     _UART3_RxCompleteCallbackRegister:
  2146                           	callstack 123
  2147                           
  2148                           ;mcc_generated_files/uart/src/uart3.c: 463: void UART3_RxCompleteCallbackRegister(void (
      +                          * callbackHandler)(void));mcc_generated_files/uart/src/uart3.c: 464: {;mcc_generated_fil
      +                          es/uart/src/uart3.c: 465:     if(((void*)0) != callbackHandler)
  2149                           
  2150                           ;incstack = 0
  2151   002CC4  504C               	movf	UART3_RxCompleteCallbackRegister@callbackHandler^(0+1280),w,c
  2152   002CC6  104D               	iorwf	(UART3_RxCompleteCallbackRegister@callbackHandler+1)^(0+1280),w,c
  2153   002CC8  104E               	iorwf	(UART3_RxCompleteCallbackRegister@callbackHandler+2)^(0+1280),w,c
  2154   002CCA  B4D8               	btfsc	status,2,c
  2155   002CCC  0012               	return	
  2156                           
  2157                           ;mcc_generated_files/uart/src/uart3.c: 466:     {;mcc_generated_files/uart/src/uart3.c: 
      +                          467:        UART3_RxCompleteInterruptHandler = callbackHandler;
  2158   002CCE  C54C  F519         	movff	UART3_RxCompleteCallbackRegister@callbackHandler,_UART3_RxCompleteInterruptHandle
      +                          r
  2159   002CD2  C54D  F51A         	movff	UART3_RxCompleteCallbackRegister@callbackHandler+1,_UART3_RxCompleteInterruptHand
      +                          ler+1
  2160   002CD6  C54E  F51B         	movff	UART3_RxCompleteCallbackRegister@callbackHandler+2,_UART3_RxCompleteInterruptHand
      +                          ler+2
  2161   002CDA  0012               	return		;funcret
  2162   002CDC                     __end_of_UART3_RxCompleteCallbackRegister:
  2163                           	callstack 0
  2164                           
  2165 ;; *************** function _SYSTEM_Initialize *****************
  2166 ;; Defined at:
  2167 ;;		line 48 in file "mcc_generated_files/system/src/system.c"
  2168 ;; Parameters:    Size  Location     Type
  2169 ;;		None
  2170 ;; Auto vars:     Size  Location     Type
  2171 ;;		None
  2172 ;; Return value:  Size  Location     Type
  2173 ;;                  1    wreg      void 
  2174 ;; Registers used:
  2175 ;;		wreg, status,2, status,0, cstack
  2176 ;; Tracked objects:
  2177 ;;		On entry : 0/0
  2178 ;;		On exit  : 3F/0
  2179 ;;		Unchanged: 0/0
  2180 ;; Data sizes:     COMRAM   BANK5   BANK6   BANK7   BANK8   BANK9  BANK10  BANK11  BANK12  BANK13  BANK14  BANK15  BANK1
      +6  BANK17  BANK18  BANK19  BANK20  BANK21  BANK22  BANK23  BANK24  BANK25  BANK26  BANK27  BANK28  BANK29  BANK30  BANK3
      +1  BANK32  BANK33  BANK34  BANK35  BANK36
  2181 ;;      Params:         0       0       0       0       0       0       0       0       0       0       0       0       
      +0       0       0       0       0       0       0       0       0       0       0       0       0       0       0       
      +0       0       0       0       0       0
  2182 ;;      Locals:         0       0       0       0       0       0       0       0       0       0       0       0       
      +0       0       0       0       0       0       0       0       0       0       0       0       0       0       0       
      +0       0       0       0       0       0
  2183 ;;      Temps:          0       0       0       0       0       0       0       0       0       0       0       0       
      +0       0       0       0       0       0       0       0       0       0       0       0       0       0       0       
      +0       0       0       0       0       0
  2184 ;;      Totals:         0       0       0       0       0       0       0       0       0       0       0       0       
      +0       0       0       0       0       0       0       0       0       0       0       0       0       0       0       
      +0       0       0       0       0       0
  2185 ;;Total ram usage:        0 bytes
  2186 ;; Hardware stack levels used: 1
  2187 ;; Hardware stack levels required when called: 5
  2188 ;; This function calls:
  2189 ;;		_CLOCK_Initialize
  2190 ;;		_CPU_Initialize
  2191 ;;		_DMA1_Initialize
  2192 ;;		_INTERRUPT_Initialize
  2193 ;;		_NVM_Initialize
  2194 ;;		_PIN_MANAGER_Initialize
  2195 ;;		_SystemArbiter_Initialize
  2196 ;;		_TMR0_Initialize
  2197 ;;		_UART3_Initialize
  2198 ;; This function is called by:
  2199 ;;		_main
  2200 ;; This function uses a non-reentrant model
  2201 ;;
  2202                           
  2203                           	psect	text20
  2204   002BEC                     __ptext20:
  2205                           	callstack 0
  2206   002BEC                     _SYSTEM_Initialize:
  2207                           	callstack 121
  2208                           
  2209                           ;mcc_generated_files/system/src/system.c: 50:     CLOCK_Initialize();
  2210                           
  2211                           ;incstack = 0
  2212   002BEC  EC3C  F016         	call	_CLOCK_Initialize	;wreg free
  2213                           
  2214                           ;mcc_generated_files/system/src/system.c: 51:     PIN_MANAGER_Initialize();
  2215   002BF0  EC2B  F013         	call	_PIN_MANAGER_Initialize	;wreg free
  2216                           
  2217                           ;mcc_generated_files/system/src/system.c: 52:     CPU_Initialize();
  2218   002BF4  EC6C  F015         	call	_CPU_Initialize	;wreg free
  2219                           
  2220                           ;mcc_generated_files/system/src/system.c: 53:     DMA1_Initialize();
  2221   002BF8  ECB7  F014         	call	_DMA1_Initialize	;wreg free
  2222                           
  2223                           ; BSR set to: 0
  2224                           ;mcc_generated_files/system/src/system.c: 54:     NVM_Initialize();
  2225   002BFC  EC14  F017         	call	_NVM_Initialize	;wreg free
  2226                           
  2227                           ; BSR set to: 0
  2228                           ;mcc_generated_files/system/src/system.c: 55:     TMR0_Initialize();
  2229   002C00  EC1D  F015         	call	_TMR0_Initialize	;wreg free
  2230                           
  2231                           ; BSR set to: 3
  2232                           ;mcc_generated_files/system/src/system.c: 56:     UART3_Initialize();
  2233   002C04  EC8E  F013         	call	_UART3_Initialize	;wreg free
  2234                           
  2235                           ; BSR set to: 2
  2236                           ;mcc_generated_files/system/src/system.c: 57:     INTERRUPT_Initialize();
  2237   002C08  ECE4  F013         	call	_INTERRUPT_Initialize	;wreg free
  2238                           
  2239                           ;mcc_generated_files/system/src/system.c: 58:     SystemArbiter_Initialize();
  2240   002C0C  ECE0  F016         	call	_SystemArbiter_Initialize	;wreg free
  2241                           
  2242                           ; BSR set to: 0
  2243   002C10  0012               	return		;funcret
  2244   002C12                     __end_of_SYSTEM_Initialize:
  2245                           	callstack 0
  2246                           
  2247 ;; *************** function _UART3_Initialize *****************
  2248 ;; Defined at:
  2249 ;;		line 118 in file "mcc_generated_files/uart/src/uart3.c"
  2250 ;; Parameters:    Size  Location     Type
  2251 ;;		None
  2252 ;; Auto vars:     Size  Location     Type
  2253 ;;		None
  2254 ;; Return value:  Size  Location     Type
  2255 ;;                  1    wreg      void 
  2256 ;; Registers used:
  2257 ;;		wreg, status,2, status,0, cstack
  2258 ;; Tracked objects:
  2259 ;;		On entry : 3F/3
  2260 ;;		On exit  : 3F/2
  2261 ;;		Unchanged: 0/0
  2262 ;; Data sizes:     COMRAM   BANK5   BANK6   BANK7   BANK8   BANK9  BANK10  BANK11  BANK12  BANK13  BANK14  BANK15  BANK1
      +6  BANK17  BANK18  BANK19  BANK20  BANK21  BANK22  BANK23  BANK24  BANK25  BANK26  BANK27  BANK28  BANK29  BANK30  BANK3
      +1  BANK32  BANK33  BANK34  BANK35  BANK36
  2263 ;;      Params:         0       0       0       0       0       0       0       0       0       0       0       0       
      +0       0       0       0       0       0       0       0       0       0       0       0       0       0       0       
      +0       0       0       0       0       0
  2264 ;;      Locals:         0       0       0       0       0       0       0       0       0       0       0       0       
      +0       0       0       0       0       0       0       0       0       0       0       0       0       0       0       
      +0       0       0       0       0       0
  2265 ;;      Temps:          0       0       0       0       0       0       0       0       0       0       0       0       
      +0       0       0       0       0       0       0       0       0       0       0       0       0       0       0       
      +0       0       0       0       0       0
  2266 ;;      Totals:         0       0       0       0       0       0       0       0       0       0       0       0       
      +0       0       0       0       0       0       0       0       0       0       0       0       0       0       0       
      +0       0       0       0       0       0
  2267 ;;Total ram usage:        0 bytes
  2268 ;; Hardware stack levels used: 1
  2269 ;; Hardware stack levels required when called: 4
  2270 ;; This function calls:
  2271 ;;		_UART3_FramingErrorCallbackRegister
  2272 ;;		_UART3_OverrunErrorCallbackRegister
  2273 ;;		_UART3_ParityErrorCallbackRegister
  2274 ;; This function is called by:
  2275 ;;		_SYSTEM_Initialize
  2276 ;; This function uses a non-reentrant model
  2277 ;;
  2278                           
  2279                           	psect	text21
  2280   00271C                     __ptext21:
  2281                           	callstack 0
  2282   00271C                     _UART3_Initialize:
  2283                           	callstack 121
  2284                           
  2285                           ; BSR set to: 3
  2286                           ;mcc_generated_files/uart/src/uart3.c: 120:     PIE9bits.U3RXIE = 0;
  2287                           
  2288                           ; BSR set to: 0
  2289                           ;incstack = 0
  2290   00271C  90A7               	bcf	167,0,c	;volatile
  2291                           
  2292                           ; BSR set to: 3
  2293                           ;mcc_generated_files/uart/src/uart3.c: 121:     UART3_RxInterruptHandler = UART3_Receive
      +                          ISR;
  2294   00271E  0E84               	movlw	low _UART3_ReceiveISR
  2295   002720  0105               	movlb	5	; () banked
  2296   002722  6F68               	movwf	_UART3_RxInterruptHandler& (0+255),b
  2297   002724  0E25               	movlw	high _UART3_ReceiveISR
  2298   002726  6F69               	movwf	(_UART3_RxInterruptHandler+1)& (0+255),b
  2299   002728  0E00               	movlw	low (_UART3_ReceiveISR shr (0+16))
  2300   00272A  6F6A               	movwf	(_UART3_RxInterruptHandler+2)& (0+255),b
  2301                           
  2302                           ; BSR set to: 5
  2303                           ;mcc_generated_files/uart/src/uart3.c: 122:     PIE9bits.U3TXIE = 0;
  2304   00272C  92A7               	bcf	167,1,c	;volatile
  2305                           
  2306                           ;mcc_generated_files/uart/src/uart3.c: 123:     UART3_TxInterruptHandler = UART3_Transmi
      +                          tISR;
  2307   00272E  0EC2               	movlw	low _UART3_TransmitISR
  2308   002730  6E5C               	movwf	_UART3_TxInterruptHandler^(0+1280),c
  2309   002732  0E2B               	movlw	high _UART3_TransmitISR
  2310   002734  6E5D               	movwf	(_UART3_TxInterruptHandler+1)^(0+1280),c
  2311   002736  0E00               	movlw	low (_UART3_TransmitISR shr (0+16))
  2312   002738  6E5E               	movwf	(_UART3_TxInterruptHandler+2)^(0+1280),c
  2313                           
  2314                           ; BSR set to: 5
  2315                           ;mcc_generated_files/uart/src/uart3.c: 128:     U3RXB = 0x0;
  2316   00273A  0E00               	movlw	0
  2317   00273C  0102               	movlb	2	; () banked
  2318   00273E  6FC7               	movwf	199,b	;volatile
  2319                           
  2320                           ; BSR set to: 2
  2321                           ;mcc_generated_files/uart/src/uart3.c: 130:     U3TXB = 0x0;
  2322   002740  0E00               	movlw	0
  2323   002742  6FC9               	movwf	201,b	;volatile
  2324                           
  2325                           ; BSR set to: 2
  2326                           ;mcc_generated_files/uart/src/uart3.c: 132:     U3P1L = 0x0;
  2327   002744  0E00               	movlw	0
  2328   002746  6FCB               	movwf	203,b	;volatile
  2329                           
  2330                           ; BSR set to: 2
  2331                           ;mcc_generated_files/uart/src/uart3.c: 134:     U3P2L = 0x0;
  2332   002748  0E00               	movlw	0
  2333   00274A  6FCD               	movwf	205,b	;volatile
  2334                           
  2335                           ; BSR set to: 2
  2336                           ;mcc_generated_files/uart/src/uart3.c: 136:     U3P3L = 0x0;
  2337   00274C  0E00               	movlw	0
  2338   00274E  6FCF               	movwf	207,b	;volatile
  2339                           
  2340                           ; BSR set to: 2
  2341                           ;mcc_generated_files/uart/src/uart3.c: 138:     U3CON0 = 0xB0;
  2342   002750  0EB0               	movlw	176
  2343   002752  6FD1               	movwf	209,b	;volatile
  2344                           
  2345                           ; BSR set to: 2
  2346                           ;mcc_generated_files/uart/src/uart3.c: 140:     U3CON1 = 0x80;
  2347   002754  0E80               	movlw	128
  2348   002756  6FD2               	movwf	210,b	;volatile
  2349                           
  2350                           ; BSR set to: 2
  2351                           ;mcc_generated_files/uart/src/uart3.c: 142:     U3CON2 = 0x0;
  2352   002758  0E00               	movlw	0
  2353   00275A  6FD3               	movwf	211,b	;volatile
  2354                           
  2355                           ; BSR set to: 2
  2356                           ;mcc_generated_files/uart/src/uart3.c: 144:     U3BRGL = 0x82;
  2357   00275C  0E82               	movlw	130
  2358   00275E  6FD4               	movwf	212,b	;volatile
  2359                           
  2360                           ; BSR set to: 2
  2361                           ;mcc_generated_files/uart/src/uart3.c: 146:     U3BRGH = 0x6;
  2362   002760  0E06               	movlw	6
  2363   002762  6FD5               	movwf	213,b	;volatile
  2364                           
  2365                           ; BSR set to: 2
  2366                           ;mcc_generated_files/uart/src/uart3.c: 148:     U3FIFO = 0x2E;
  2367   002764  0E2E               	movlw	46
  2368   002766  6FD6               	movwf	214,b	;volatile
  2369                           
  2370                           ; BSR set to: 2
  2371                           ;mcc_generated_files/uart/src/uart3.c: 150:     U3UIR = 0x0;
  2372   002768  0E00               	movlw	0
  2373   00276A  6FD7               	movwf	215,b	;volatile
  2374                           
  2375                           ; BSR set to: 2
  2376                           ;mcc_generated_files/uart/src/uart3.c: 152:     U3ERRIR = 0x80;
  2377   00276C  0E80               	movlw	128
  2378   00276E  6FD8               	movwf	216,b	;volatile
  2379                           
  2380                           ; BSR set to: 2
  2381                           ;mcc_generated_files/uart/src/uart3.c: 154:     U3ERRIE = 0x0;
  2382   002770  0E00               	movlw	0
  2383   002772  6FD9               	movwf	217,b	;volatile
  2384                           
  2385                           ; BSR set to: 2
  2386                           ;mcc_generated_files/uart/src/uart3.c: 156:     UART3_FramingErrorCallbackRegister(UART3
      +                          _DefaultFramingErrorCallback);
  2387   002774  0E58               	movlw	low _UART3_DefaultFramingErrorCallback
  2388   002776  6E4C               	movwf	UART3_FramingErrorCallbackRegister@callbackHandler^(0+1280),c
  2389   002778  0E2E               	movlw	high _UART3_DefaultFramingErrorCallback
  2390   00277A  6E4D               	movwf	(UART3_FramingErrorCallbackRegister@callbackHandler+1)^(0+1280),c
  2391   00277C  0E00               	movlw	low (_UART3_DefaultFramingErrorCallback shr (0+16))
  2392   00277E  6E4E               	movwf	(UART3_FramingErrorCallbackRegister@callbackHandler+2)^(0+1280),c
  2393   002780  EC86  F016         	call	_UART3_FramingErrorCallbackRegister	;wreg free
  2394                           
  2395                           ; BSR set to: 2
  2396                           ;mcc_generated_files/uart/src/uart3.c: 157:     UART3_OverrunErrorCallbackRegister(UART3
      +                          _DefaultOverrunErrorCallback);
  2397   002784  0E56               	movlw	low _UART3_DefaultOverrunErrorCallback
  2398   002786  6E4C               	movwf	UART3_OverrunErrorCallbackRegister@callbackHandler^(0+1280),c
  2399   002788  0E2E               	movlw	high _UART3_DefaultOverrunErrorCallback
  2400   00278A  6E4D               	movwf	(UART3_OverrunErrorCallbackRegister@callbackHandler+1)^(0+1280),c
  2401   00278C  0E00               	movlw	low (_UART3_DefaultOverrunErrorCallback shr (0+16))
  2402   00278E  6E4E               	movwf	(UART3_OverrunErrorCallbackRegister@callbackHandler+2)^(0+1280),c
  2403   002790  EC7A  F016         	call	_UART3_OverrunErrorCallbackRegister	;wreg free
  2404                           
  2405                           ; BSR set to: 2
  2406                           ;mcc_generated_files/uart/src/uart3.c: 158:     UART3_ParityErrorCallbackRegister(UART3_
      +                          DefaultParityErrorCallback);
  2407   002794  0E00               	movlw	0
  2408   002796  6E4C               	movwf	UART3_ParityErrorCallbackRegister@callbackHandler^(0+1280),c
  2409   002798  0E00               	movlw	0
  2410   00279A  6E4D               	movwf	(UART3_ParityErrorCallbackRegister@callbackHandler+1)^(0+1280),c
  2411   00279C  0E00               	movlw	0
  2412   00279E  6E4E               	movwf	(UART3_ParityErrorCallbackRegister@callbackHandler+2)^(0+1280),c
  2413   0027A0  EC6E  F016         	call	_UART3_ParityErrorCallbackRegister	;wreg free
  2414                           
  2415                           ; BSR set to: 2
  2416                           ;mcc_generated_files/uart/src/uart3.c: 160:     uart3RxLastError.status = 0;
  2417   0027A4  0E00               	movlw	0
  2418   0027A6  6E32               	movwf	(_uart3RxLastError+1)^(0+1280),c	;volatile
  2419   0027A8  0E00               	movlw	0
  2420   0027AA  6E31               	movwf	_uart3RxLastError^(0+1280),c	;volatile
  2421                           
  2422                           ; BSR set to: 2
  2423                           ;mcc_generated_files/uart/src/uart3.c: 161:     uart3TxHead = 0;
  2424   0027AC  0E00               	movlw	0
  2425   0027AE  6E3E               	movwf	_uart3TxHead^(0+1280),c	;volatile
  2426                           
  2427                           ; BSR set to: 2
  2428                           ;mcc_generated_files/uart/src/uart3.c: 162:     uart3TxTail = 0;
  2429   0027B0  0E00               	movlw	0
  2430   0027B2  6E3D               	movwf	_uart3TxTail^(0+1280),c	;volatile
  2431                           
  2432                           ; BSR set to: 2
  2433                           ;mcc_generated_files/uart/src/uart3.c: 163:     uart3TxBufferRemaining = sizeof(uart3TxB
      +                          uffer);
  2434   0027B4  0E08               	movlw	8
  2435   0027B6  6E3C               	movwf	_uart3TxBufferRemaining^(0+1280),c	;volatile
  2436                           
  2437                           ; BSR set to: 2
  2438                           ;mcc_generated_files/uart/src/uart3.c: 164:     uart3RxHead = 0;
  2439   0027B8  0E00               	movlw	0
  2440   0027BA  6E3B               	movwf	_uart3RxHead^(0+1280),c	;volatile
  2441                           
  2442                           ; BSR set to: 2
  2443                           ;mcc_generated_files/uart/src/uart3.c: 165:     uart3RxTail = 0;
  2444   0027BC  0E00               	movlw	0
  2445   0027BE  6E3A               	movwf	_uart3RxTail^(0+1280),c	;volatile
  2446                           
  2447                           ; BSR set to: 2
  2448                           ;mcc_generated_files/uart/src/uart3.c: 166:     uart3RxCount = 0;
  2449   0027C0  0E00               	movlw	0
  2450   0027C2  6E39               	movwf	_uart3RxCount^(0+1280),c	;volatile
  2451                           
  2452                           ; BSR set to: 2
  2453                           ;mcc_generated_files/uart/src/uart3.c: 167:     PIE9bits.U3RXIE = 1;
  2454   0027C4  80A7               	bsf	167,0,c	;volatile
  2455                           
  2456                           ; BSR set to: 2
  2457   0027C6  0012               	return		;funcret
  2458   0027C8                     __end_of_UART3_Initialize:
  2459                           	callstack 0
  2460                           
  2461 ;; *************** function _UART3_ParityErrorCallbackRegister *****************
  2462 ;; Defined at:
  2463 ;;		line 456 in file "mcc_generated_files/uart/src/uart3.c"
  2464 ;; Parameters:    Size  Location     Type
  2465 ;;  callbackHand    3   13[COMRAM] PTR FTN()void 
  2466 ;;		 -> UART3_DefaultParityErrorCallback(1), 
  2467 ;; Auto vars:     Size  Location     Type
  2468 ;;		None
  2469 ;; Return value:  Size  Location     Type
  2470 ;;                  1    wreg      void 
  2471 ;; Registers used:
  2472 ;;		wreg, status,2, status,0
  2473 ;; Tracked objects:
  2474 ;;		On entry : 3F/2
  2475 ;;		On exit  : 3F/2
  2476 ;;		Unchanged: 3F/0
  2477 ;; Data sizes:     COMRAM   BANK5   BANK6   BANK7   BANK8   BANK9  BANK10  BANK11  BANK12  BANK13  BANK14  BANK15  BANK1
      +6  BANK17  BANK18  BANK19  BANK20  BANK21  BANK22  BANK23  BANK24  BANK25  BANK26  BANK27  BANK28  BANK29  BANK30  BANK3
      +1  BANK32  BANK33  BANK34  BANK35  BANK36
  2478 ;;      Params:         3       0       0       0       0       0       0       0       0       0       0       0       
      +0       0       0       0       0       0       0       0       0       0       0       0       0       0       0       
      +0       0       0       0       0       0
  2479 ;;      Locals:         0       0       0       0       0       0       0       0       0       0       0       0       
      +0       0       0       0       0       0       0       0       0       0       0       0       0       0       0       
      +0       0       0       0       0       0
  2480 ;;      Temps:          0       0       0       0       0       0       0       0       0       0       0       0       
      +0       0       0       0       0       0       0       0       0       0       0       0       0       0       0       
      +0       0       0       0       0       0
  2481 ;;      Totals:         3       0       0       0       0       0       0       0       0       0       0       0       
      +0       0       0       0       0       0       0       0       0       0       0       0       0       0       0       
      +0       0       0       0       0       0
  2482 ;;Total ram usage:        3 bytes
  2483 ;; Hardware stack levels used: 1
  2484 ;; Hardware stack levels required when called: 3
  2485 ;; This function calls:
  2486 ;;		Nothing
  2487 ;; This function is called by:
  2488 ;;		_UART3_Initialize
  2489 ;; This function uses a non-reentrant model
  2490 ;;
  2491                           
  2492                           	psect	text22
  2493   002CDC                     __ptext22:
  2494                           	callstack 0
  2495   002CDC                     _UART3_ParityErrorCallbackRegister:
  2496                           	callstack 121
  2497                           
  2498                           ; BSR set to: 2
  2499                           ;mcc_generated_files/uart/src/uart3.c: 456: void UART3_ParityErrorCallbackRegister(void 
      +                          (* callbackHandler)(void));mcc_generated_files/uart/src/uart3.c: 457: {;mcc_generated_fi
      +                          les/uart/src/uart3.c: 458:     if(((void*)0) != callbackHandler)
  2500                           
  2501                           ; BSR set to: 2
  2502                           ;incstack = 0
  2503   002CDC  504C               	movf	UART3_ParityErrorCallbackRegister@callbackHandler^(0+1280),w,c
  2504   002CDE  104D               	iorwf	(UART3_ParityErrorCallbackRegister@callbackHandler+1)^(0+1280),w,c
  2505   002CE0  104E               	iorwf	(UART3_ParityErrorCallbackRegister@callbackHandler+2)^(0+1280),w,c
  2506   002CE2  B4D8               	btfsc	status,2,c
  2507   002CE4  0012               	return	
  2508                           
  2509                           ; BSR set to: 2
  2510                           ;mcc_generated_files/uart/src/uart3.c: 459:     {;mcc_generated_files/uart/src/uart3.c: 
      +                          460:         UART3_ParityErrorHandler = callbackHandler;
  2511   002CE6  C54C  F51F         	movff	UART3_ParityErrorCallbackRegister@callbackHandler,_UART3_ParityErrorHandler
  2512   002CEA  C54D  F520         	movff	UART3_ParityErrorCallbackRegister@callbackHandler+1,_UART3_ParityErrorHandler+1
  2513   002CEE  C54E  F521         	movff	UART3_ParityErrorCallbackRegister@callbackHandler+2,_UART3_ParityErrorHandler+2
  2514                           
  2515                           ; BSR set to: 2
  2516   002CF2  0012               	return		;funcret
  2517   002CF4                     __end_of_UART3_ParityErrorCallbackRegister:
  2518                           	callstack 0
  2519                           
  2520 ;; *************** function _UART3_OverrunErrorCallbackRegister *****************
  2521 ;; Defined at:
  2522 ;;		line 448 in file "mcc_generated_files/uart/src/uart3.c"
  2523 ;; Parameters:    Size  Location     Type
  2524 ;;  callbackHand    3   13[COMRAM] PTR FTN()void 
  2525 ;;		 -> UART3_DefaultOverrunErrorCallback(1), 
  2526 ;; Auto vars:     Size  Location     Type
  2527 ;;		None
  2528 ;; Return value:  Size  Location     Type
  2529 ;;                  1    wreg      void 
  2530 ;; Registers used:
  2531 ;;		wreg, status,2, status,0
  2532 ;; Tracked objects:
  2533 ;;		On entry : 3F/2
  2534 ;;		On exit  : 3F/2
  2535 ;;		Unchanged: 3F/0
  2536 ;; Data sizes:     COMRAM   BANK5   BANK6   BANK7   BANK8   BANK9  BANK10  BANK11  BANK12  BANK13  BANK14  BANK15  BANK1
      +6  BANK17  BANK18  BANK19  BANK20  BANK21  BANK22  BANK23  BANK24  BANK25  BANK26  BANK27  BANK28  BANK29  BANK30  BANK3
      +1  BANK32  BANK33  BANK34  BANK35  BANK36
  2537 ;;      Params:         3       0       0       0       0       0       0       0       0       0       0       0       
      +0       0       0       0       0       0       0       0       0       0       0       0       0       0       0       
      +0       0       0       0       0       0
  2538 ;;      Locals:         0       0       0       0       0       0       0       0       0       0       0       0       
      +0       0       0       0       0       0       0       0       0       0       0       0       0       0       0       
      +0       0       0       0       0       0
  2539 ;;      Temps:          0       0       0       0       0       0       0       0       0       0       0       0       
      +0       0       0       0       0       0       0       0       0       0       0       0       0       0       0       
      +0       0       0       0       0       0
  2540 ;;      Totals:         3       0       0       0       0       0       0       0       0       0       0       0       
      +0       0       0       0       0       0       0       0       0       0       0       0       0       0       0       
      +0       0       0       0       0       0
  2541 ;;Total ram usage:        3 bytes
  2542 ;; Hardware stack levels used: 1
  2543 ;; Hardware stack levels required when called: 3
  2544 ;; This function calls:
  2545 ;;		Nothing
  2546 ;; This function is called by:
  2547 ;;		_UART3_Initialize
  2548 ;; This function uses a non-reentrant model
  2549 ;;
  2550                           
  2551                           	psect	text23
  2552   002CF4                     __ptext23:
  2553                           	callstack 0
  2554   002CF4                     _UART3_OverrunErrorCallbackRegister:
  2555                           	callstack 121
  2556                           
  2557                           ; BSR set to: 2
  2558                           ;mcc_generated_files/uart/src/uart3.c: 448: void UART3_OverrunErrorCallbackRegister(void
      +                           (* callbackHandler)(void));mcc_generated_files/uart/src/uart3.c: 449: {;mcc_generated_f
      +                          iles/uart/src/uart3.c: 450:     if(((void*)0) != callbackHandler)
  2559                           
  2560                           ; BSR set to: 2
  2561                           ;incstack = 0
  2562   002CF4  504C               	movf	UART3_OverrunErrorCallbackRegister@callbackHandler^(0+1280),w,c
  2563   002CF6  104D               	iorwf	(UART3_OverrunErrorCallbackRegister@callbackHandler+1)^(0+1280),w,c
  2564   002CF8  104E               	iorwf	(UART3_OverrunErrorCallbackRegister@callbackHandler+2)^(0+1280),w,c
  2565   002CFA  B4D8               	btfsc	status,2,c
  2566   002CFC  0012               	return	
  2567                           
  2568                           ; BSR set to: 2
  2569                           ;mcc_generated_files/uart/src/uart3.c: 451:     {;mcc_generated_files/uart/src/uart3.c: 
      +                          452:         UART3_OverrunErrorHandler = callbackHandler;
  2570   002CFE  C54C  F522         	movff	UART3_OverrunErrorCallbackRegister@callbackHandler,_UART3_OverrunErrorHandler
  2571   002D02  C54D  F523         	movff	UART3_OverrunErrorCallbackRegister@callbackHandler+1,_UART3_OverrunErrorHandler+1
  2572   002D06  C54E  F524         	movff	UART3_OverrunErrorCallbackRegister@callbackHandler+2,_UART3_OverrunErrorHandler+2
  2573                           
  2574                           ; BSR set to: 2
  2575   002D0A  0012               	return		;funcret
  2576   002D0C                     __end_of_UART3_OverrunErrorCallbackRegister:
  2577                           	callstack 0
  2578                           
  2579 ;; *************** function _UART3_FramingErrorCallbackRegister *****************
  2580 ;; Defined at:
  2581 ;;		line 440 in file "mcc_generated_files/uart/src/uart3.c"
  2582 ;; Parameters:    Size  Location     Type
  2583 ;;  callbackHand    3   13[COMRAM] PTR FTN()void 
  2584 ;;		 -> UART3_DefaultFramingErrorCallback(1), 
  2585 ;; Auto vars:     Size  Location     Type
  2586 ;;		None
  2587 ;; Return value:  Size  Location     Type
  2588 ;;                  1    wreg      void 
  2589 ;; Registers used:
  2590 ;;		wreg, status,2, status,0
  2591 ;; Tracked objects:
  2592 ;;		On entry : 3F/2
  2593 ;;		On exit  : 3F/2
  2594 ;;		Unchanged: 3F/0
  2595 ;; Data sizes:     COMRAM   BANK5   BANK6   BANK7   BANK8   BANK9  BANK10  BANK11  BANK12  BANK13  BANK14  BANK15  BANK1
      +6  BANK17  BANK18  BANK19  BANK20  BANK21  BANK22  BANK23  BANK24  BANK25  BANK26  BANK27  BANK28  BANK29  BANK30  BANK3
      +1  BANK32  BANK33  BANK34  BANK35  BANK36
  2596 ;;      Params:         3       0       0       0       0       0       0       0       0       0       0       0       
      +0       0       0       0       0       0       0       0       0       0       0       0       0       0       0       
      +0       0       0       0       0       0
  2597 ;;      Locals:         0       0       0       0       0       0       0       0       0       0       0       0       
      +0       0       0       0       0       0       0       0       0       0       0       0       0       0       0       
      +0       0       0       0       0       0
  2598 ;;      Temps:          0       0       0       0       0       0       0       0       0       0       0       0       
      +0       0       0       0       0       0       0       0       0       0       0       0       0       0       0       
      +0       0       0       0       0       0
  2599 ;;      Totals:         3       0       0       0       0       0       0       0       0       0       0       0       
      +0       0       0       0       0       0       0       0       0       0       0       0       0       0       0       
      +0       0       0       0       0       0
  2600 ;;Total ram usage:        3 bytes
  2601 ;; Hardware stack levels used: 1
  2602 ;; Hardware stack levels required when called: 3
  2603 ;; This function calls:
  2604 ;;		Nothing
  2605 ;; This function is called by:
  2606 ;;		_UART3_Initialize
  2607 ;; This function uses a non-reentrant model
  2608 ;;
  2609                           
  2610                           	psect	text24
  2611   002D0C                     __ptext24:
  2612                           	callstack 0
  2613   002D0C                     _UART3_FramingErrorCallbackRegister:
  2614                           	callstack 121
  2615                           
  2616                           ; BSR set to: 2
  2617                           ;mcc_generated_files/uart/src/uart3.c: 440: void UART3_FramingErrorCallbackRegister(void
      +                           (* callbackHandler)(void));mcc_generated_files/uart/src/uart3.c: 441: {;mcc_generated_f
      +                          iles/uart/src/uart3.c: 442:     if(((void*)0) != callbackHandler)
  2618                           
  2619                           ; BSR set to: 2
  2620                           ;incstack = 0
  2621   002D0C  504C               	movf	UART3_FramingErrorCallbackRegister@callbackHandler^(0+1280),w,c
  2622   002D0E  104D               	iorwf	(UART3_FramingErrorCallbackRegister@callbackHandler+1)^(0+1280),w,c
  2623   002D10  104E               	iorwf	(UART3_FramingErrorCallbackRegister@callbackHandler+2)^(0+1280),w,c
  2624   002D12  B4D8               	btfsc	status,2,c
  2625   002D14  0012               	return	
  2626                           
  2627                           ; BSR set to: 2
  2628                           ;mcc_generated_files/uart/src/uart3.c: 443:     {;mcc_generated_files/uart/src/uart3.c: 
      +                          444:         UART3_FramingErrorHandler = callbackHandler;
  2629   002D16  C54C  F525         	movff	UART3_FramingErrorCallbackRegister@callbackHandler,_UART3_FramingErrorHandler
  2630   002D1A  C54D  F526         	movff	UART3_FramingErrorCallbackRegister@callbackHandler+1,_UART3_FramingErrorHandler+1
  2631   002D1E  C54E  F527         	movff	UART3_FramingErrorCallbackRegister@callbackHandler+2,_UART3_FramingErrorHandler+2
  2632                           
  2633                           ; BSR set to: 2
  2634   002D22  0012               	return		;funcret
  2635   002D24                     __end_of_UART3_FramingErrorCallbackRegister:
  2636                           	callstack 0
  2637                           
  2638 ;; *************** function _TMR0_Initialize *****************
  2639 ;; Defined at:
  2640 ;;		line 55 in file "mcc_generated_files/timer/src/tmr0.c"
  2641 ;; Parameters:    Size  Location     Type
  2642 ;;		None
  2643 ;; Auto vars:     Size  Location     Type
  2644 ;;		None
  2645 ;; Return value:  Size  Location     Type
  2646 ;;                  1    wreg      void 
  2647 ;; Registers used:
  2648 ;;		wreg, status,2, status,0, cstack
  2649 ;; Tracked objects:
  2650 ;;		On entry : 3F/0
  2651 ;;		On exit  : 3F/3
  2652 ;;		Unchanged: 0/0
  2653 ;; Data sizes:     COMRAM   BANK5   BANK6   BANK7   BANK8   BANK9  BANK10  BANK11  BANK12  BANK13  BANK14  BANK15  BANK1
      +6  BANK17  BANK18  BANK19  BANK20  BANK21  BANK22  BANK23  BANK24  BANK25  BANK26  BANK27  BANK28  BANK29  BANK30  BANK3
      +1  BANK32  BANK33  BANK34  BANK35  BANK36
  2654 ;;      Params:         0       0       0       0       0       0       0       0       0       0       0       0       
      +0       0       0       0       0       0       0       0       0       0       0       0       0       0       0       
      +0       0       0       0       0       0
  2655 ;;      Locals:         0       0       0       0       0       0       0       0       0       0       0       0       
      +0       0       0       0       0       0       0       0       0       0       0       0       0       0       0       
      +0       0       0       0       0       0
  2656 ;;      Temps:          2       0       0       0       0       0       0       0       0       0       0       0       
      +0       0       0       0       0       0       0       0       0       0       0       0       0       0       0       
      +0       0       0       0       0       0
  2657 ;;      Totals:         2       0       0       0       0       0       0       0       0       0       0       0       
      +0       0       0       0       0       0       0       0       0       0       0       0       0       0       0       
      +0       0       0       0       0       0
  2658 ;;Total ram usage:        2 bytes
  2659 ;; Hardware stack levels used: 1
  2660 ;; Hardware stack levels required when called: 4
  2661 ;; This function calls:
  2662 ;;		_TMR0_OverflowCallbackRegister
  2663 ;; This function is called by:
  2664 ;;		_SYSTEM_Initialize
  2665 ;; This function uses a non-reentrant model
  2666 ;;
  2667                           
  2668                           	psect	text25
  2669   002A3A                     __ptext25:
  2670                           	callstack 0
  2671   002A3A                     _TMR0_Initialize:
  2672                           	callstack 121
  2673                           
  2674                           ; BSR set to: 0
  2675                           ;mcc_generated_files/timer/src/tmr0.c: 58:     TMR0H = 0xB;
  2676                           
  2677                           ; BSR set to: 2
  2678                           ;incstack = 0
  2679   002A3A  0E0B               	movlw	11
  2680   002A3C  0103               	movlb	3	; () banked
  2681   002A3E  6F19               	movwf	25,b	;volatile
  2682                           
  2683                           ;mcc_generated_files/timer/src/tmr0.c: 61:     TMR0L = 0xDC;
  2684   002A40  0EDC               	movlw	220
  2685   002A42  6F18               	movwf	24,b	;volatile
  2686                           
  2687                           ;mcc_generated_files/timer/src/tmr0.c: 64:     T0CON1 = 0x48;
  2688   002A44  0E48               	movlw	72
  2689   002A46  6F1B               	movwf	27,b	;volatile
  2690                           
  2691                           ;mcc_generated_files/timer/src/tmr0.c: 67:     timerTMR0ReloadVal16bit = ((uint16_t)TMR0
      +                          H << 8) | TMR0L;
  2692   002A48  5119               	movf	25,w,b	;volatile
  2693   002A4A  6E4F               	movwf	??_TMR0_Initialize^(0+1280),c
  2694   002A4C  5118               	movf	24,w,b	;volatile
  2695   002A4E  6E33               	movwf	_timerTMR0ReloadVal16bit^(0+1280),c	;volatile
  2696   002A50  C54F  F534         	movff	??_TMR0_Initialize,_timerTMR0ReloadVal16bit+1	;volatile
  2697                           
  2698                           ; BSR set to: 3
  2699                           ;mcc_generated_files/timer/src/tmr0.c: 70:     TMR0_OverflowCallbackRegister(TMR0_Defaul
      +                          tOverflowCallback);
  2700   002A54  0E54               	movlw	low _TMR0_DefaultOverflowCallback
  2701   002A56  6E4C               	movwf	TMR0_OverflowCallbackRegister@CallbackHandler^(0+1280),c
  2702   002A58  0E2E               	movlw	high _TMR0_DefaultOverflowCallback
  2703   002A5A  6E4D               	movwf	(TMR0_OverflowCallbackRegister@CallbackHandler+1)^(0+1280),c
  2704   002A5C  0E00               	movlw	low (_TMR0_DefaultOverflowCallback shr (0+16))
  2705   002A5E  6E4E               	movwf	(TMR0_OverflowCallbackRegister@CallbackHandler+2)^(0+1280),c
  2706   002A60  ECD9  F016         	call	_TMR0_OverflowCallbackRegister	;wreg free
  2707                           
  2708                           ;mcc_generated_files/timer/src/tmr0.c: 73:     PIR3bits.TMR0IF = 0;
  2709   002A64  9EB1               	bcf	177,7,c	;volatile
  2710                           
  2711                           ;mcc_generated_files/timer/src/tmr0.c: 76:     PIE3bits.TMR0IE = 1;
  2712   002A66  8EA1               	bsf	161,7,c	;volatile
  2713                           
  2714                           ;mcc_generated_files/timer/src/tmr0.c: 79:     T0CON0 = 0x90;
  2715   002A68  0E90               	movlw	144
  2716   002A6A  0103               	movlb	3	; () banked
  2717   002A6C  6F1A               	movwf	26,b	;volatile
  2718                           
  2719                           ; BSR set to: 3
  2720   002A6E  0012               	return		;funcret
  2721   002A70                     __end_of_TMR0_Initialize:
  2722                           	callstack 0
  2723                           
  2724 ;; *************** function _TMR0_OverflowCallbackRegister *****************
  2725 ;; Defined at:
  2726 ;;		line 136 in file "mcc_generated_files/timer/src/tmr0.c"
  2727 ;; Parameters:    Size  Location     Type
  2728 ;;  CallbackHand    3   13[COMRAM] PTR FTN()void 
  2729 ;;		 -> tmr0Isr(1), TMR0_DefaultOverflowCallback(1), 
  2730 ;; Auto vars:     Size  Location     Type
  2731 ;;		None
  2732 ;; Return value:  Size  Location     Type
  2733 ;;                  1    wreg      void 
  2734 ;; Registers used:
  2735 ;;		wreg, status,2, status,0
  2736 ;; Tracked objects:
  2737 ;;		On entry : 3C/0
  2738 ;;		On exit  : 3C/0
  2739 ;;		Unchanged: 3C/0
  2740 ;; Data sizes:     COMRAM   BANK5   BANK6   BANK7   BANK8   BANK9  BANK10  BANK11  BANK12  BANK13  BANK14  BANK15  BANK1
      +6  BANK17  BANK18  BANK19  BANK20  BANK21  BANK22  BANK23  BANK24  BANK25  BANK26  BANK27  BANK28  BANK29  BANK30  BANK3
      +1  BANK32  BANK33  BANK34  BANK35  BANK36
  2741 ;;      Params:         3       0       0       0       0       0       0       0       0       0       0       0       
      +0       0       0       0       0       0       0       0       0       0       0       0       0       0       0       
      +0       0       0       0       0       0
  2742 ;;      Locals:         0       0       0       0       0       0       0       0       0       0       0       0       
      +0       0       0       0       0       0       0       0       0       0       0       0       0       0       0       
      +0       0       0       0       0       0
  2743 ;;      Temps:          0       0       0       0       0       0       0       0       0       0       0       0       
      +0       0       0       0       0       0       0       0       0       0       0       0       0       0       0       
      +0       0       0       0       0       0
  2744 ;;      Totals:         3       0       0       0       0       0       0       0       0       0       0       0       
      +0       0       0       0       0       0       0       0       0       0       0       0       0       0       0       
      +0       0       0       0       0       0
  2745 ;;Total ram usage:        3 bytes
  2746 ;; Hardware stack levels used: 1
  2747 ;; Hardware stack levels required when called: 3
  2748 ;; This function calls:
  2749 ;;		Nothing
  2750 ;; This function is called by:
  2751 ;;		_TMR0_Initialize
  2752 ;;		_main
  2753 ;; This function uses a non-reentrant model
  2754 ;;
  2755                           
  2756                           	psect	text26
  2757   002DB2                     __ptext26:
  2758                           	callstack 0
  2759   002DB2                     _TMR0_OverflowCallbackRegister:
  2760                           	callstack 123
  2761                           
  2762                           ;mcc_generated_files/timer/src/tmr0.c: 136: void TMR0_OverflowCallbackRegister(void (* C
      +                          allbackHandler)(void));mcc_generated_files/timer/src/tmr0.c: 137: {;mcc_generated_files/
      +                          timer/src/tmr0.c: 138:     TMR0_OverflowCallback = CallbackHandler;
  2763                           
  2764                           ; BSR set to: 3
  2765                           ;incstack = 0
  2766   002DB2  C54C  F559         	movff	TMR0_OverflowCallbackRegister@CallbackHandler,_TMR0_OverflowCallback
  2767   002DB6  C54D  F55A         	movff	TMR0_OverflowCallbackRegister@CallbackHandler+1,_TMR0_OverflowCallback+1
  2768   002DBA  C54E  F55B         	movff	TMR0_OverflowCallbackRegister@CallbackHandler+2,_TMR0_OverflowCallback+2
  2769   002DBE  0012               	return		;funcret
  2770   002DC0                     __end_of_TMR0_OverflowCallbackRegister:
  2771                           	callstack 0
  2772                           
  2773 ;; *************** function _SystemArbiter_Initialize *****************
  2774 ;; Defined at:
  2775 ;;		line 89 in file "mcc_generated_files/system/src/system.c"
  2776 ;; Parameters:    Size  Location     Type
  2777 ;;		None
  2778 ;; Auto vars:     Size  Location     Type
  2779 ;;		None
  2780 ;; Return value:  Size  Location     Type
  2781 ;;                  1    wreg      void 
  2782 ;; Registers used:
  2783 ;;		wreg, status,2
  2784 ;; Tracked objects:
  2785 ;;		On entry : 3C/2
  2786 ;;		On exit  : 3F/0
  2787 ;;		Unchanged: 0/0
  2788 ;; Data sizes:     COMRAM   BANK5   BANK6   BANK7   BANK8   BANK9  BANK10  BANK11  BANK12  BANK13  BANK14  BANK15  BANK1
      +6  BANK17  BANK18  BANK19  BANK20  BANK21  BANK22  BANK23  BANK24  BANK25  BANK26  BANK27  BANK28  BANK29  BANK30  BANK3
      +1  BANK32  BANK33  BANK34  BANK35  BANK36
  2789 ;;      Params:         0       0       0       0       0       0       0       0       0       0       0       0       
      +0       0       0       0       0       0       0       0       0       0       0       0       0       0       0       
      +0       0       0       0       0       0
  2790 ;;      Locals:         0       0       0       0       0       0       0       0       0       0       0       0       
      +0       0       0       0       0       0       0       0       0       0       0       0       0       0       0       
      +0       0       0       0       0       0
  2791 ;;      Temps:          0       0       0       0       0       0       0       0       0       0       0       0       
      +0       0       0       0       0       0       0       0       0       0       0       0       0       0       0       
      +0       0       0       0       0       0
  2792 ;;      Totals:         0       0       0       0       0       0       0       0       0       0       0       0       
      +0       0       0       0       0       0       0       0       0       0       0       0       0       0       0       
      +0       0       0       0       0       0
  2793 ;;Total ram usage:        0 bytes
  2794 ;; Hardware stack levels used: 1
  2795 ;; Hardware stack levels required when called: 3
  2796 ;; This function calls:
  2797 ;;		Nothing
  2798 ;; This function is called by:
  2799 ;;		_SYSTEM_Initialize
  2800 ;; This function uses a non-reentrant model
  2801 ;;
  2802                           
  2803                           	psect	text27
  2804   002DC0                     __ptext27:
  2805                           	callstack 0
  2806   002DC0                     _SystemArbiter_Initialize:
  2807                           	callstack 122
  2808                           
  2809                           ;mcc_generated_files/system/src/system.c: 92:     PRLOCK = 0x55;
  2810                           
  2811                           ;incstack = 0
  2812   002DC0  0E55               	movlw	85
  2813   002DC2  0100               	movlb	0	; () banked
  2814   002DC4  6FB4               	movwf	180,b	;volatile
  2815                           
  2816                           ;mcc_generated_files/system/src/system.c: 93:     PRLOCK = 0xAA;
  2817   002DC6  0EAA               	movlw	170
  2818   002DC8  6FB4               	movwf	180,b	;volatile
  2819                           
  2820                           ; BSR set to: 0
  2821                           ;mcc_generated_files/system/src/system.c: 94:     PRLOCKbits.PRLOCKED = 1;
  2822   002DCA  81B4               	bsf	180,0,b	;volatile
  2823                           
  2824                           ; BSR set to: 0
  2825   002DCC  0012               	return		;funcret
  2826   002DCE                     __end_of_SystemArbiter_Initialize:
  2827                           	callstack 0
  2828                           
  2829 ;; *************** function _PIN_MANAGER_Initialize *****************
  2830 ;; Defined at:
  2831 ;;		line 38 in file "mcc_generated_files/system/src/pins.c"
  2832 ;; Parameters:    Size  Location     Type
  2833 ;;		None
  2834 ;; Auto vars:     Size  Location     Type
  2835 ;;		None
  2836 ;; Return value:  Size  Location     Type
  2837 ;;                  1    wreg      void 
  2838 ;; Registers used:
  2839 ;;		wreg, status,2
  2840 ;; Tracked objects:
  2841 ;;		On entry : 3F/0
  2842 ;;		On exit  : 3F/4
  2843 ;;		Unchanged: 0/0
  2844 ;; Data sizes:     COMRAM   BANK5   BANK6   BANK7   BANK8   BANK9  BANK10  BANK11  BANK12  BANK13  BANK14  BANK15  BANK1
      +6  BANK17  BANK18  BANK19  BANK20  BANK21  BANK22  BANK23  BANK24  BANK25  BANK26  BANK27  BANK28  BANK29  BANK30  BANK3
      +1  BANK32  BANK33  BANK34  BANK35  BANK36
  2845 ;;      Params:         0       0       0       0       0       0       0       0       0       0       0       0       
      +0       0       0       0       0       0       0       0       0       0       0       0       0       0       0       
      +0       0       0       0       0       0
  2846 ;;      Locals:         0       0       0       0       0       0       0       0       0       0       0       0       
      +0       0       0       0       0       0       0       0       0       0       0       0       0       0       0       
      +0       0       0       0       0       0
  2847 ;;      Temps:          0       0       0       0       0       0       0       0       0       0       0       0       
      +0       0       0       0       0       0       0       0       0       0       0       0       0       0       0       
      +0       0       0       0       0       0
  2848 ;;      Totals:         0       0       0       0       0       0       0       0       0       0       0       0       
      +0       0       0       0       0       0       0       0       0       0       0       0       0       0       0       
      +0       0       0       0       0       0
  2849 ;;Total ram usage:        0 bytes
  2850 ;; Hardware stack levels used: 1
  2851 ;; Hardware stack levels required when called: 3
  2852 ;; This function calls:
  2853 ;;		Nothing
  2854 ;; This function is called by:
  2855 ;;		_SYSTEM_Initialize
  2856 ;; This function uses a non-reentrant model
  2857 ;;
  2858                           
  2859                           	psect	text28
  2860   002656                     __ptext28:
  2861                           	callstack 0
  2862   002656                     _PIN_MANAGER_Initialize:
  2863                           	callstack 122
  2864                           
  2865                           ; BSR set to: 0
  2866                           ;mcc_generated_files/system/src/pins.c: 43:     LATA = 0x4F;
  2867                           
  2868                           ; BSR set to: 0
  2869                           ;incstack = 0
  2870   002656  0E4F               	movlw	79
  2871   002658  6EBE               	movwf	190,c	;volatile
  2872                           
  2873                           ;mcc_generated_files/system/src/pins.c: 44:     LATB = 0x0;
  2874   00265A  0E00               	movlw	0
  2875   00265C  6EBF               	movwf	191,c	;volatile
  2876                           
  2877                           ;mcc_generated_files/system/src/pins.c: 45:     LATC = 0x0;
  2878   00265E  0E00               	movlw	0
  2879   002660  6EC0               	movwf	192,c	;volatile
  2880                           
  2881                           ;mcc_generated_files/system/src/pins.c: 46:     LATD = 0x0;
  2882   002662  0E00               	movlw	0
  2883   002664  6EC1               	movwf	193,c	;volatile
  2884                           
  2885                           ;mcc_generated_files/system/src/pins.c: 47:     LATE = 0x0;
  2886   002666  0E00               	movlw	0
  2887   002668  6EC2               	movwf	194,c	;volatile
  2888                           
  2889                           ;mcc_generated_files/system/src/pins.c: 52:     TRISA = 0xB0;
  2890   00266A  0EB0               	movlw	176
  2891   00266C  6EC6               	movwf	198,c	;volatile
  2892                           
  2893                           ; BSR set to: 0
  2894                           ;mcc_generated_files/system/src/pins.c: 53:     TRISB = 0xFF;
  2895   00266E  68C7               	setf	199,c	;volatile
  2896                           
  2897                           ; BSR set to: 0
  2898                           ;mcc_generated_files/system/src/pins.c: 54:     TRISC = 0xFF;
  2899   002670  68C8               	setf	200,c	;volatile
  2900                           
  2901                           ; BSR set to: 0
  2902                           ;mcc_generated_files/system/src/pins.c: 55:     TRISD = 0xFF;
  2903   002672  68C9               	setf	201,c	;volatile
  2904                           
  2905                           ;mcc_generated_files/system/src/pins.c: 56:     TRISE = 0xF;
  2906   002674  0E0F               	movlw	15
  2907   002676  6ECA               	movwf	202,c	;volatile
  2908                           
  2909                           ;mcc_generated_files/system/src/pins.c: 61:     ANSELA = 0x30;
  2910   002678  0E30               	movlw	48
  2911   00267A  0104               	movlb	4	; () banked
  2912   00267C  6F00               	movwf	0,b	;volatile
  2913                           
  2914                           ;mcc_generated_files/system/src/pins.c: 62:     ANSELB = 0xFE;
  2915   00267E  0EFE               	movlw	254
  2916   002680  6F08               	movwf	8,b	;volatile
  2917                           
  2918                           ; BSR set to: 4
  2919                           ;mcc_generated_files/system/src/pins.c: 63:     ANSELC = 0xFF;
  2920   002682  6910               	setf	16,b	;volatile
  2921                           
  2922                           ; BSR set to: 4
  2923                           ;mcc_generated_files/system/src/pins.c: 64:     ANSELD = 0xFF;
  2924   002684  6918               	setf	24,b	;volatile
  2925                           
  2926                           ;mcc_generated_files/system/src/pins.c: 65:     ANSELE = 0x7;
  2927   002686  0E07               	movlw	7
  2928   002688  6F20               	movwf	32,b	;volatile
  2929                           
  2930                           ;mcc_generated_files/system/src/pins.c: 70:     WPUA = 0x0;
  2931   00268A  0E00               	movlw	0
  2932   00268C  6F01               	movwf	1,b	;volatile
  2933                           
  2934                           ;mcc_generated_files/system/src/pins.c: 71:     WPUB = 0x1;
  2935   00268E  0E01               	movlw	1
  2936   002690  6F09               	movwf	9,b	;volatile
  2937                           
  2938                           ;mcc_generated_files/system/src/pins.c: 72:     WPUC = 0x0;
  2939   002692  0E00               	movlw	0
  2940   002694  6F11               	movwf	17,b	;volatile
  2941                           
  2942                           ;mcc_generated_files/system/src/pins.c: 73:     WPUD = 0x0;
  2943   002696  0E00               	movlw	0
  2944   002698  6F19               	movwf	25,b	;volatile
  2945                           
  2946                           ;mcc_generated_files/system/src/pins.c: 74:     WPUE = 0x0;
  2947   00269A  0E00               	movlw	0
  2948   00269C  6F21               	movwf	33,b	;volatile
  2949                           
  2950                           ;mcc_generated_files/system/src/pins.c: 79:     ODCONA = 0x0;
  2951   00269E  0E00               	movlw	0
  2952   0026A0  6F02               	movwf	2,b	;volatile
  2953                           
  2954                           ;mcc_generated_files/system/src/pins.c: 80:     ODCONB = 0x0;
  2955   0026A2  0E00               	movlw	0
  2956   0026A4  6F0A               	movwf	10,b	;volatile
  2957                           
  2958                           ;mcc_generated_files/system/src/pins.c: 81:     ODCONC = 0x0;
  2959   0026A6  0E00               	movlw	0
  2960   0026A8  6F12               	movwf	18,b	;volatile
  2961                           
  2962                           ;mcc_generated_files/system/src/pins.c: 82:     ODCOND = 0x0;
  2963   0026AA  0E00               	movlw	0
  2964   0026AC  6F1A               	movwf	26,b	;volatile
  2965                           
  2966                           ;mcc_generated_files/system/src/pins.c: 83:     ODCONE = 0x0;
  2967   0026AE  0E00               	movlw	0
  2968   0026B0  6F22               	movwf	34,b	;volatile
  2969                           
  2970                           ; BSR set to: 4
  2971                           ;mcc_generated_files/system/src/pins.c: 88:     SLRCONA = 0xFF;
  2972   0026B2  6903               	setf	3,b	;volatile
  2973                           
  2974                           ; BSR set to: 4
  2975                           ;mcc_generated_files/system/src/pins.c: 89:     SLRCONB = 0xFF;
  2976   0026B4  690B               	setf	11,b	;volatile
  2977                           
  2978                           ; BSR set to: 4
  2979                           ;mcc_generated_files/system/src/pins.c: 90:     SLRCONC = 0xFF;
  2980   0026B6  6913               	setf	19,b	;volatile
  2981                           
  2982                           ; BSR set to: 4
  2983                           ;mcc_generated_files/system/src/pins.c: 91:     SLRCOND = 0xFF;
  2984   0026B8  691B               	setf	27,b	;volatile
  2985                           
  2986                           ;mcc_generated_files/system/src/pins.c: 92:     SLRCONE = 0x7;
  2987   0026BA  0E07               	movlw	7
  2988   0026BC  6F23               	movwf	35,b	;volatile
  2989                           
  2990                           ; BSR set to: 4
  2991                           ;mcc_generated_files/system/src/pins.c: 97:     INLVLA = 0xFF;
  2992   0026BE  6904               	setf	4,b	;volatile
  2993                           
  2994                           ; BSR set to: 4
  2995                           ;mcc_generated_files/system/src/pins.c: 98:     INLVLB = 0xFF;
  2996   0026C0  690C               	setf	12,b	;volatile
  2997                           
  2998                           ; BSR set to: 4
  2999                           ;mcc_generated_files/system/src/pins.c: 99:     INLVLC = 0xFF;
  3000   0026C2  6914               	setf	20,b	;volatile
  3001                           
  3002                           ; BSR set to: 4
  3003                           ;mcc_generated_files/system/src/pins.c: 100:     INLVLD = 0xFF;
  3004   0026C4  691C               	setf	28,b	;volatile
  3005                           
  3006                           ;mcc_generated_files/system/src/pins.c: 101:     INLVLE = 0xF;
  3007   0026C6  0E0F               	movlw	15
  3008   0026C8  6F24               	movwf	36,b	;volatile
  3009                           
  3010                           ;mcc_generated_files/system/src/pins.c: 106:     RB1I2C = 0x0;
  3011   0026CA  0E00               	movlw	0
  3012   0026CC  0102               	movlb	2	; () banked
  3013   0026CE  6F89               	movwf	137,b	;volatile
  3014                           
  3015                           ;mcc_generated_files/system/src/pins.c: 107:     RB2I2C = 0x0;
  3016   0026D0  0E00               	movlw	0
  3017   0026D2  6F88               	movwf	136,b	;volatile
  3018                           
  3019                           ;mcc_generated_files/system/src/pins.c: 108:     RC3I2C = 0x0;
  3020   0026D4  0E00               	movlw	0
  3021   0026D6  6F87               	movwf	135,b	;volatile
  3022                           
  3023                           ;mcc_generated_files/system/src/pins.c: 109:     RC4I2C = 0x0;
  3024   0026D8  0E00               	movlw	0
  3025   0026DA  6F86               	movwf	134,b	;volatile
  3026                           
  3027                           ;mcc_generated_files/system/src/pins.c: 113:     U3RXPPS = 0x7;
  3028   0026DC  0E07               	movlw	7
  3029   0026DE  6F76               	movwf	118,b	;volatile
  3030                           
  3031                           ;mcc_generated_files/system/src/pins.c: 114:     INT0PPS = 0x8;
  3032   0026E0  0E08               	movlw	8
  3033   0026E2  6F3E               	movwf	62,b	;volatile
  3034                           
  3035                           ;mcc_generated_files/system/src/pins.c: 115:     RA6PPS = 0x26;
  3036   0026E4  0E26               	movlw	38
  3037   0026E6  6F07               	movwf	7,b	;volatile
  3038                           
  3039                           ;mcc_generated_files/system/src/pins.c: 120:     IOCAP = 0x0;
  3040   0026E8  0E00               	movlw	0
  3041   0026EA  0104               	movlb	4	; () banked
  3042   0026EC  6F05               	movwf	5,b	;volatile
  3043                           
  3044                           ;mcc_generated_files/system/src/pins.c: 121:     IOCAN = 0x0;
  3045   0026EE  0E00               	movlw	0
  3046   0026F0  6F06               	movwf	6,b	;volatile
  3047                           
  3048                           ;mcc_generated_files/system/src/pins.c: 122:     IOCAF = 0x0;
  3049   0026F2  0E00               	movlw	0
  3050   0026F4  6F07               	movwf	7,b	;volatile
  3051                           
  3052                           ;mcc_generated_files/system/src/pins.c: 123:     IOCBP = 0x0;
  3053   0026F6  0E00               	movlw	0
  3054   0026F8  6F0D               	movwf	13,b	;volatile
  3055                           
  3056                           ;mcc_generated_files/system/src/pins.c: 124:     IOCBN = 0x0;
  3057   0026FA  0E00               	movlw	0
  3058   0026FC  6F0E               	movwf	14,b	;volatile
  3059                           
  3060                           ;mcc_generated_files/system/src/pins.c: 125:     IOCBF = 0x0;
  3061   0026FE  0E00               	movlw	0
  3062   002700  6F0F               	movwf	15,b	;volatile
  3063                           
  3064                           ;mcc_generated_files/system/src/pins.c: 126:     IOCCP = 0x0;
  3065   002702  0E00               	movlw	0
  3066   002704  6F15               	movwf	21,b	;volatile
  3067                           
  3068                           ;mcc_generated_files/system/src/pins.c: 127:     IOCCN = 0x0;
  3069   002706  0E00               	movlw	0
  3070   002708  6F16               	movwf	22,b	;volatile
  3071                           
  3072                           ;mcc_generated_files/system/src/pins.c: 128:     IOCCF = 0x0;
  3073   00270A  0E00               	movlw	0
  3074   00270C  6F17               	movwf	23,b	;volatile
  3075                           
  3076                           ;mcc_generated_files/system/src/pins.c: 129:     IOCEP = 0x0;
  3077   00270E  0E00               	movlw	0
  3078   002710  6F25               	movwf	37,b	;volatile
  3079                           
  3080                           ;mcc_generated_files/system/src/pins.c: 130:     IOCEN = 0x0;
  3081   002712  0E00               	movlw	0
  3082   002714  6F26               	movwf	38,b	;volatile
  3083                           
  3084                           ;mcc_generated_files/system/src/pins.c: 131:     IOCEF = 0x0;
  3085   002716  0E00               	movlw	0
  3086   002718  6F27               	movwf	39,b	;volatile
  3087                           
  3088                           ; BSR set to: 4
  3089   00271A  0012               	return		;funcret
  3090   00271C                     __end_of_PIN_MANAGER_Initialize:
  3091                           	callstack 0
  3092                           
  3093 ;; *************** function _NVM_Initialize *****************
  3094 ;; Defined at:
  3095 ;;		line 43 in file "mcc_generated_files/nvm/src/nvm.c"
  3096 ;; Parameters:    Size  Location     Type
  3097 ;;		None
  3098 ;; Auto vars:     Size  Location     Type
  3099 ;;		None
  3100 ;; Return value:  Size  Location     Type
  3101 ;;                  1    wreg      void 
  3102 ;; Registers used:
  3103 ;;		cstack
  3104 ;; Tracked objects:
  3105 ;;		On entry : 3F/0
  3106 ;;		On exit  : 3F/0
  3107 ;;		Unchanged: 0/0
  3108 ;; Data sizes:     COMRAM   BANK5   BANK6   BANK7   BANK8   BANK9  BANK10  BANK11  BANK12  BANK13  BANK14  BANK15  BANK1
      +6  BANK17  BANK18  BANK19  BANK20  BANK21  BANK22  BANK23  BANK24  BANK25  BANK26  BANK27  BANK28  BANK29  BANK30  BANK3
      +1  BANK32  BANK33  BANK34  BANK35  BANK36
  3109 ;;      Params:         0       0       0       0       0       0       0       0       0       0       0       0       
      +0       0       0       0       0       0       0       0       0       0       0       0       0       0       0       
      +0       0       0       0       0       0
  3110 ;;      Locals:         0       0       0       0       0       0       0       0       0       0       0       0       
      +0       0       0       0       0       0       0       0       0       0       0       0       0       0       0       
      +0       0       0       0       0       0
  3111 ;;      Temps:          0       0       0       0       0       0       0       0       0       0       0       0       
      +0       0       0       0       0       0       0       0       0       0       0       0       0       0       0       
      +0       0       0       0       0       0
  3112 ;;      Totals:         0       0       0       0       0       0       0       0       0       0       0       0       
      +0       0       0       0       0       0       0       0       0       0       0       0       0       0       0       
      +0       0       0       0       0       0
  3113 ;;Total ram usage:        0 bytes
  3114 ;; Hardware stack levels used: 1
  3115 ;; Hardware stack levels required when called: 4
  3116 ;; This function calls:
  3117 ;;		_NVM_StatusClear
  3118 ;; This function is called by:
  3119 ;;		_SYSTEM_Initialize
  3120 ;; This function uses a non-reentrant model
  3121 ;;
  3122                           
  3123                           	psect	text29
  3124   002E28                     __ptext29:
  3125                           	callstack 0
  3126   002E28                     _NVM_Initialize:
  3127                           	callstack 121
  3128                           
  3129                           ; BSR set to: 0
  3130                           ;mcc_generated_files/nvm/src/nvm.c: 45:     NVM_StatusClear();
  3131                           
  3132                           ; BSR set to: 4
  3133                           ;incstack = 0
  3134   002E28  EC21  F017         	call	_NVM_StatusClear	;wreg free
  3135                           
  3136                           ; BSR set to: 0
  3137   002E2C  0012               	return		;funcret
  3138   002E2E                     __end_of_NVM_Initialize:
  3139                           	callstack 0
  3140                           
  3141 ;; *************** function _NVM_StatusClear *****************
  3142 ;; Defined at:
  3143 ;;		line 65 in file "mcc_generated_files/nvm/src/nvm.c"
  3144 ;; Parameters:    Size  Location     Type
  3145 ;;		None
  3146 ;; Auto vars:     Size  Location     Type
  3147 ;;		None
  3148 ;; Return value:  Size  Location     Type
  3149 ;;                  1    wreg      void 
  3150 ;; Registers used:
  3151 ;;		None
  3152 ;; Tracked objects:
  3153 ;;		On entry : 3F/0
  3154 ;;		On exit  : 3F/0
  3155 ;;		Unchanged: 0/0
  3156 ;; Data sizes:     COMRAM   BANK5   BANK6   BANK7   BANK8   BANK9  BANK10  BANK11  BANK12  BANK13  BANK14  BANK15  BANK1
      +6  BANK17  BANK18  BANK19  BANK20  BANK21  BANK22  BANK23  BANK24  BANK25  BANK26  BANK27  BANK28  BANK29  BANK30  BANK3
      +1  BANK32  BANK33  BANK34  BANK35  BANK36
  3157 ;;      Params:         0       0       0       0       0       0       0       0       0       0       0       0       
      +0       0       0       0       0       0       0       0       0       0       0       0       0       0       0       
      +0       0       0       0       0       0
  3158 ;;      Locals:         0       0       0       0       0       0       0       0       0       0       0       0       
      +0       0       0       0       0       0       0       0       0       0       0       0       0       0       0       
      +0       0       0       0       0       0
  3159 ;;      Temps:          0       0       0       0       0       0       0       0       0       0       0       0       
      +0       0       0       0       0       0       0       0       0       0       0       0       0       0       0       
      +0       0       0       0       0       0
  3160 ;;      Totals:         0       0       0       0       0       0       0       0       0       0       0       0       
      +0       0       0       0       0       0       0       0       0       0       0       0       0       0       0       
      +0       0       0       0       0       0
  3161 ;;Total ram usage:        0 bytes
  3162 ;; Hardware stack levels used: 1
  3163 ;; Hardware stack levels required when called: 3
  3164 ;; This function calls:
  3165 ;;		Nothing
  3166 ;; This function is called by:
  3167 ;;		_NVM_Initialize
  3168 ;; This function uses a non-reentrant model
  3169 ;;
  3170                           
  3171                           	psect	text30
  3172   002E42                     __ptext30:
  3173                           	callstack 0
  3174   002E42                     _NVM_StatusClear:
  3175                           	callstack 121
  3176                           
  3177                           ; BSR set to: 0
  3178                           ;mcc_generated_files/nvm/src/nvm.c: 67:     NVMCON1bits.WRERR = 0;
  3179                           
  3180                           ; BSR set to: 0
  3181                           ;incstack = 0
  3182   002E42  9F41               	bcf	65,7,b	;volsfr
  3183                           
  3184                           ; BSR set to: 0
  3185   002E44  0012               	return		;funcret
  3186   002E46                     __end_of_NVM_StatusClear:
  3187                           	callstack 0
  3188                           
  3189 ;; *************** function _INTERRUPT_Initialize *****************
  3190 ;; Defined at:
  3191 ;;		line 42 in file "mcc_generated_files/system/src/interrupt.c"
  3192 ;; Parameters:    Size  Location     Type
  3193 ;;		None
  3194 ;; Auto vars:     Size  Location     Type
  3195 ;;  state           1   16[COMRAM] _Bool 
  3196 ;; Return value:  Size  Location     Type
  3197 ;;                  1    wreg      void 
  3198 ;; Registers used:
  3199 ;;		wreg, status,2, status,0, cstack
  3200 ;; Tracked objects:
  3201 ;;		On entry : 3F/2
  3202 ;;		On exit  : 3C/0
  3203 ;;		Unchanged: 0/0
  3204 ;; Data sizes:     COMRAM   BANK5   BANK6   BANK7   BANK8   BANK9  BANK10  BANK11  BANK12  BANK13  BANK14  BANK15  BANK1
      +6  BANK17  BANK18  BANK19  BANK20  BANK21  BANK22  BANK23  BANK24  BANK25  BANK26  BANK27  BANK28  BANK29  BANK30  BANK3
      +1  BANK32  BANK33  BANK34  BANK35  BANK36
  3205 ;;      Params:         0       0       0       0       0       0       0       0       0       0       0       0       
      +0       0       0       0       0       0       0       0       0       0       0       0       0       0       0       
      +0       0       0       0       0       0
  3206 ;;      Locals:         1       0       0       0       0       0       0       0       0       0       0       0       
      +0       0       0       0       0       0       0       0       0       0       0       0       0       0       0       
      +0       0       0       0       0       0
  3207 ;;      Temps:          0       0       0       0       0       0       0       0       0       0       0       0       
      +0       0       0       0       0       0       0       0       0       0       0       0       0       0       0       
      +0       0       0       0       0       0
  3208 ;;      Totals:         1       0       0       0       0       0       0       0       0       0       0       0       
      +0       0       0       0       0       0       0       0       0       0       0       0       0       0       0       
      +0       0       0       0       0       0
  3209 ;;Total ram usage:        1 bytes
  3210 ;; Hardware stack levels used: 1
  3211 ;; Hardware stack levels required when called: 4
  3212 ;; This function calls:
  3213 ;;		_INT0_SetInterruptHandler
  3214 ;;		_INT1_SetInterruptHandler
  3215 ;;		_INT2_SetInterruptHandler
  3216 ;; This function is called by:
  3217 ;;		_SYSTEM_Initialize
  3218 ;; This function uses a non-reentrant model
  3219 ;;
  3220                           
  3221                           	psect	text31
  3222   0027C8                     __ptext31:
  3223                           	callstack 0
  3224   0027C8                     _INTERRUPT_Initialize:
  3225                           	callstack 121
  3226                           
  3227                           ; BSR set to: 2
  3228                           ;mcc_generated_files/system/src/interrupt.c: 44:     INTCON0bits.IPEN = 1;
  3229                           
  3230                           ; BSR set to: 0
  3231                           ;incstack = 0
  3232   0027C8  8AD6               	bsf	214,5,c	;volatile
  3233                           
  3234                           ; BSR set to: 2
  3235                           ;mcc_generated_files/system/src/interrupt.c: 46:     _Bool state = (unsigned char)GIE;
  3236   0027CA  0E00               	movlw	0
  3237   0027CC  BED6               	btfsc	1238,7,c	;volatile
  3238   0027CE  0E01               	movlw	1
  3239   0027D0  6E4F               	movwf	INTERRUPT_Initialize@state^(0+1280),c
  3240                           
  3241                           ; BSR set to: 2
  3242                           ;mcc_generated_files/system/src/interrupt.c: 47:     GIE = 0;
  3243   0027D2  9ED6               	bcf	1238,7,c	;volatile
  3244                           
  3245                           ;mcc_generated_files/system/src/interrupt.c: 48:     IVTLOCK = 0x55;
  3246   0027D4  0E55               	movlw	85
  3247   0027D6  0104               	movlb	4	; () banked
  3248   0027D8  6F59               	movwf	89,b	;volatile
  3249                           
  3250                           ;mcc_generated_files/system/src/interrupt.c: 49:     IVTLOCK = 0xAA;
  3251   0027DA  0EAA               	movlw	170
  3252   0027DC  6F59               	movwf	89,b	;volatile
  3253                           
  3254                           ; BSR set to: 4
  3255                           ;mcc_generated_files/system/src/interrupt.c: 50:     IVTLOCKbits.IVTLOCKED = 0x00;
  3256   0027DE  9159               	bcf	89,0,b	;volatile
  3257                           
  3258                           ;mcc_generated_files/system/src/interrupt.c: 52:     IVTBASEU = 0;
  3259   0027E0  0E00               	movlw	0
  3260   0027E2  6F5F               	movwf	95,b	;volatile
  3261                           
  3262                           ;mcc_generated_files/system/src/interrupt.c: 53:     IVTBASEH = 0;
  3263   0027E4  0E00               	movlw	0
  3264   0027E6  6F5E               	movwf	94,b	;volatile
  3265                           
  3266                           ;mcc_generated_files/system/src/interrupt.c: 54:     IVTBASEL = 8;
  3267   0027E8  0E08               	movlw	8
  3268   0027EA  6F5D               	movwf	93,b	;volatile
  3269                           
  3270                           ;mcc_generated_files/system/src/interrupt.c: 56:     IVTLOCK = 0x55;
  3271   0027EC  0E55               	movlw	85
  3272   0027EE  6F59               	movwf	89,b	;volatile
  3273                           
  3274                           ;mcc_generated_files/system/src/interrupt.c: 57:     IVTLOCK = 0xAA;
  3275   0027F0  0EAA               	movlw	170
  3276   0027F2  6F59               	movwf	89,b	;volatile
  3277                           
  3278                           ; BSR set to: 4
  3279                           ;mcc_generated_files/system/src/interrupt.c: 58:     IVTLOCKbits.IVTLOCKED = 0x01;
  3280   0027F4  8159               	bsf	89,0,b	;volatile
  3281                           
  3282                           ; BSR set to: 4
  3283                           ;mcc_generated_files/system/src/interrupt.c: 60:     GIE = state;
  3284   0027F6  B04F               	btfsc	INTERRUPT_Initialize@state^(0+1280),0,c
  3285   0027F8  D002               	bra	u485
  3286   0027FA  9ED6               	bcf	1238,7,c	;volatile
  3287   0027FC  D001               	bra	u486
  3288   0027FE                     u485:
  3289   0027FE  8ED6               	bsf	1238,7,c	;volatile
  3290   002800                     u486:
  3291                           
  3292                           ;mcc_generated_files/system/src/interrupt.c: 62:     IPR1bits.INT0IP = 1;
  3293   002800  0103               	movlb	3	; () banked
  3294   002802  8163               	bsf	99,0,b	;volatile
  3295                           
  3296                           ; BSR set to: 3
  3297                           ;mcc_generated_files/system/src/interrupt.c: 63:     IPR3bits.TMR0IP = 1;
  3298   002804  8F65               	bsf	101,7,b	;volatile
  3299                           
  3300                           ; BSR set to: 3
  3301                           ;mcc_generated_files/system/src/interrupt.c: 64:     IPR9bits.U3RXIP = 1;
  3302   002806  816B               	bsf	107,0,b	;volatile
  3303                           
  3304                           ; BSR set to: 3
  3305                           ;mcc_generated_files/system/src/interrupt.c: 65:     IPR9bits.U3TXIP = 1;
  3306   002808  836B               	bsf	107,1,b	;volatile
  3307                           
  3308                           ; BSR set to: 3
  3309                           ;mcc_generated_files/system/src/interrupt.c: 69:     (PIR1bits.INT0IF = 0);
  3310   00280A  90AF               	bcf	175,0,c	;volatile
  3311                           
  3312                           ; BSR set to: 3
  3313                           ;mcc_generated_files/system/src/interrupt.c: 70:     (INTCON0bits.INT0EDG = 0);
  3314   00280C  90D6               	bcf	214,0,c	;volatile
  3315                           
  3316                           ; BSR set to: 3
  3317                           ;mcc_generated_files/system/src/interrupt.c: 72:     INT0_SetInterruptHandler(INT0_Defau
      +                          ltInterruptHandler);
  3318   00280E  0E4E               	movlw	low _INT0_DefaultInterruptHandler
  3319   002810  6E4C               	movwf	INT0_SetInterruptHandler@InterruptHandler^(0+1280),c
  3320   002812  0E2E               	movlw	high _INT0_DefaultInterruptHandler
  3321   002814  6E4D               	movwf	(INT0_SetInterruptHandler@InterruptHandler+1)^(0+1280),c
  3322   002816  0E00               	movlw	low (_INT0_DefaultInterruptHandler shr (0+16))
  3323   002818  6E4E               	movwf	(INT0_SetInterruptHandler@InterruptHandler+2)^(0+1280),c
  3324   00281A  ECF5  F016         	call	_INT0_SetInterruptHandler	;wreg free
  3325                           
  3326                           ;mcc_generated_files/system/src/interrupt.c: 73:     (PIE1bits.INT0IE = 1);
  3327   00281E  809F               	bsf	159,0,c	;volatile
  3328                           
  3329                           ;mcc_generated_files/system/src/interrupt.c: 77:     (PIR6bits.INT1IF = 0);
  3330   002820  90B4               	bcf	180,0,c	;volatile
  3331                           
  3332                           ;mcc_generated_files/system/src/interrupt.c: 78:     (INTCON0bits.INT1EDG = 1);
  3333   002822  82D6               	bsf	214,1,c	;volatile
  3334                           
  3335                           ;mcc_generated_files/system/src/interrupt.c: 80:     INT1_SetInterruptHandler(INT1_Defau
      +                          ltInterruptHandler);
  3336   002824  0E50               	movlw	low _INT1_DefaultInterruptHandler
  3337   002826  6E4C               	movwf	INT1_SetInterruptHandler@InterruptHandler^(0+1280),c
  3338   002828  0E2E               	movlw	high _INT1_DefaultInterruptHandler
  3339   00282A  6E4D               	movwf	(INT1_SetInterruptHandler@InterruptHandler+1)^(0+1280),c
  3340   00282C  0E00               	movlw	low (_INT1_DefaultInterruptHandler shr (0+16))
  3341   00282E  6E4E               	movwf	(INT1_SetInterruptHandler@InterruptHandler+2)^(0+1280),c
  3342   002830  ECEE  F016         	call	_INT1_SetInterruptHandler	;wreg free
  3343                           
  3344                           ;mcc_generated_files/system/src/interrupt.c: 85:     (PIR10bits.INT2IF = 0);
  3345   002834  90B8               	bcf	184,0,c	;volatile
  3346                           
  3347                           ;mcc_generated_files/system/src/interrupt.c: 86:     (INTCON0bits.INT2EDG = 1);
  3348   002836  84D6               	bsf	214,2,c	;volatile
  3349                           
  3350                           ;mcc_generated_files/system/src/interrupt.c: 88:     INT2_SetInterruptHandler(INT2_Defau
      +                          ltInterruptHandler);
  3351   002838  0E52               	movlw	low _INT2_DefaultInterruptHandler
  3352   00283A  6E4C               	movwf	INT2_SetInterruptHandler@InterruptHandler^(0+1280),c
  3353   00283C  0E2E               	movlw	high _INT2_DefaultInterruptHandler
  3354   00283E  6E4D               	movwf	(INT2_SetInterruptHandler@InterruptHandler+1)^(0+1280),c
  3355   002840  0E00               	movlw	low (_INT2_DefaultInterruptHandler shr (0+16))
  3356   002842  6E4E               	movwf	(INT2_SetInterruptHandler@InterruptHandler+2)^(0+1280),c
  3357   002844  ECE7  F016         	call	_INT2_SetInterruptHandler	;wreg free
  3358   002848  0012               	return		;funcret
  3359   00284A                     __end_of_INTERRUPT_Initialize:
  3360                           	callstack 0
  3361                           
  3362 ;; *************** function _INT2_SetInterruptHandler *****************
  3363 ;; Defined at:
  3364 ;;		line 192 in file "mcc_generated_files/system/src/interrupt.c"
  3365 ;; Parameters:    Size  Location     Type
  3366 ;;  InterruptHan    3   13[COMRAM] PTR FTN()void 
  3367 ;;		 -> INT2_DefaultInterruptHandler(1), 
  3368 ;; Auto vars:     Size  Location     Type
  3369 ;;		None
  3370 ;; Return value:  Size  Location     Type
  3371 ;;                  1    wreg      void 
  3372 ;; Registers used:
  3373 ;;		wreg, status,2, status,0
  3374 ;; Tracked objects:
  3375 ;;		On entry : 3C/3
  3376 ;;		On exit  : 3C/0
  3377 ;;		Unchanged: 3C/0
  3378 ;; Data sizes:     COMRAM   BANK5   BANK6   BANK7   BANK8   BANK9  BANK10  BANK11  BANK12  BANK13  BANK14  BANK15  BANK1
      +6  BANK17  BANK18  BANK19  BANK20  BANK21  BANK22  BANK23  BANK24  BANK25  BANK26  BANK27  BANK28  BANK29  BANK30  BANK3
      +1  BANK32  BANK33  BANK34  BANK35  BANK36
  3379 ;;      Params:         3       0       0       0       0       0       0       0       0       0       0       0       
      +0       0       0       0       0       0       0       0       0       0       0       0       0       0       0       
      +0       0       0       0       0       0
  3380 ;;      Locals:         0       0       0       0       0       0       0       0       0       0       0       0       
      +0       0       0       0       0       0       0       0       0       0       0       0       0       0       0       
      +0       0       0       0       0       0
  3381 ;;      Temps:          0       0       0       0       0       0       0       0       0       0       0       0       
      +0       0       0       0       0       0       0       0       0       0       0       0       0       0       0       
      +0       0       0       0       0       0
  3382 ;;      Totals:         3       0       0       0       0       0       0       0       0       0       0       0       
      +0       0       0       0       0       0       0       0       0       0       0       0       0       0       0       
      +0       0       0       0       0       0
  3383 ;;Total ram usage:        3 bytes
  3384 ;; Hardware stack levels used: 1
  3385 ;; Hardware stack levels required when called: 3
  3386 ;; This function calls:
  3387 ;;		Nothing
  3388 ;; This function is called by:
  3389 ;;		_INTERRUPT_Initialize
  3390 ;; This function uses a non-reentrant model
  3391 ;;
  3392                           
  3393                           	psect	text32
  3394   002DCE                     __ptext32:
  3395                           	callstack 0
  3396   002DCE                     _INT2_SetInterruptHandler:
  3397                           	callstack 121
  3398                           
  3399                           ;mcc_generated_files/system/src/interrupt.c: 193:     INT2_InterruptHandler = InterruptH
      +                          andler;
  3400                           
  3401                           ;incstack = 0
  3402   002DCE  C54C  F528         	movff	INT2_SetInterruptHandler@InterruptHandler,_INT2_InterruptHandler
  3403   002DD2  C54D  F529         	movff	INT2_SetInterruptHandler@InterruptHandler+1,_INT2_InterruptHandler+1
  3404   002DD6  C54E  F52A         	movff	INT2_SetInterruptHandler@InterruptHandler+2,_INT2_InterruptHandler+2
  3405   002DDA  0012               	return		;funcret
  3406   002DDC                     __end_of_INT2_SetInterruptHandler:
  3407                           	callstack 0
  3408                           
  3409 ;; *************** function _INT1_SetInterruptHandler *****************
  3410 ;; Defined at:
  3411 ;;		line 158 in file "mcc_generated_files/system/src/interrupt.c"
  3412 ;; Parameters:    Size  Location     Type
  3413 ;;  InterruptHan    3   13[COMRAM] PTR FTN()void 
  3414 ;;		 -> INT1_DefaultInterruptHandler(1), 
  3415 ;; Auto vars:     Size  Location     Type
  3416 ;;		None
  3417 ;; Return value:  Size  Location     Type
  3418 ;;                  1    wreg      void 
  3419 ;; Registers used:
  3420 ;;		wreg, status,2, status,0
  3421 ;; Tracked objects:
  3422 ;;		On entry : 3C/3
  3423 ;;		On exit  : 3C/0
  3424 ;;		Unchanged: 3C/0
  3425 ;; Data sizes:     COMRAM   BANK5   BANK6   BANK7   BANK8   BANK9  BANK10  BANK11  BANK12  BANK13  BANK14  BANK15  BANK1
      +6  BANK17  BANK18  BANK19  BANK20  BANK21  BANK22  BANK23  BANK24  BANK25  BANK26  BANK27  BANK28  BANK29  BANK30  BANK3
      +1  BANK32  BANK33  BANK34  BANK35  BANK36
  3426 ;;      Params:         3       0       0       0       0       0       0       0       0       0       0       0       
      +0       0       0       0       0       0       0       0       0       0       0       0       0       0       0       
      +0       0       0       0       0       0
  3427 ;;      Locals:         0       0       0       0       0       0       0       0       0       0       0       0       
      +0       0       0       0       0       0       0       0       0       0       0       0       0       0       0       
      +0       0       0       0       0       0
  3428 ;;      Temps:          0       0       0       0       0       0       0       0       0       0       0       0       
      +0       0       0       0       0       0       0       0       0       0       0       0       0       0       0       
      +0       0       0       0       0       0
  3429 ;;      Totals:         3       0       0       0       0       0       0       0       0       0       0       0       
      +0       0       0       0       0       0       0       0       0       0       0       0       0       0       0       
      +0       0       0       0       0       0
  3430 ;;Total ram usage:        3 bytes
  3431 ;; Hardware stack levels used: 1
  3432 ;; Hardware stack levels required when called: 3
  3433 ;; This function calls:
  3434 ;;		Nothing
  3435 ;; This function is called by:
  3436 ;;		_INTERRUPT_Initialize
  3437 ;; This function uses a non-reentrant model
  3438 ;;
  3439                           
  3440                           	psect	text33
  3441   002DDC                     __ptext33:
  3442                           	callstack 0
  3443   002DDC                     _INT1_SetInterruptHandler:
  3444                           	callstack 121
  3445                           
  3446                           ;mcc_generated_files/system/src/interrupt.c: 159:     INT1_InterruptHandler = InterruptH
      +                          andler;
  3447                           
  3448                           ;incstack = 0
  3449   002DDC  C54C  F52B         	movff	INT1_SetInterruptHandler@InterruptHandler,_INT1_InterruptHandler
  3450   002DE0  C54D  F52C         	movff	INT1_SetInterruptHandler@InterruptHandler+1,_INT1_InterruptHandler+1
  3451   002DE4  C54E  F52D         	movff	INT1_SetInterruptHandler@InterruptHandler+2,_INT1_InterruptHandler+2
  3452   002DE8  0012               	return		;funcret
  3453   002DEA                     __end_of_INT1_SetInterruptHandler:
  3454                           	callstack 0
  3455                           
  3456 ;; *************** function _INT0_SetInterruptHandler *****************
  3457 ;; Defined at:
  3458 ;;		line 124 in file "mcc_generated_files/system/src/interrupt.c"
  3459 ;; Parameters:    Size  Location     Type
  3460 ;;  InterruptHan    3   13[COMRAM] PTR FTN()void 
  3461 ;;		 -> int0Isr(1), INT0_DefaultInterruptHandler(1), 
  3462 ;; Auto vars:     Size  Location     Type
  3463 ;;		None
  3464 ;; Return value:  Size  Location     Type
  3465 ;;                  1    wreg      void 
  3466 ;; Registers used:
  3467 ;;		wreg, status,2, status,0
  3468 ;; Tracked objects:
  3469 ;;		On entry : 3C/0
  3470 ;;		On exit  : 3C/0
  3471 ;;		Unchanged: 3C/0
  3472 ;; Data sizes:     COMRAM   BANK5   BANK6   BANK7   BANK8   BANK9  BANK10  BANK11  BANK12  BANK13  BANK14  BANK15  BANK1
      +6  BANK17  BANK18  BANK19  BANK20  BANK21  BANK22  BANK23  BANK24  BANK25  BANK26  BANK27  BANK28  BANK29  BANK30  BANK3
      +1  BANK32  BANK33  BANK34  BANK35  BANK36
  3473 ;;      Params:         3       0       0       0       0       0       0       0       0       0       0       0       
      +0       0       0       0       0       0       0       0       0       0       0       0       0       0       0       
      +0       0       0       0       0       0
  3474 ;;      Locals:         0       0       0       0       0       0       0       0       0       0       0       0       
      +0       0       0       0       0       0       0       0       0       0       0       0       0       0       0       
      +0       0       0       0       0       0
  3475 ;;      Temps:          0       0       0       0       0       0       0       0       0       0       0       0       
      +0       0       0       0       0       0       0       0       0       0       0       0       0       0       0       
      +0       0       0       0       0       0
  3476 ;;      Totals:         3       0       0       0       0       0       0       0       0       0       0       0       
      +0       0       0       0       0       0       0       0       0       0       0       0       0       0       0       
      +0       0       0       0       0       0
  3477 ;;Total ram usage:        3 bytes
  3478 ;; Hardware stack levels used: 1
  3479 ;; Hardware stack levels required when called: 3
  3480 ;; This function calls:
  3481 ;;		Nothing
  3482 ;; This function is called by:
  3483 ;;		_INTERRUPT_Initialize
  3484 ;;		_main
  3485 ;; This function uses a non-reentrant model
  3486 ;;
  3487                           
  3488                           	psect	text34
  3489   002DEA                     __ptext34:
  3490                           	callstack 0
  3491   002DEA                     _INT0_SetInterruptHandler:
  3492                           	callstack 121
  3493                           
  3494                           ;mcc_generated_files/system/src/interrupt.c: 125:     INT0_InterruptHandler = InterruptH
      +                          andler;
  3495                           
  3496                           ;incstack = 0
  3497   002DEA  C54C  F52E         	movff	INT0_SetInterruptHandler@InterruptHandler,_INT0_InterruptHandler
  3498   002DEE  C54D  F52F         	movff	INT0_SetInterruptHandler@InterruptHandler+1,_INT0_InterruptHandler+1
  3499   002DF2  C54E  F530         	movff	INT0_SetInterruptHandler@InterruptHandler+2,_INT0_InterruptHandler+2
  3500   002DF6  0012               	return		;funcret
  3501   002DF8                     __end_of_INT0_SetInterruptHandler:
  3502                           	callstack 0
  3503                           
  3504 ;; *************** function _DMA1_Initialize *****************
  3505 ;; Defined at:
  3506 ;;		line 45 in file "mcc_generated_files/dma/src/dma1.c"
  3507 ;; Parameters:    Size  Location     Type
  3508 ;;		None
  3509 ;; Auto vars:     Size  Location     Type
  3510 ;;		None
  3511 ;; Return value:  Size  Location     Type
  3512 ;;                  1    wreg      void 
  3513 ;; Registers used:
  3514 ;;		wreg, status,2
  3515 ;; Tracked objects:
  3516 ;;		On entry : 3F/0
  3517 ;;		On exit  : 3F/0
  3518 ;;		Unchanged: 0/0
  3519 ;; Data sizes:     COMRAM   BANK5   BANK6   BANK7   BANK8   BANK9  BANK10  BANK11  BANK12  BANK13  BANK14  BANK15  BANK1
      +6  BANK17  BANK18  BANK19  BANK20  BANK21  BANK22  BANK23  BANK24  BANK25  BANK26  BANK27  BANK28  BANK29  BANK30  BANK3
      +1  BANK32  BANK33  BANK34  BANK35  BANK36
  3520 ;;      Params:         0       0       0       0       0       0       0       0       0       0       0       0       
      +0       0       0       0       0       0       0       0       0       0       0       0       0       0       0       
      +0       0       0       0       0       0
  3521 ;;      Locals:         0       0       0       0       0       0       0       0       0       0       0       0       
      +0       0       0       0       0       0       0       0       0       0       0       0       0       0       0       
      +0       0       0       0       0       0
  3522 ;;      Temps:          0       0       0       0       0       0       0       0       0       0       0       0       
      +0       0       0       0       0       0       0       0       0       0       0       0       0       0       0       
      +0       0       0       0       0       0
  3523 ;;      Totals:         0       0       0       0       0       0       0       0       0       0       0       0       
      +0       0       0       0       0       0       0       0       0       0       0       0       0       0       0       
      +0       0       0       0       0       0
  3524 ;;Total ram usage:        0 bytes
  3525 ;; Hardware stack levels used: 1
  3526 ;; Hardware stack levels required when called: 3
  3527 ;; This function calls:
  3528 ;;		Nothing
  3529 ;; This function is called by:
  3530 ;;		_SYSTEM_Initialize
  3531 ;; This function uses a non-reentrant model
  3532 ;;
  3533                           
  3534                           	psect	text35
  3535   00296E                     __ptext35:
  3536                           	callstack 0
  3537   00296E                     _DMA1_Initialize:
  3538                           	callstack 122
  3539                           
  3540                           ; BSR set to: 0
  3541                           ;mcc_generated_files/dma/src/dma1.c: 49:     DMASELECT = 0x0;
  3542                           
  3543                           ;incstack = 0
  3544   00296E  0E00               	movlw	0
  3545   002970  6FE8               	movwf	232,b	;volatile
  3546                           
  3547                           ;mcc_generated_files/dma/src/dma1.c: 51:     DMAnSSA = 0x0;
  3548   002972  0E00               	movlw	0
  3549   002974  6FF9               	movwf	249,b	;volatile
  3550   002976  0E00               	movlw	0
  3551   002978  6FFA               	movwf	250,b	;volatile
  3552   00297A  0E00               	movlw	0
  3553   00297C  6FFB               	movwf	251,b	;volatile
  3554                           
  3555                           ;mcc_generated_files/dma/src/dma1.c: 53:     DMAnDSA = (uint16_t) &U3TXB;
  3556   00297E  0E02               	movlw	2
  3557   002980  6FF1               	movwf	241,b	;volatile
  3558   002982  0EC9               	movlw	201
  3559   002984  6FF0               	movwf	240,b	;volatile
  3560                           
  3561                           ;mcc_generated_files/dma/src/dma1.c: 55:     DMAnCON1 = 0xB;
  3562   002986  0E0B               	movlw	11
  3563   002988  6FFD               	movwf	253,b	;volatile
  3564                           
  3565                           ;mcc_generated_files/dma/src/dma1.c: 57:     DMAnSSZ = 0;
  3566   00298A  0E00               	movlw	0
  3567   00298C  6FF8               	movwf	248,b	;volatile
  3568   00298E  0E00               	movlw	0
  3569   002990  6FF7               	movwf	247,b	;volatile
  3570                           
  3571                           ;mcc_generated_files/dma/src/dma1.c: 59:     DMAnDSZ = 1;
  3572   002992  0E00               	movlw	0
  3573   002994  6FEF               	movwf	239,b	;volatile
  3574   002996  0E01               	movlw	1
  3575   002998  6FEE               	movwf	238,b	;volatile
  3576                           
  3577                           ;mcc_generated_files/dma/src/dma1.c: 61:     DMAnSIRQ = 0x49;
  3578   00299A  0E49               	movlw	73
  3579   00299C  6FFF               	movwf	255,b	;volatile
  3580                           
  3581                           ;mcc_generated_files/dma/src/dma1.c: 63:     DMAnAIRQ = 0x0;
  3582   00299E  0E00               	movlw	0
  3583   0029A0  6FFE               	movwf	254,b	;volatile
  3584                           
  3585                           ; BSR set to: 0
  3586                           ;mcc_generated_files/dma/src/dma1.c: 66:     PIR2bits.DMA1DCNTIF = 0;
  3587   0029A2  9AB0               	bcf	176,5,c	;volatile
  3588                           
  3589                           ; BSR set to: 0
  3590                           ;mcc_generated_files/dma/src/dma1.c: 68:     PIR2bits.DMA1SCNTIF = 0;
  3591   0029A4  98B0               	bcf	176,4,c	;volatile
  3592                           
  3593                           ; BSR set to: 0
  3594                           ;mcc_generated_files/dma/src/dma1.c: 70:     PIR2bits.DMA1AIF = 0;
  3595   0029A6  9EB0               	bcf	176,7,c	;volatile
  3596                           
  3597                           ; BSR set to: 0
  3598                           ;mcc_generated_files/dma/src/dma1.c: 72:     PIR2bits.DMA1ORIF =0;
  3599   0029A8  9CB0               	bcf	176,6,c	;volatile
  3600                           
  3601                           ; BSR set to: 0
  3602                           ;mcc_generated_files/dma/src/dma1.c: 74:     PIE2bits.DMA1DCNTIE = 0;
  3603   0029AA  9AA0               	bcf	160,5,c	;volatile
  3604                           
  3605                           ; BSR set to: 0
  3606                           ;mcc_generated_files/dma/src/dma1.c: 75:     PIE2bits.DMA1SCNTIE = 0;
  3607   0029AC  98A0               	bcf	160,4,c	;volatile
  3608                           
  3609                           ; BSR set to: 0
  3610                           ;mcc_generated_files/dma/src/dma1.c: 76:     PIE2bits.DMA1AIE = 0;
  3611   0029AE  9EA0               	bcf	160,7,c	;volatile
  3612                           
  3613                           ; BSR set to: 0
  3614                           ;mcc_generated_files/dma/src/dma1.c: 77:     PIE2bits.DMA1ORIE = 0;
  3615   0029B0  9CA0               	bcf	160,6,c	;volatile
  3616                           
  3617                           ;mcc_generated_files/dma/src/dma1.c: 80:     DMAnCON0 = 0x0;
  3618   0029B2  0E00               	movlw	0
  3619   0029B4  6FFC               	movwf	252,b	;volatile
  3620                           
  3621                           ; BSR set to: 0
  3622   0029B6  0012               	return		;funcret
  3623   0029B8                     __end_of_DMA1_Initialize:
  3624                           	callstack 0
  3625                           
  3626 ;; *************** function _CPU_Initialize *****************
  3627 ;; Defined at:
  3628 ;;		line 61 in file "mcc_generated_files/system/src/system.c"
  3629 ;; Parameters:    Size  Location     Type
  3630 ;;		None
  3631 ;; Auto vars:     Size  Location     Type
  3632 ;;		None
  3633 ;; Return value:  Size  Location     Type
  3634 ;;                  1    wreg      void 
  3635 ;; Registers used:
  3636 ;;		wreg, status,2
  3637 ;; Tracked objects:
  3638 ;;		On entry : 3F/4
  3639 ;;		On exit  : 3F/0
  3640 ;;		Unchanged: 0/0
  3641 ;; Data sizes:     COMRAM   BANK5   BANK6   BANK7   BANK8   BANK9  BANK10  BANK11  BANK12  BANK13  BANK14  BANK15  BANK1
      +6  BANK17  BANK18  BANK19  BANK20  BANK21  BANK22  BANK23  BANK24  BANK25  BANK26  BANK27  BANK28  BANK29  BANK30  BANK3
      +1  BANK32  BANK33  BANK34  BANK35  BANK36
  3642 ;;      Params:         0       0       0       0       0       0       0       0       0       0       0       0       
      +0       0       0       0       0       0       0       0       0       0       0       0       0       0       0       
      +0       0       0       0       0       0
  3643 ;;      Locals:         0       0       0       0       0       0       0       0       0       0       0       0       
      +0       0       0       0       0       0       0       0       0       0       0       0       0       0       0       
      +0       0       0       0       0       0
  3644 ;;      Temps:          0       0       0       0       0       0       0       0       0       0       0       0       
      +0       0       0       0       0       0       0       0       0       0       0       0       0       0       0       
      +0       0       0       0       0       0
  3645 ;;      Totals:         0       0       0       0       0       0       0       0       0       0       0       0       
      +0       0       0       0       0       0       0       0       0       0       0       0       0       0       0       
      +0       0       0       0       0       0
  3646 ;;Total ram usage:        0 bytes
  3647 ;; Hardware stack levels used: 1
  3648 ;; Hardware stack levels required when called: 3
  3649 ;; This function calls:
  3650 ;;		Nothing
  3651 ;; This function is called by:
  3652 ;;		_SYSTEM_Initialize
  3653 ;; This function uses a non-reentrant model
  3654 ;;
  3655                           
  3656                           	psect	text36
  3657   002AD8                     __ptext36:
  3658                           	callstack 0
  3659   002AD8                     _CPU_Initialize:
  3660                           	callstack 122
  3661                           
  3662                           ; BSR set to: 4
  3663                           ;mcc_generated_files/system/src/system.c: 64:     PRLOCK = 0x0;
  3664                           
  3665                           ; BSR set to: 0
  3666                           ;incstack = 0
  3667   002AD8  0E00               	movlw	0
  3668   002ADA  0100               	movlb	0	; () banked
  3669   002ADC  6FB4               	movwf	180,b	;volatile
  3670                           
  3671                           ;mcc_generated_files/system/src/system.c: 66:     SCANPR = 0x7;
  3672   002ADE  0E07               	movlw	7
  3673   002AE0  6FB5               	movwf	181,b	;volatile
  3674                           
  3675                           ;mcc_generated_files/system/src/system.c: 68:     DMA1PR = 0x7;
  3676   002AE2  0E07               	movlw	7
  3677   002AE4  6FB6               	movwf	182,b	;volatile
  3678                           
  3679                           ;mcc_generated_files/system/src/system.c: 70:     DMA2PR = 0x7;
  3680   002AE6  0E07               	movlw	7
  3681   002AE8  6FB7               	movwf	183,b	;volatile
  3682                           
  3683                           ;mcc_generated_files/system/src/system.c: 72:     DMA3PR = 0x7;
  3684   002AEA  0E07               	movlw	7
  3685   002AEC  6FB8               	movwf	184,b	;volatile
  3686                           
  3687                           ;mcc_generated_files/system/src/system.c: 74:     DMA4PR = 0x7;
  3688   002AEE  0E07               	movlw	7
  3689   002AF0  6FB9               	movwf	185,b	;volatile
  3690                           
  3691                           ;mcc_generated_files/system/src/system.c: 76:     DMA5PR = 0x7;
  3692   002AF2  0E07               	movlw	7
  3693   002AF4  6FBA               	movwf	186,b	;volatile
  3694                           
  3695                           ;mcc_generated_files/system/src/system.c: 78:     DMA6PR = 0x7;
  3696   002AF6  0E07               	movlw	7
  3697   002AF8  6FBB               	movwf	187,b	;volatile
  3698                           
  3699                           ;mcc_generated_files/system/src/system.c: 80:     MAINPR = 0x7;
  3700   002AFA  0E07               	movlw	7
  3701   002AFC  6FBE               	movwf	190,b	;volatile
  3702                           
  3703                           ;mcc_generated_files/system/src/system.c: 82:     ISRPR = 0x7;
  3704   002AFE  0E07               	movlw	7
  3705   002B00  6FBF               	movwf	191,b	;volatile
  3706                           
  3707                           ;mcc_generated_files/system/src/system.c: 84:     PRODH = 0x0;
  3708   002B02  0E00               	movlw	0
  3709   002B04  6EF4               	movwf	244,c	;volatile
  3710                           
  3711                           ;mcc_generated_files/system/src/system.c: 86:     PRODL = 0x0;
  3712   002B06  0E00               	movlw	0
  3713   002B08  6EF3               	movwf	243,c	;volatile
  3714                           
  3715                           ; BSR set to: 0
  3716   002B0A  0012               	return		;funcret
  3717   002B0C                     __end_of_CPU_Initialize:
  3718                           	callstack 0
  3719                           
  3720 ;; *************** function _CLOCK_Initialize *****************
  3721 ;; Defined at:
  3722 ;;		line 37 in file "mcc_generated_files/system/src/clock.c"
  3723 ;; Parameters:    Size  Location     Type
  3724 ;;		None
  3725 ;; Auto vars:     Size  Location     Type
  3726 ;;		None
  3727 ;; Return value:  Size  Location     Type
  3728 ;;                  1    wreg      void 
  3729 ;; Registers used:
  3730 ;;		wreg, status,2
  3731 ;; Tracked objects:
  3732 ;;		On entry : 0/0
  3733 ;;		On exit  : 3F/0
  3734 ;;		Unchanged: 0/0
  3735 ;; Data sizes:     COMRAM   BANK5   BANK6   BANK7   BANK8   BANK9  BANK10  BANK11  BANK12  BANK13  BANK14  BANK15  BANK1
      +6  BANK17  BANK18  BANK19  BANK20  BANK21  BANK22  BANK23  BANK24  BANK25  BANK26  BANK27  BANK28  BANK29  BANK30  BANK3
      +1  BANK32  BANK33  BANK34  BANK35  BANK36
  3736 ;;      Params:         0       0       0       0       0       0       0       0       0       0       0       0       
      +0       0       0       0       0       0       0       0       0       0       0       0       0       0       0       
      +0       0       0       0       0       0
  3737 ;;      Locals:         0       0       0       0       0       0       0       0       0       0       0       0       
      +0       0       0       0       0       0       0       0       0       0       0       0       0       0       0       
      +0       0       0       0       0       0
  3738 ;;      Temps:          0       0       0       0       0       0       0       0       0       0       0       0       
      +0       0       0       0       0       0       0       0       0       0       0       0       0       0       0       
      +0       0       0       0       0       0
  3739 ;;      Totals:         0       0       0       0       0       0       0       0       0       0       0       0       
      +0       0       0       0       0       0       0       0       0       0       0       0       0       0       0       
      +0       0       0       0       0       0
  3740 ;;Total ram usage:        0 bytes
  3741 ;; Hardware stack levels used: 1
  3742 ;; Hardware stack levels required when called: 3
  3743 ;; This function calls:
  3744 ;;		Nothing
  3745 ;; This function is called by:
  3746 ;;		_SYSTEM_Initialize
  3747 ;; This function uses a non-reentrant model
  3748 ;;
  3749                           
  3750                           	psect	text37
  3751   002C78                     __ptext37:
  3752                           	callstack 0
  3753   002C78                     _CLOCK_Initialize:
  3754                           	callstack 122
  3755                           
  3756                           ;mcc_generated_files/system/src/clock.c: 41:     OSCCON1 = 0x60;
  3757                           
  3758                           ; BSR set to: 0
  3759                           ;incstack = 0
  3760   002C78  0E60               	movlw	96
  3761   002C7A  0100               	movlb	0	; () banked
  3762   002C7C  6FAD               	movwf	173,b	;volatile
  3763                           
  3764                           ;mcc_generated_files/system/src/clock.c: 43:     OSCCON3 = 0x0;
  3765   002C7E  0E00               	movlw	0
  3766   002C80  6FAF               	movwf	175,b	;volatile
  3767                           
  3768                           ;mcc_generated_files/system/src/clock.c: 45:     OSCEN = 0x0;
  3769   002C82  0E00               	movlw	0
  3770   002C84  6FB3               	movwf	179,b	;volatile
  3771                           
  3772                           ;mcc_generated_files/system/src/clock.c: 47:     OSCFRQ = 0x8;
  3773   002C86  0E08               	movlw	8
  3774   002C88  6FB1               	movwf	177,b	;volatile
  3775                           
  3776                           ;mcc_generated_files/system/src/clock.c: 49:     OSCTUNE = 0x0;
  3777   002C8A  0E00               	movlw	0
  3778   002C8C  6FB0               	movwf	176,b	;volatile
  3779                           
  3780                           ;mcc_generated_files/system/src/clock.c: 51:     ACTCON = 0x40;
  3781   002C8E  0E40               	movlw	64
  3782   002C90  6FAC               	movwf	172,b	;volatile
  3783                           
  3784                           ; BSR set to: 0
  3785   002C92  0012               	return		;funcret
  3786   002C94                     __end_of_CLOCK_Initialize:
  3787                           	callstack 0
  3788                           
  3789 ;; *************** function _Default_ISR *****************
  3790 ;; Defined at:
  3791 ;;		line 93 in file "mcc_generated_files/system/src/interrupt.c"
  3792 ;; Parameters:    Size  Location     Type
  3793 ;;		None
  3794 ;; Auto vars:     Size  Location     Type
  3795 ;;		None
  3796 ;; Return value:  Size  Location     Type
  3797 ;;                  1    wreg      void 
  3798 ;; Registers used:
  3799 ;;		None
  3800 ;; Tracked objects:
  3801 ;;		On entry : 0/0
  3802 ;;		On exit  : 0/0
  3803 ;;		Unchanged: 0/0
  3804 ;; Data sizes:     COMRAM   BANK5   BANK6   BANK7   BANK8   BANK9  BANK10  BANK11  BANK12  BANK13  BANK14  BANK15  BANK1
      +6  BANK17  BANK18  BANK19  BANK20  BANK21  BANK22  BANK23  BANK24  BANK25  BANK26  BANK27  BANK28  BANK29  BANK30  BANK3
      +1  BANK32  BANK33  BANK34  BANK35  BANK36
  3805 ;;      Params:         0       0       0       0       0       0       0       0       0       0       0       0       
      +0       0       0       0       0       0       0       0       0       0       0       0       0       0       0       
      +0       0       0       0       0       0
  3806 ;;      Locals:         0       0       0       0       0       0       0       0       0       0       0       0       
      +0       0       0       0       0       0       0       0       0       0       0       0       0       0       0       
      +0       0       0       0       0       0
  3807 ;;      Temps:          0       0       0       0       0       0       0       0       0       0       0       0       
      +0       0       0       0       0       0       0       0       0       0       0       0       0       0       0       
      +0       0       0       0       0       0
  3808 ;;      Totals:         0       0       0       0       0       0       0       0       0       0       0       0       
      +0       0       0       0       0       0       0       0       0       0       0       0       0       0       0       
      +0       0       0       0       0       0
  3809 ;;Total ram usage:        0 bytes
  3810 ;; Hardware stack levels used: 1
  3811 ;; This function calls:
  3812 ;;		Nothing
  3813 ;; This function is called by:
  3814 ;;		Interrupt level 2
  3815 ;; This function uses a non-reentrant model
  3816 ;;
  3817                           
  3818                           	psect	text38
  3819   002E4C                     __ptext38:
  3820                           	callstack 0
  3821   002E4C                     _Default_ISR:
  3822                           	callstack 123
  3823                           
  3824                           ; BSR set to: 0
  3825                           ;incstack = 0
  3826   002E4C  0011               	retfie		f
  3827   002E4E                     __end_of_Default_ISR:
  3828                           	callstack 0
  3829                           
  3830 ;; *************** function _INT0_ISR *****************
  3831 ;; Defined at:
  3832 ;;		line 106 in file "mcc_generated_files/system/src/interrupt.c"
  3833 ;; Parameters:    Size  Location     Type
  3834 ;;		None
  3835 ;; Auto vars:     Size  Location     Type
  3836 ;;		None
  3837 ;; Return value:  Size  Location     Type
  3838 ;;                  1    wreg      void 
  3839 ;; Registers used:
  3840 ;;		wreg, status,2, status,0, pcl, pclath, pclatu, tosl, cstack
  3841 ;; Tracked objects:
  3842 ;;		On entry : 0/0
  3843 ;;		On exit  : 0/0
  3844 ;;		Unchanged: 0/0
  3845 ;; Data sizes:     COMRAM   BANK5   BANK6   BANK7   BANK8   BANK9  BANK10  BANK11  BANK12  BANK13  BANK14  BANK15  BANK1
      +6  BANK17  BANK18  BANK19  BANK20  BANK21  BANK22  BANK23  BANK24  BANK25  BANK26  BANK27  BANK28  BANK29  BANK30  BANK3
      +1  BANK32  BANK33  BANK34  BANK35  BANK36
  3846 ;;      Params:         0       0       0       0       0       0       0       0       0       0       0       0       
      +0       0       0       0       0       0       0       0       0       0       0       0       0       0       0       
      +0       0       0       0       0       0
  3847 ;;      Locals:         0       0       0       0       0       0       0       0       0       0       0       0       
      +0       0       0       0       0       0       0       0       0       0       0       0       0       0       0       
      +0       0       0       0       0       0
  3848 ;;      Temps:          2       0       0       0       0       0       0       0       0       0       0       0       
      +0       0       0       0       0       0       0       0       0       0       0       0       0       0       0       
      +0       0       0       0       0       0
  3849 ;;      Totals:         2       0       0       0       0       0       0       0       0       0       0       0       
      +0       0       0       0       0       0       0       0       0       0       0       0       0       0       0       
      +0       0       0       0       0       0
  3850 ;;Total ram usage:        2 bytes
  3851 ;; Hardware stack levels used: 1
  3852 ;; Hardware stack levels required when called: 2
  3853 ;; This function calls:
  3854 ;;		_INT0_CallBack
  3855 ;; This function is called by:
  3856 ;;		Interrupt level 2
  3857 ;; This function uses a non-reentrant model
  3858 ;;
  3859                           
  3860                           	psect	text39
  3861   002D24                     __ptext39:
  3862                           	callstack 0
  3863   002D24                     _INT0_ISR:
  3864                           	callstack 121
  3865                           
  3866                           ;incstack = 0
  3867   002D24  C4FA F53F          	movff	pclath,??_INT0_ISR
  3868   002D28  C4FB F540          	movff	pclatu,??_INT0_ISR+1
  3869                           
  3870                           ;mcc_generated_files/system/src/interrupt.c: 108:     (PIR1bits.INT0IF = 0);
  3871   002D2C  90AF               	bcf	175,0,c	;volatile
  3872                           
  3873                           ;mcc_generated_files/system/src/interrupt.c: 111:     INT0_CallBack();
  3874   002D2E  EC09  F016         	call	_INT0_CallBack	;wreg free
  3875   002D32  C540  F4FB         	movff	??_INT0_ISR+1,pclatu
  3876   002D36  C53F  F4FA         	movff	??_INT0_ISR,pclath
  3877   002D3A  0011               	retfie		f
  3878   002D3C                     __end_of_INT0_ISR:
  3879                           	callstack 0
  3880                           
  3881 ;; *************** function _INT0_CallBack *****************
  3882 ;; Defined at:
  3883 ;;		line 115 in file "mcc_generated_files/system/src/interrupt.c"
  3884 ;; Parameters:    Size  Location     Type
  3885 ;;		None
  3886 ;; Auto vars:     Size  Location     Type
  3887 ;;		None
  3888 ;; Return value:  Size  Location     Type
  3889 ;;                  1    wreg      void 
  3890 ;; Registers used:
  3891 ;;		wreg, status,2, status,0, pcl, pclath, pclatu, tosl, cstack
  3892 ;; Tracked objects:
  3893 ;;		On entry : 0/0
  3894 ;;		On exit  : 0/0
  3895 ;;		Unchanged: 0/0
  3896 ;; Data sizes:     COMRAM   BANK5   BANK6   BANK7   BANK8   BANK9  BANK10  BANK11  BANK12  BANK13  BANK14  BANK15  BANK1
      +6  BANK17  BANK18  BANK19  BANK20  BANK21  BANK22  BANK23  BANK24  BANK25  BANK26  BANK27  BANK28  BANK29  BANK30  BANK3
      +1  BANK32  BANK33  BANK34  BANK35  BANK36
  3897 ;;      Params:         0       0       0       0       0       0       0       0       0       0       0       0       
      +0       0       0       0       0       0       0       0       0       0       0       0       0       0       0       
      +0       0       0       0       0       0
  3898 ;;      Locals:         0       0       0       0       0       0       0       0       0       0       0       0       
      +0       0       0       0       0       0       0       0       0       0       0       0       0       0       0       
      +0       0       0       0       0       0
  3899 ;;      Temps:          0       0       0       0       0       0       0       0       0       0       0       0       
      +0       0       0       0       0       0       0       0       0       0       0       0       0       0       0       
      +0       0       0       0       0       0
  3900 ;;      Totals:         0       0       0       0       0       0       0       0       0       0       0       0       
      +0       0       0       0       0       0       0       0       0       0       0       0       0       0       0       
      +0       0       0       0       0       0
  3901 ;;Total ram usage:        0 bytes
  3902 ;; Hardware stack levels used: 1
  3903 ;; Hardware stack levels required when called: 1
  3904 ;; This function calls:
  3905 ;;		NULL
  3906 ;;		_INT0_DefaultInterruptHandler
  3907 ;;		_int0Isr
  3908 ;; This function is called by:
  3909 ;;		_INT0_ISR
  3910 ;; This function uses a non-reentrant model
  3911 ;;
  3912                           
  3913                           	psect	text40
  3914   002C12                     __ptext40:
  3915                           	callstack 0
  3916   002C12                     _INT0_CallBack:
  3917                           	callstack 121
  3918                           
  3919                           ;mcc_generated_files/system/src/interrupt.c: 118:     if(INT0_InterruptHandler)
  3920                           
  3921                           ;incstack = 0
  3922   002C12  502E               	movf	_INT0_InterruptHandler^(0+1280),w,c
  3923   002C14  102F               	iorwf	(_INT0_InterruptHandler+1)^(0+1280),w,c
  3924   002C16  1030               	iorwf	(_INT0_InterruptHandler+2)^(0+1280),w,c
  3925   002C18  B4D8               	btfsc	status,2,c
  3926   002C1A  0012               	return	
  3927                           
  3928                           ;mcc_generated_files/system/src/interrupt.c: 119:     {;mcc_generated_files/system/src/i
      +                          nterrupt.c: 120:         INT0_InterruptHandler();
  3929   002C1C  D801               	call	i2u12_48
  3930   002C1E  0012               	return	
  3931   002C20                     i2u12_48:
  3932   002C20  0005               	push	
  3933   002C22  6EFA               	movwf	pclath,c
  3934   002C24  502E               	movf	_INT0_InterruptHandler^(0+1280),w,c
  3935   002C26  6EFD               	movwf	tosl,c
  3936   002C28  502F               	movf	(_INT0_InterruptHandler+1)^(0+1280),w,c
  3937   002C2A  6EFE               	movwf	tosh,c
  3938   002C2C  5030               	movf	(_INT0_InterruptHandler+2)^(0+1280),w,c
  3939   002C2E  6EFF               	movwf	tosu,c
  3940   002C30  50FA               	movf	pclath,w,c
  3941   002C32  0012               	return		;indir
  3942   002C34                     __end_of_INT0_CallBack:
  3943                           	callstack 0
  3944                           
  3945 ;; *************** function _INT0_DefaultInterruptHandler *****************
  3946 ;; Defined at:
  3947 ;;		line 128 in file "mcc_generated_files/system/src/interrupt.c"
  3948 ;; Parameters:    Size  Location     Type
  3949 ;;		None
  3950 ;; Auto vars:     Size  Location     Type
  3951 ;;		None
  3952 ;; Return value:  Size  Location     Type
  3953 ;;                  1    wreg      void 
  3954 ;; Registers used:
  3955 ;;		None
  3956 ;; Tracked objects:
  3957 ;;		On entry : 0/0
  3958 ;;		On exit  : 0/0
  3959 ;;		Unchanged: 0/0
  3960 ;; Data sizes:     COMRAM   BANK5   BANK6   BANK7   BANK8   BANK9  BANK10  BANK11  BANK12  BANK13  BANK14  BANK15  BANK1
      +6  BANK17  BANK18  BANK19  BANK20  BANK21  BANK22  BANK23  BANK24  BANK25  BANK26  BANK27  BANK28  BANK29  BANK30  BANK3
      +1  BANK32  BANK33  BANK34  BANK35  BANK36
  3961 ;;      Params:         0       0       0       0       0       0       0       0       0       0       0       0       
      +0       0       0       0       0       0       0       0       0       0       0       0       0       0       0       
      +0       0       0       0       0       0
  3962 ;;      Locals:         0       0       0       0       0       0       0       0       0       0       0       0       
      +0       0       0       0       0       0       0       0       0       0       0       0       0       0       0       
      +0       0       0       0       0       0
  3963 ;;      Temps:          0       0       0       0       0       0       0       0       0       0       0       0       
      +0       0       0       0       0       0       0       0       0       0       0       0       0       0       0       
      +0       0       0       0       0       0
  3964 ;;      Totals:         0       0       0       0       0       0       0       0       0       0       0       0       
      +0       0       0       0       0       0       0       0       0       0       0       0       0       0       0       
      +0       0       0       0       0       0
  3965 ;;Total ram usage:        0 bytes
  3966 ;; Hardware stack levels used: 1
  3967 ;; This function calls:
  3968 ;;		Nothing
  3969 ;; This function is called by:
  3970 ;;		_INTERRUPT_Initialize
  3971 ;;		_INT0_CallBack
  3972 ;; This function uses a non-reentrant model
  3973 ;;
  3974                           
  3975                           	psect	text41
  3976   002E4E                     __ptext41:
  3977                           	callstack 0
  3978   002E4E                     _INT0_DefaultInterruptHandler:
  3979                           	callstack 121
  3980                           
  3981                           ;incstack = 0
  3982   002E4E  0012               	return		;funcret
  3983   002E50                     __end_of_INT0_DefaultInterruptHandler:
  3984                           	callstack 0
  3985                           
  3986 ;; *************** function _int0Isr *****************
  3987 ;; Defined at:
  3988 ;;		line 64 in file "main.c"
  3989 ;; Parameters:    Size  Location     Type
  3990 ;;		None
  3991 ;; Auto vars:     Size  Location     Type
  3992 ;;		None
  3993 ;; Return value:  Size  Location     Type
  3994 ;;                  1    wreg      void 
  3995 ;; Registers used:
  3996 ;;		status,2, status,0
  3997 ;; Tracked objects:
  3998 ;;		On entry : 0/0
  3999 ;;		On exit  : 0/0
  4000 ;;		Unchanged: 0/0
  4001 ;; Data sizes:     COMRAM   BANK5   BANK6   BANK7   BANK8   BANK9  BANK10  BANK11  BANK12  BANK13  BANK14  BANK15  BANK1
      +6  BANK17  BANK18  BANK19  BANK20  BANK21  BANK22  BANK23  BANK24  BANK25  BANK26  BANK27  BANK28  BANK29  BANK30  BANK3
      +1  BANK32  BANK33  BANK34  BANK35  BANK36
  4002 ;;      Params:         0       0       0       0       0       0       0       0       0       0       0       0       
      +0       0       0       0       0       0       0       0       0       0       0       0       0       0       0       
      +0       0       0       0       0       0
  4003 ;;      Locals:         0       0       0       0       0       0       0       0       0       0       0       0       
      +0       0       0       0       0       0       0       0       0       0       0       0       0       0       0       
      +0       0       0       0       0       0
  4004 ;;      Temps:          0       0       0       0       0       0       0       0       0       0       0       0       
      +0       0       0       0       0       0       0       0       0       0       0       0       0       0       0       
      +0       0       0       0       0       0
  4005 ;;      Totals:         0       0       0       0       0       0       0       0       0       0       0       0       
      +0       0       0       0       0       0       0       0       0       0       0       0       0       0       0       
      +0       0       0       0       0       0
  4006 ;;Total ram usage:        0 bytes
  4007 ;; Hardware stack levels used: 1
  4008 ;; This function calls:
  4009 ;;		Nothing
  4010 ;; This function is called by:
  4011 ;;		_main
  4012 ;;		_INT0_CallBack
  4013 ;; This function uses a non-reentrant model
  4014 ;;
  4015                           
  4016                           	psect	text42
  4017   002E46                     __ptext42:
  4018                           	callstack 0
  4019   002E46                     _int0Isr:
  4020                           	callstack 121
  4021                           
  4022                           ;main.c: 66:  count_out++;
  4023                           
  4024                           ;incstack = 0
  4025   002E46  2A38               	incf	_count_out^(0+1280),f,c	;volatile
  4026   002E48  0012               	return		;funcret
  4027   002E4A                     __end_of_int0Isr:
  4028                           	callstack 0
  4029                           
  4030 ;; *************** function _INT1_ISR *****************
  4031 ;; Defined at:
  4032 ;;		line 140 in file "mcc_generated_files/system/src/interrupt.c"
  4033 ;; Parameters:    Size  Location     Type
  4034 ;;		None
  4035 ;; Auto vars:     Size  Location     Type
  4036 ;;		None
  4037 ;; Return value:  Size  Location     Type
  4038 ;;                  1    wreg      void 
  4039 ;; Registers used:
  4040 ;;		wreg, status,2, status,0, pcl, pclath, pclatu, tosl, cstack
  4041 ;; Tracked objects:
  4042 ;;		On entry : 0/0
  4043 ;;		On exit  : 0/0
  4044 ;;		Unchanged: 0/0
  4045 ;; Data sizes:     COMRAM   BANK5   BANK6   BANK7   BANK8   BANK9  BANK10  BANK11  BANK12  BANK13  BANK14  BANK15  BANK1
      +6  BANK17  BANK18  BANK19  BANK20  BANK21  BANK22  BANK23  BANK24  BANK25  BANK26  BANK27  BANK28  BANK29  BANK30  BANK3
      +1  BANK32  BANK33  BANK34  BANK35  BANK36
  4046 ;;      Params:         0       0       0       0       0       0       0       0       0       0       0       0       
      +0       0       0       0       0       0       0       0       0       0       0       0       0       0       0       
      +0       0       0       0       0       0
  4047 ;;      Locals:         0       0       0       0       0       0       0       0       0       0       0       0       
      +0       0       0       0       0       0       0       0       0       0       0       0       0       0       0       
      +0       0       0       0       0       0
  4048 ;;      Temps:          2       0       0       0       0       0       0       0       0       0       0       0       
      +0       0       0       0       0       0       0       0       0       0       0       0       0       0       0       
      +0       0       0       0       0       0
  4049 ;;      Totals:         2       0       0       0       0       0       0       0       0       0       0       0       
      +0       0       0       0       0       0       0       0       0       0       0       0       0       0       0       
      +0       0       0       0       0       0
  4050 ;;Total ram usage:        2 bytes
  4051 ;; Hardware stack levels used: 1
  4052 ;; Hardware stack levels required when called: 2
  4053 ;; This function calls:
  4054 ;;		_INT1_CallBack
  4055 ;; This function is called by:
  4056 ;;		Interrupt level 2
  4057 ;; This function uses a non-reentrant model
  4058 ;;
  4059                           
  4060                           	psect	text43
  4061   002D3C                     __ptext43:
  4062                           	callstack 0
  4063   002D3C                     _INT1_ISR:
  4064                           	callstack 121
  4065                           
  4066                           ;incstack = 0
  4067   002D3C  C4FA F541          	movff	pclath,??_INT1_ISR
  4068   002D40  C4FB F542          	movff	pclatu,??_INT1_ISR+1
  4069                           
  4070                           ;mcc_generated_files/system/src/interrupt.c: 142:     (PIR6bits.INT1IF = 0);
  4071   002D44  90B4               	bcf	180,0,c	;volatile
  4072                           
  4073                           ;mcc_generated_files/system/src/interrupt.c: 145:     INT1_CallBack();
  4074   002D46  EC1A  F016         	call	_INT1_CallBack	;wreg free
  4075   002D4A  C542  F4FB         	movff	??_INT1_ISR+1,pclatu
  4076   002D4E  C541  F4FA         	movff	??_INT1_ISR,pclath
  4077   002D52  0011               	retfie		f
  4078   002D54                     __end_of_INT1_ISR:
  4079                           	callstack 0
  4080                           
  4081 ;; *************** function _INT1_CallBack *****************
  4082 ;; Defined at:
  4083 ;;		line 149 in file "mcc_generated_files/system/src/interrupt.c"
  4084 ;; Parameters:    Size  Location     Type
  4085 ;;		None
  4086 ;; Auto vars:     Size  Location     Type
  4087 ;;		None
  4088 ;; Return value:  Size  Location     Type
  4089 ;;                  1    wreg      void 
  4090 ;; Registers used:
  4091 ;;		wreg, status,2, status,0, pcl, pclath, pclatu, tosl, cstack
  4092 ;; Tracked objects:
  4093 ;;		On entry : 0/0
  4094 ;;		On exit  : 0/0
  4095 ;;		Unchanged: 0/0
  4096 ;; Data sizes:     COMRAM   BANK5   BANK6   BANK7   BANK8   BANK9  BANK10  BANK11  BANK12  BANK13  BANK14  BANK15  BANK1
      +6  BANK17  BANK18  BANK19  BANK20  BANK21  BANK22  BANK23  BANK24  BANK25  BANK26  BANK27  BANK28  BANK29  BANK30  BANK3
      +1  BANK32  BANK33  BANK34  BANK35  BANK36
  4097 ;;      Params:         0       0       0       0       0       0       0       0       0       0       0       0       
      +0       0       0       0       0       0       0       0       0       0       0       0       0       0       0       
      +0       0       0       0       0       0
  4098 ;;      Locals:         0       0       0       0       0       0       0       0       0       0       0       0       
      +0       0       0       0       0       0       0       0       0       0       0       0       0       0       0       
      +0       0       0       0       0       0
  4099 ;;      Temps:          0       0       0       0       0       0       0       0       0       0       0       0       
      +0       0       0       0       0       0       0       0       0       0       0       0       0       0       0       
      +0       0       0       0       0       0
  4100 ;;      Totals:         0       0       0       0       0       0       0       0       0       0       0       0       
      +0       0       0       0       0       0       0       0       0       0       0       0       0       0       0       
      +0       0       0       0       0       0
  4101 ;;Total ram usage:        0 bytes
  4102 ;; Hardware stack levels used: 1
  4103 ;; Hardware stack levels required when called: 1
  4104 ;; This function calls:
  4105 ;;		NULL
  4106 ;;		_INT1_DefaultInterruptHandler
  4107 ;; This function is called by:
  4108 ;;		_INT1_ISR
  4109 ;; This function uses a non-reentrant model
  4110 ;;
  4111                           
  4112                           	psect	text44
  4113   002C34                     __ptext44:
  4114                           	callstack 0
  4115   002C34                     _INT1_CallBack:
  4116                           	callstack 121
  4117                           
  4118                           ;mcc_generated_files/system/src/interrupt.c: 152:     if(INT1_InterruptHandler)
  4119                           
  4120                           ;incstack = 0
  4121   002C34  502B               	movf	_INT1_InterruptHandler^(0+1280),w,c
  4122   002C36  102C               	iorwf	(_INT1_InterruptHandler+1)^(0+1280),w,c
  4123   002C38  102D               	iorwf	(_INT1_InterruptHandler+2)^(0+1280),w,c
  4124   002C3A  B4D8               	btfsc	status,2,c
  4125   002C3C  0012               	return	
  4126                           
  4127                           ;mcc_generated_files/system/src/interrupt.c: 153:     {;mcc_generated_files/system/src/i
      +                          nterrupt.c: 154:         INT1_InterruptHandler();
  4128   002C3E  D801               	call	i2u14_48
  4129   002C40  0012               	return	
  4130   002C42                     i2u14_48:
  4131   002C42  0005               	push	
  4132   002C44  6EFA               	movwf	pclath,c
  4133   002C46  502B               	movf	_INT1_InterruptHandler^(0+1280),w,c
  4134   002C48  6EFD               	movwf	tosl,c
  4135   002C4A  502C               	movf	(_INT1_InterruptHandler+1)^(0+1280),w,c
  4136   002C4C  6EFE               	movwf	tosh,c
  4137   002C4E  502D               	movf	(_INT1_InterruptHandler+2)^(0+1280),w,c
  4138   002C50  6EFF               	movwf	tosu,c
  4139   002C52  50FA               	movf	pclath,w,c
  4140   002C54  0012               	return		;indir
  4141   002C56                     __end_of_INT1_CallBack:
  4142                           	callstack 0
  4143                           
  4144 ;; *************** function _INT1_DefaultInterruptHandler *****************
  4145 ;; Defined at:
  4146 ;;		line 162 in file "mcc_generated_files/system/src/interrupt.c"
  4147 ;; Parameters:    Size  Location     Type
  4148 ;;		None
  4149 ;; Auto vars:     Size  Location     Type
  4150 ;;		None
  4151 ;; Return value:  Size  Location     Type
  4152 ;;                  1    wreg      void 
  4153 ;; Registers used:
  4154 ;;		None
  4155 ;; Tracked objects:
  4156 ;;		On entry : 0/0
  4157 ;;		On exit  : 0/0
  4158 ;;		Unchanged: 0/0
  4159 ;; Data sizes:     COMRAM   BANK5   BANK6   BANK7   BANK8   BANK9  BANK10  BANK11  BANK12  BANK13  BANK14  BANK15  BANK1
      +6  BANK17  BANK18  BANK19  BANK20  BANK21  BANK22  BANK23  BANK24  BANK25  BANK26  BANK27  BANK28  BANK29  BANK30  BANK3
      +1  BANK32  BANK33  BANK34  BANK35  BANK36
  4160 ;;      Params:         0       0       0       0       0       0       0       0       0       0       0       0       
      +0       0       0       0       0       0       0       0       0       0       0       0       0       0       0       
      +0       0       0       0       0       0
  4161 ;;      Locals:         0       0       0       0       0       0       0       0       0       0       0       0       
      +0       0       0       0       0       0       0       0       0       0       0       0       0       0       0       
      +0       0       0       0       0       0
  4162 ;;      Temps:          0       0       0       0       0       0       0       0       0       0       0       0       
      +0       0       0       0       0       0       0       0       0       0       0       0       0       0       0       
      +0       0       0       0       0       0
  4163 ;;      Totals:         0       0       0       0       0       0       0       0       0       0       0       0       
      +0       0       0       0       0       0       0       0       0       0       0       0       0       0       0       
      +0       0       0       0       0       0
  4164 ;;Total ram usage:        0 bytes
  4165 ;; Hardware stack levels used: 1
  4166 ;; This function calls:
  4167 ;;		Nothing
  4168 ;; This function is called by:
  4169 ;;		_INTERRUPT_Initialize
  4170 ;;		_INT1_CallBack
  4171 ;; This function uses a non-reentrant model
  4172 ;;
  4173                           
  4174                           	psect	text45
  4175   002E50                     __ptext45:
  4176                           	callstack 0
  4177   002E50                     _INT1_DefaultInterruptHandler:
  4178                           	callstack 121
  4179                           
  4180                           ;incstack = 0
  4181   002E50  0012               	return		;funcret
  4182   002E52                     __end_of_INT1_DefaultInterruptHandler:
  4183                           	callstack 0
  4184                           
  4185 ;; *************** function _INT2_ISR *****************
  4186 ;; Defined at:
  4187 ;;		line 174 in file "mcc_generated_files/system/src/interrupt.c"
  4188 ;; Parameters:    Size  Location     Type
  4189 ;;		None
  4190 ;; Auto vars:     Size  Location     Type
  4191 ;;		None
  4192 ;; Return value:  Size  Location     Type
  4193 ;;                  1    wreg      void 
  4194 ;; Registers used:
  4195 ;;		wreg, status,2, status,0, pcl, pclath, pclatu, tosl, cstack
  4196 ;; Tracked objects:
  4197 ;;		On entry : 0/0
  4198 ;;		On exit  : 0/0
  4199 ;;		Unchanged: 0/0
  4200 ;; Data sizes:     COMRAM   BANK5   BANK6   BANK7   BANK8   BANK9  BANK10  BANK11  BANK12  BANK13  BANK14  BANK15  BANK1
      +6  BANK17  BANK18  BANK19  BANK20  BANK21  BANK22  BANK23  BANK24  BANK25  BANK26  BANK27  BANK28  BANK29  BANK30  BANK3
      +1  BANK32  BANK33  BANK34  BANK35  BANK36
  4201 ;;      Params:         0       0       0       0       0       0       0       0       0       0       0       0       
      +0       0       0       0       0       0       0       0       0       0       0       0       0       0       0       
      +0       0       0       0       0       0
  4202 ;;      Locals:         0       0       0       0       0       0       0       0       0       0       0       0       
      +0       0       0       0       0       0       0       0       0       0       0       0       0       0       0       
      +0       0       0       0       0       0
  4203 ;;      Temps:          2       0       0       0       0       0       0       0       0       0       0       0       
      +0       0       0       0       0       0       0       0       0       0       0       0       0       0       0       
      +0       0       0       0       0       0
  4204 ;;      Totals:         2       0       0       0       0       0       0       0       0       0       0       0       
      +0       0       0       0       0       0       0       0       0       0       0       0       0       0       0       
      +0       0       0       0       0       0
  4205 ;;Total ram usage:        2 bytes
  4206 ;; Hardware stack levels used: 1
  4207 ;; Hardware stack levels required when called: 2
  4208 ;; This function calls:
  4209 ;;		_INT2_CallBack
  4210 ;; This function is called by:
  4211 ;;		Interrupt level 2
  4212 ;; This function uses a non-reentrant model
  4213 ;;
  4214                           
  4215                           	psect	text46
  4216   002D54                     __ptext46:
  4217                           	callstack 0
  4218   002D54                     _INT2_ISR:
  4219                           	callstack 121
  4220                           
  4221                           ;incstack = 0
  4222   002D54  C4FA F543          	movff	pclath,??_INT2_ISR
  4223   002D58  C4FB F544          	movff	pclatu,??_INT2_ISR+1
  4224                           
  4225                           ;mcc_generated_files/system/src/interrupt.c: 176:     (PIR10bits.INT2IF = 0);
  4226   002D5C  90B8               	bcf	184,0,c	;volatile
  4227                           
  4228                           ;mcc_generated_files/system/src/interrupt.c: 179:     INT2_CallBack();
  4229   002D5E  EC2B  F016         	call	_INT2_CallBack	;wreg free
  4230   002D62  C544  F4FB         	movff	??_INT2_ISR+1,pclatu
  4231   002D66  C543  F4FA         	movff	??_INT2_ISR,pclath
  4232   002D6A  0011               	retfie		f
  4233   002D6C                     __end_of_INT2_ISR:
  4234                           	callstack 0
  4235                           
  4236 ;; *************** function _INT2_CallBack *****************
  4237 ;; Defined at:
  4238 ;;		line 183 in file "mcc_generated_files/system/src/interrupt.c"
  4239 ;; Parameters:    Size  Location     Type
  4240 ;;		None
  4241 ;; Auto vars:     Size  Location     Type
  4242 ;;		None
  4243 ;; Return value:  Size  Location     Type
  4244 ;;                  1    wreg      void 
  4245 ;; Registers used:
  4246 ;;		wreg, status,2, status,0, pcl, pclath, pclatu, tosl, cstack
  4247 ;; Tracked objects:
  4248 ;;		On entry : 0/0
  4249 ;;		On exit  : 0/0
  4250 ;;		Unchanged: 0/0
  4251 ;; Data sizes:     COMRAM   BANK5   BANK6   BANK7   BANK8   BANK9  BANK10  BANK11  BANK12  BANK13  BANK14  BANK15  BANK1
      +6  BANK17  BANK18  BANK19  BANK20  BANK21  BANK22  BANK23  BANK24  BANK25  BANK26  BANK27  BANK28  BANK29  BANK30  BANK3
      +1  BANK32  BANK33  BANK34  BANK35  BANK36
  4252 ;;      Params:         0       0       0       0       0       0       0       0       0       0       0       0       
      +0       0       0       0       0       0       0       0       0       0       0       0       0       0       0       
      +0       0       0       0       0       0
  4253 ;;      Locals:         0       0       0       0       0       0       0       0       0       0       0       0       
      +0       0       0       0       0       0       0       0       0       0       0       0       0       0       0       
      +0       0       0       0       0       0
  4254 ;;      Temps:          0       0       0       0       0       0       0       0       0       0       0       0       
      +0       0       0       0       0       0       0       0       0       0       0       0       0       0       0       
      +0       0       0       0       0       0
  4255 ;;      Totals:         0       0       0       0       0       0       0       0       0       0       0       0       
      +0       0       0       0       0       0       0       0       0       0       0       0       0       0       0       
      +0       0       0       0       0       0
  4256 ;;Total ram usage:        0 bytes
  4257 ;; Hardware stack levels used: 1
  4258 ;; Hardware stack levels required when called: 1
  4259 ;; This function calls:
  4260 ;;		NULL
  4261 ;;		_INT2_DefaultInterruptHandler
  4262 ;; This function is called by:
  4263 ;;		_INT2_ISR
  4264 ;; This function uses a non-reentrant model
  4265 ;;
  4266                           
  4267                           	psect	text47
  4268   002C56                     __ptext47:
  4269                           	callstack 0
  4270   002C56                     _INT2_CallBack:
  4271                           	callstack 121
  4272                           
  4273                           ;mcc_generated_files/system/src/interrupt.c: 186:     if(INT2_InterruptHandler)
  4274                           
  4275                           ;incstack = 0
  4276   002C56  5028               	movf	_INT2_InterruptHandler^(0+1280),w,c
  4277   002C58  1029               	iorwf	(_INT2_InterruptHandler+1)^(0+1280),w,c
  4278   002C5A  102A               	iorwf	(_INT2_InterruptHandler+2)^(0+1280),w,c
  4279   002C5C  B4D8               	btfsc	status,2,c
  4280   002C5E  0012               	return	
  4281                           
  4282                           ;mcc_generated_files/system/src/interrupt.c: 187:     {;mcc_generated_files/system/src/i
      +                          nterrupt.c: 188:         INT2_InterruptHandler();
  4283   002C60  D801               	call	i2u16_48
  4284   002C62  0012               	return	
  4285   002C64                     i2u16_48:
  4286   002C64  0005               	push	
  4287   002C66  6EFA               	movwf	pclath,c
  4288   002C68  5028               	movf	_INT2_InterruptHandler^(0+1280),w,c
  4289   002C6A  6EFD               	movwf	tosl,c
  4290   002C6C  5029               	movf	(_INT2_InterruptHandler+1)^(0+1280),w,c
  4291   002C6E  6EFE               	movwf	tosh,c
  4292   002C70  502A               	movf	(_INT2_InterruptHandler+2)^(0+1280),w,c
  4293   002C72  6EFF               	movwf	tosu,c
  4294   002C74  50FA               	movf	pclath,w,c
  4295   002C76  0012               	return		;indir
  4296   002C78                     __end_of_INT2_CallBack:
  4297                           	callstack 0
  4298                           
  4299 ;; *************** function _INT2_DefaultInterruptHandler *****************
  4300 ;; Defined at:
  4301 ;;		line 196 in file "mcc_generated_files/system/src/interrupt.c"
  4302 ;; Parameters:    Size  Location     Type
  4303 ;;		None
  4304 ;; Auto vars:     Size  Location     Type
  4305 ;;		None
  4306 ;; Return value:  Size  Location     Type
  4307 ;;                  1    wreg      void 
  4308 ;; Registers used:
  4309 ;;		None
  4310 ;; Tracked objects:
  4311 ;;		On entry : 0/0
  4312 ;;		On exit  : 0/0
  4313 ;;		Unchanged: 0/0
  4314 ;; Data sizes:     COMRAM   BANK5   BANK6   BANK7   BANK8   BANK9  BANK10  BANK11  BANK12  BANK13  BANK14  BANK15  BANK1
      +6  BANK17  BANK18  BANK19  BANK20  BANK21  BANK22  BANK23  BANK24  BANK25  BANK26  BANK27  BANK28  BANK29  BANK30  BANK3
      +1  BANK32  BANK33  BANK34  BANK35  BANK36
  4315 ;;      Params:         0       0       0       0       0       0       0       0       0       0       0       0       
      +0       0       0       0       0       0       0       0       0       0       0       0       0       0       0       
      +0       0       0       0       0       0
  4316 ;;      Locals:         0       0       0       0       0       0       0       0       0       0       0       0       
      +0       0       0       0       0       0       0       0       0       0       0       0       0       0       0       
      +0       0       0       0       0       0
  4317 ;;      Temps:          0       0       0       0       0       0       0       0       0       0       0       0       
      +0       0       0       0       0       0       0       0       0       0       0       0       0       0       0       
      +0       0       0       0       0       0
  4318 ;;      Totals:         0       0       0       0       0       0       0       0       0       0       0       0       
      +0       0       0       0       0       0       0       0       0       0       0       0       0       0       0       
      +0       0       0       0       0       0
  4319 ;;Total ram usage:        0 bytes
  4320 ;; Hardware stack levels used: 1
  4321 ;; This function calls:
  4322 ;;		Nothing
  4323 ;; This function is called by:
  4324 ;;		_INTERRUPT_Initialize
  4325 ;;		_INT2_CallBack
  4326 ;; This function uses a non-reentrant model
  4327 ;;
  4328                           
  4329                           	psect	text48
  4330   002E52                     __ptext48:
  4331                           	callstack 0
  4332   002E52                     _INT2_DefaultInterruptHandler:
  4333                           	callstack 121
  4334                           
  4335                           ;incstack = 0
  4336   002E52  0012               	return		;funcret
  4337   002E54                     __end_of_INT2_DefaultInterruptHandler:
  4338                           	callstack 0
  4339                           
  4340 ;; *************** function _TMR0_OverflowISR *****************
  4341 ;; Defined at:
  4342 ;;		line 122 in file "mcc_generated_files/timer/src/tmr0.c"
  4343 ;; Parameters:    Size  Location     Type
  4344 ;;		None
  4345 ;; Auto vars:     Size  Location     Type
  4346 ;;		None
  4347 ;; Return value:  Size  Location     Type
  4348 ;;                  1    wreg      void 
  4349 ;; Registers used:
  4350 ;;		wreg, status,2, status,0, pcl, pclath, pclatu, tosl, cstack
  4351 ;; Tracked objects:
  4352 ;;		On entry : 0/0
  4353 ;;		On exit  : 0/0
  4354 ;;		Unchanged: 0/0
  4355 ;; Data sizes:     COMRAM   BANK5   BANK6   BANK7   BANK8   BANK9  BANK10  BANK11  BANK12  BANK13  BANK14  BANK15  BANK1
      +6  BANK17  BANK18  BANK19  BANK20  BANK21  BANK22  BANK23  BANK24  BANK25  BANK26  BANK27  BANK28  BANK29  BANK30  BANK3
      +1  BANK32  BANK33  BANK34  BANK35  BANK36
  4356 ;;      Params:         0       0       0       0       0       0       0       0       0       0       0       0       
      +0       0       0       0       0       0       0       0       0       0       0       0       0       0       0       
      +0       0       0       0       0       0
  4357 ;;      Locals:         0       0       0       0       0       0       0       0       0       0       0       0       
      +0       0       0       0       0       0       0       0       0       0       0       0       0       0       0       
      +0       0       0       0       0       0
  4358 ;;      Temps:          2       0       0       0       0       0       0       0       0       0       0       0       
      +0       0       0       0       0       0       0       0       0       0       0       0       0       0       0       
      +0       0       0       0       0       0
  4359 ;;      Totals:         2       0       0       0       0       0       0       0       0       0       0       0       
      +0       0       0       0       0       0       0       0       0       0       0       0       0       0       0       
      +0       0       0       0       0       0
  4360 ;;Total ram usage:        2 bytes
  4361 ;; Hardware stack levels used: 1
  4362 ;; Hardware stack levels required when called: 1
  4363 ;; This function calls:
  4364 ;;		NULL
  4365 ;;		_TMR0_DefaultOverflowCallback
  4366 ;;		_tmr0Isr
  4367 ;; This function is called by:
  4368 ;;		Interrupt level 2
  4369 ;; This function uses a non-reentrant model
  4370 ;;
  4371                           
  4372                           	psect	text49
  4373   0029FC                     __ptext49:
  4374                           	callstack 0
  4375   0029FC                     _TMR0_OverflowISR:
  4376                           	callstack 122
  4377                           
  4378                           ;incstack = 0
  4379   0029FC  C4FA F545          	movff	pclath,??_TMR0_OverflowISR
  4380   002A00  C4FB F546          	movff	pclatu,??_TMR0_OverflowISR+1
  4381                           
  4382                           ;mcc_generated_files/timer/src/tmr0.c: 125:     PIR3bits.TMR0IF = 0;
  4383   002A04  9EB1               	bcf	177,7,c	;volatile
  4384                           
  4385                           ;mcc_generated_files/timer/src/tmr0.c: 127:     TMR0H = timerTMR0ReloadVal16bit >> 8;
  4386   002A06  C534  F319         	movff	_timerTMR0ReloadVal16bit+1,793	;volatile
  4387                           
  4388                           ;mcc_generated_files/timer/src/tmr0.c: 128:     TMR0L = (uint8_t) timerTMR0ReloadVal16bi
      +                          t;
  4389   002A0A  C533  F318         	movff	_timerTMR0ReloadVal16bit,792	;volatile
  4390                           
  4391                           ;mcc_generated_files/timer/src/tmr0.c: 130:     if(TMR0_OverflowCallback)
  4392   002A0E  5059               	movf	_TMR0_OverflowCallback^(0+1280),w,c
  4393   002A10  105A               	iorwf	(_TMR0_OverflowCallback+1)^(0+1280),w,c
  4394   002A12  105B               	iorwf	(_TMR0_OverflowCallback+2)^(0+1280),w,c
  4395   002A14  B4D8               	btfsc	status,2,c
  4396   002A16  D00C               	goto	i2u38_49
  4397                           
  4398                           ;mcc_generated_files/timer/src/tmr0.c: 131:     {;mcc_generated_files/timer/src/tmr0.c: 
      +                          132:         TMR0_OverflowCallback();
  4399   002A18  D801               	call	i2u38_48
  4400   002A1A  D00A               	goto	i2u38_49
  4401   002A1C                     i2u38_48:
  4402   002A1C  0005               	push	
  4403   002A1E  6EFA               	movwf	pclath,c
  4404   002A20  5059               	movf	_TMR0_OverflowCallback^(0+1280),w,c
  4405   002A22  6EFD               	movwf	tosl,c
  4406   002A24  505A               	movf	(_TMR0_OverflowCallback+1)^(0+1280),w,c
  4407   002A26  6EFE               	movwf	tosh,c
  4408   002A28  505B               	movf	(_TMR0_OverflowCallback+2)^(0+1280),w,c
  4409   002A2A  6EFF               	movwf	tosu,c
  4410   002A2C  50FA               	movf	pclath,w,c
  4411   002A2E  0012               	return		;indir
  4412   002A30                     i2u38_49:
  4413   002A30  C546  F4FB         	movff	??_TMR0_OverflowISR+1,pclatu
  4414   002A34  C545  F4FA         	movff	??_TMR0_OverflowISR,pclath
  4415   002A38  0011               	retfie		f
  4416   002A3A                     __end_of_TMR0_OverflowISR:
  4417                           	callstack 0
  4418                           
  4419 ;; *************** function _TMR0_DefaultOverflowCallback *****************
  4420 ;; Defined at:
  4421 ;;		line 141 in file "mcc_generated_files/timer/src/tmr0.c"
  4422 ;; Parameters:    Size  Location     Type
  4423 ;;		None
  4424 ;; Auto vars:     Size  Location     Type
  4425 ;;		None
  4426 ;; Return value:  Size  Location     Type
  4427 ;;                  1    wreg      void 
  4428 ;; Registers used:
  4429 ;;		None
  4430 ;; Tracked objects:
  4431 ;;		On entry : 0/0
  4432 ;;		On exit  : 0/0
  4433 ;;		Unchanged: 0/0
  4434 ;; Data sizes:     COMRAM   BANK5   BANK6   BANK7   BANK8   BANK9  BANK10  BANK11  BANK12  BANK13  BANK14  BANK15  BANK1
      +6  BANK17  BANK18  BANK19  BANK20  BANK21  BANK22  BANK23  BANK24  BANK25  BANK26  BANK27  BANK28  BANK29  BANK30  BANK3
      +1  BANK32  BANK33  BANK34  BANK35  BANK36
  4435 ;;      Params:         0       0       0       0       0       0       0       0       0       0       0       0       
      +0       0       0       0       0       0       0       0       0       0       0       0       0       0       0       
      +0       0       0       0       0       0
  4436 ;;      Locals:         0       0       0       0       0       0       0       0       0       0       0       0       
      +0       0       0       0       0       0       0       0       0       0       0       0       0       0       0       
      +0       0       0       0       0       0
  4437 ;;      Temps:          0       0       0       0       0       0       0       0       0       0       0       0       
      +0       0       0       0       0       0       0       0       0       0       0       0       0       0       0       
      +0       0       0       0       0       0
  4438 ;;      Totals:         0       0       0       0       0       0       0       0       0       0       0       0       
      +0       0       0       0       0       0       0       0       0       0       0       0       0       0       0       
      +0       0       0       0       0       0
  4439 ;;Total ram usage:        0 bytes
  4440 ;; Hardware stack levels used: 1
  4441 ;; This function calls:
  4442 ;;		Nothing
  4443 ;; This function is called by:
  4444 ;;		_TMR0_Initialize
  4445 ;;		_TMR0_OverflowISR
  4446 ;; This function uses a non-reentrant model
  4447 ;;
  4448                           
  4449                           	psect	text50
  4450   002E54                     __ptext50:
  4451                           	callstack 0
  4452   002E54                     _TMR0_DefaultOverflowCallback:
  4453                           	callstack 122
  4454                           
  4455                           ;incstack = 0
  4456   002E54  0012               	return		;funcret
  4457   002E56                     __end_of_TMR0_DefaultOverflowCallback:
  4458                           	callstack 0
  4459                           
  4460 ;; *************** function _tmr0Isr *****************
  4461 ;; Defined at:
  4462 ;;		line 69 in file "main.c"
  4463 ;; Parameters:    Size  Location     Type
  4464 ;;		None
  4465 ;; Auto vars:     Size  Location     Type
  4466 ;;		None
  4467 ;; Return value:  Size  Location     Type
  4468 ;;                  1    wreg      void 
  4469 ;; Registers used:
  4470 ;;		status,2, status,0
  4471 ;; Tracked objects:
  4472 ;;		On entry : 0/0
  4473 ;;		On exit  : 0/0
  4474 ;;		Unchanged: 0/0
  4475 ;; Data sizes:     COMRAM   BANK5   BANK6   BANK7   BANK8   BANK9  BANK10  BANK11  BANK12  BANK13  BANK14  BANK15  BANK1
      +6  BANK17  BANK18  BANK19  BANK20  BANK21  BANK22  BANK23  BANK24  BANK25  BANK26  BANK27  BANK28  BANK29  BANK30  BANK3
      +1  BANK32  BANK33  BANK34  BANK35  BANK36
  4476 ;;      Params:         0       0       0       0       0       0       0       0       0       0       0       0       
      +0       0       0       0       0       0       0       0       0       0       0       0       0       0       0       
      +0       0       0       0       0       0
  4477 ;;      Locals:         0       0       0       0       0       0       0       0       0       0       0       0       
      +0       0       0       0       0       0       0       0       0       0       0       0       0       0       0       
      +0       0       0       0       0       0
  4478 ;;      Temps:          0       0       0       0       0       0       0       0       0       0       0       0       
      +0       0       0       0       0       0       0       0       0       0       0       0       0       0       0       
      +0       0       0       0       0       0
  4479 ;;      Totals:         0       0       0       0       0       0       0       0       0       0       0       0       
      +0       0       0       0       0       0       0       0       0       0       0       0       0       0       0       
      +0       0       0       0       0       0
  4480 ;;Total ram usage:        0 bytes
  4481 ;; Hardware stack levels used: 1
  4482 ;; This function calls:
  4483 ;;		Nothing
  4484 ;; This function is called by:
  4485 ;;		_main
  4486 ;;		_TMR0_OverflowISR
  4487 ;; This function uses a non-reentrant model
  4488 ;;
  4489                           
  4490                           	psect	text51
  4491   002E2E                     __ptext51:
  4492                           	callstack 0
  4493   002E2E                     _tmr0Isr:
  4494                           	callstack 122
  4495                           
  4496                           ;main.c: 71:  count_out++;
  4497                           
  4498                           ;incstack = 0
  4499   002E2E  2A38               	incf	_count_out^(0+1280),f,c	;volatile
  4500                           
  4501                           ;main.c: 72:  bit_flag = 1;
  4502   002E30  825F               	bsf	(_bit_flag/(0+8))^(0+1280),_bit_flag& (0+7),c	;volatile
  4503   002E32  0012               	return		;funcret
  4504   002E34                     __end_of_tmr0Isr:
  4505                           	callstack 0
  4506                           
  4507 ;; *************** function _UART3_Receive_Vector_ISR *****************
  4508 ;; Defined at:
  4509 ;;		line 321 in file "mcc_generated_files/uart/src/uart3.c"
  4510 ;; Parameters:    Size  Location     Type
  4511 ;;		None
  4512 ;; Auto vars:     Size  Location     Type
  4513 ;;		None
  4514 ;; Return value:  Size  Location     Type
  4515 ;;                  1    wreg      void 
  4516 ;; Registers used:
  4517 ;;		wreg, fsr2l, fsr2h, status,2, status,0, pcl, pclath, pclatu, tosl, prodl, prodh, cstack
  4518 ;; Tracked objects:
  4519 ;;		On entry : 0/0
  4520 ;;		On exit  : 0/0
  4521 ;;		Unchanged: 0/0
  4522 ;; Data sizes:     COMRAM   BANK5   BANK6   BANK7   BANK8   BANK9  BANK10  BANK11  BANK12  BANK13  BANK14  BANK15  BANK1
      +6  BANK17  BANK18  BANK19  BANK20  BANK21  BANK22  BANK23  BANK24  BANK25  BANK26  BANK27  BANK28  BANK29  BANK30  BANK3
      +1  BANK32  BANK33  BANK34  BANK35  BANK36
  4523 ;;      Params:         0       0       0       0       0       0       0       0       0       0       0       0       
      +0       0       0       0       0       0       0       0       0       0       0       0       0       0       0       
      +0       0       0       0       0       0
  4524 ;;      Locals:         0       0       0       0       0       0       0       0       0       0       0       0       
      +0       0       0       0       0       0       0       0       0       0       0       0       0       0       0       
      +0       0       0       0       0       0
  4525 ;;      Temps:          2       0       0       0       0       0       0       0       0       0       0       0       
      +0       0       0       0       0       0       0       0       0       0       0       0       0       0       0       
      +0       0       0       0       0       0
  4526 ;;      Totals:         2       0       0       0       0       0       0       0       0       0       0       0       
      +0       0       0       0       0       0       0       0       0       0       0       0       0       0       0       
      +0       0       0       0       0       0
  4527 ;;Total ram usage:        2 bytes
  4528 ;; Hardware stack levels used: 1
  4529 ;; Hardware stack levels required when called: 2
  4530 ;; This function calls:
  4531 ;;		_UART3_ReceiveISR
  4532 ;; This function is called by:
  4533 ;;		Interrupt level 2
  4534 ;; This function uses a non-reentrant model
  4535 ;;
  4536                           
  4537                           	psect	text52
  4538   002D6C                     __ptext52:
  4539                           	callstack 0
  4540   002D6C                     _UART3_Receive_Vector_ISR:
  4541                           	callstack 121
  4542                           
  4543                           ;incstack = 0
  4544   002D6C  C4FA F549          	movff	pclath,??_UART3_Receive_Vector_ISR
  4545   002D70  C4FB F54A          	movff	pclatu,??_UART3_Receive_Vector_ISR+1
  4546                           
  4547                           ;mcc_generated_files/uart/src/uart3.c: 323:     UART3_ReceiveISR();
  4548   002D74  ECC2  F012         	call	_UART3_ReceiveISR	;wreg free
  4549   002D78  C54A  F4FB         	movff	??_UART3_Receive_Vector_ISR+1,pclatu
  4550   002D7C  C549  F4FA         	movff	??_UART3_Receive_Vector_ISR,pclath
  4551   002D80  0011               	retfie		f
  4552   002D82                     __end_of_UART3_Receive_Vector_ISR:
  4553                           	callstack 0
  4554                           
  4555 ;; *************** function _UART3_ReceiveISR *****************
  4556 ;; Defined at:
  4557 ;;		line 326 in file "mcc_generated_files/uart/src/uart3.c"
  4558 ;; Parameters:    Size  Location     Type
  4559 ;;		None
  4560 ;; Auto vars:     Size  Location     Type
  4561 ;;  tempRxHead      1    9[COMRAM] unsigned char 
  4562 ;;  regValue        1    8[COMRAM] unsigned char 
  4563 ;; Return value:  Size  Location     Type
  4564 ;;                  1    wreg      void 
  4565 ;; Registers used:
  4566 ;;		wreg, fsr2l, fsr2h, status,2, status,0, pcl, pclath, pclatu, tosl, prodl, prodh, cstack
  4567 ;; Tracked objects:
  4568 ;;		On entry : 0/0
  4569 ;;		On exit  : 0/0
  4570 ;;		Unchanged: 0/0
  4571 ;; Data sizes:     COMRAM   BANK5   BANK6   BANK7   BANK8   BANK9  BANK10  BANK11  BANK12  BANK13  BANK14  BANK15  BANK1
      +6  BANK17  BANK18  BANK19  BANK20  BANK21  BANK22  BANK23  BANK24  BANK25  BANK26  BANK27  BANK28  BANK29  BANK30  BANK3
      +1  BANK32  BANK33  BANK34  BANK35  BANK36
  4572 ;;      Params:         0       0       0       0       0       0       0       0       0       0       0       0       
      +0       0       0       0       0       0       0       0       0       0       0       0       0       0       0       
      +0       0       0       0       0       0
  4573 ;;      Locals:         2       0       0       0       0       0       0       0       0       0       0       0       
      +0       0       0       0       0       0       0       0       0       0       0       0       0       0       0       
      +0       0       0       0       0       0
  4574 ;;      Temps:          0       0       0       0       0       0       0       0       0       0       0       0       
      +0       0       0       0       0       0       0       0       0       0       0       0       0       0       0       
      +0       0       0       0       0       0
  4575 ;;      Totals:         2       0       0       0       0       0       0       0       0       0       0       0       
      +0       0       0       0       0       0       0       0       0       0       0       0       0       0       0       
      +0       0       0       0       0       0
  4576 ;;Total ram usage:        2 bytes
  4577 ;; Hardware stack levels used: 1
  4578 ;; Hardware stack levels required when called: 1
  4579 ;; This function calls:
  4580 ;;		NULL
  4581 ;;		_UART3_DefaultFramingErrorCallback
  4582 ;;		_UART3_DefaultOverrunErrorCallback
  4583 ;;		_u3rxIsr
  4584 ;; This function is called by:
  4585 ;;		_UART3_Initialize
  4586 ;;		_UART3_Receive_Vector_ISR
  4587 ;; This function uses a non-reentrant model
  4588 ;;
  4589                           
  4590                           	psect	text53
  4591   002584                     __ptext53:
  4592                           	callstack 0
  4593   002584                     _UART3_ReceiveISR:
  4594                           	callstack 121
  4595                           
  4596                           ;mcc_generated_files/uart/src/uart3.c: 328:     uint8_t regValue;;mcc_generated_files/ua
      +                          rt/src/uart3.c: 329:  uint8_t tempRxHead;;mcc_generated_files/uart/src/uart3.c: 331:    
      +                           uart3RxStatusBuffer[uart3RxHead].status = 0;
  4597                           
  4598                           ;incstack = 0
  4599   002584  503B               	movf	_uart3RxHead^(0+1280),w,c	;volatile
  4600   002586  0D02               	mullw	2
  4601   002588  0E01               	movlw	low _uart3RxStatusBuffer
  4602   00258A  24F3               	addwf	243,w,c
  4603   00258C  6ED9               	movwf	fsr2l,c
  4604   00258E  0E05               	movlw	high _uart3RxStatusBuffer
  4605   002590  20F4               	addwfc	prodh,w,c
  4606   002592  6EDA               	movwf	fsr2h,c
  4607   002594  6ADE               	clrf	postinc2,c
  4608   002596  6ADD               	clrf	postdec2,c
  4609                           
  4610                           ;mcc_generated_files/uart/src/uart3.c: 333:     if(U3ERRIRbits.FERIF)
  4611   002598  0102               	movlb	2	; () banked
  4612   00259A  A7D8               	btfss	216,3,b	;volatile
  4613   00259C  D01A               	goto	i2u52_49
  4614                           
  4615                           ; BSR set to: 2
  4616                           ;mcc_generated_files/uart/src/uart3.c: 334:     {;mcc_generated_files/uart/src/uart3.c: 
      +                          335:         uart3RxStatusBuffer[uart3RxHead].ferr = 1;
  4617   00259E  503B               	movf	_uart3RxHead^(0+1280),w,c	;volatile
  4618   0025A0  0D02               	mullw	2
  4619   0025A2  0E01               	movlw	low _uart3RxStatusBuffer
  4620   0025A4  24F3               	addwf	243,w,c
  4621   0025A6  6ED9               	movwf	fsr2l,c
  4622   0025A8  0E05               	movlw	high _uart3RxStatusBuffer
  4623   0025AA  20F4               	addwfc	prodh,w,c
  4624   0025AC  6EDA               	movwf	fsr2h,c
  4625   0025AE  82DF               	bsf	indf2,1,c
  4626                           
  4627                           ; BSR set to: 2
  4628                           ;mcc_generated_files/uart/src/uart3.c: 336:         if(((void*)0) != UART3_FramingErrorH
      +                          andler)
  4629   0025B0  5025               	movf	_UART3_FramingErrorHandler^(0+1280),w,c
  4630   0025B2  1026               	iorwf	(_UART3_FramingErrorHandler+1)^(0+1280),w,c
  4631   0025B4  1027               	iorwf	(_UART3_FramingErrorHandler+2)^(0+1280),w,c
  4632   0025B6  B4D8               	btfsc	status,2,c
  4633   0025B8  D00C               	goto	i2u52_49
  4634                           
  4635                           ; BSR set to: 2
  4636                           ;mcc_generated_files/uart/src/uart3.c: 337:         {;mcc_generated_files/uart/src/uart3
      +                          .c: 338:             UART3_FramingErrorHandler();
  4637   0025BA  D801               	call	i2u52_48
  4638   0025BC  D00A               	goto	i2u52_49
  4639   0025BE                     i2u52_48:
  4640   0025BE  0005               	push	
  4641   0025C0  6EFA               	movwf	pclath,c
  4642   0025C2  5025               	movf	_UART3_FramingErrorHandler^(0+1280),w,c
  4643   0025C4  6EFD               	movwf	tosl,c
  4644   0025C6  5026               	movf	(_UART3_FramingErrorHandler+1)^(0+1280),w,c
  4645   0025C8  6EFE               	movwf	tosh,c
  4646   0025CA  5027               	movf	(_UART3_FramingErrorHandler+2)^(0+1280),w,c
  4647   0025CC  6EFF               	movwf	tosu,c
  4648   0025CE  50FA               	movf	pclath,w,c
  4649   0025D0  0012               	return		;indir
  4650   0025D2                     i2u52_49:
  4651                           
  4652                           ;mcc_generated_files/uart/src/uart3.c: 341:     if(U3ERRIRbits.RXFOIF)
  4653   0025D2  0102               	movlb	2	; () banked
  4654   0025D4  A3D8               	btfss	216,1,b	;volatile
  4655   0025D6  D01A               	goto	i2u55_49
  4656                           
  4657                           ; BSR set to: 2
  4658                           ;mcc_generated_files/uart/src/uart3.c: 342:     {;mcc_generated_files/uart/src/uart3.c: 
      +                          343:         uart3RxStatusBuffer[uart3RxHead].oerr = 1;
  4659   0025D8  503B               	movf	_uart3RxHead^(0+1280),w,c	;volatile
  4660   0025DA  0D02               	mullw	2
  4661   0025DC  0E01               	movlw	low _uart3RxStatusBuffer
  4662   0025DE  24F3               	addwf	243,w,c
  4663   0025E0  6ED9               	movwf	fsr2l,c
  4664   0025E2  0E05               	movlw	high _uart3RxStatusBuffer
  4665   0025E4  20F4               	addwfc	prodh,w,c
  4666   0025E6  6EDA               	movwf	fsr2h,c
  4667   0025E8  84DF               	bsf	indf2,2,c
  4668                           
  4669                           ; BSR set to: 2
  4670                           ;mcc_generated_files/uart/src/uart3.c: 344:         if(((void*)0) != UART3_OverrunErrorH
      +                          andler)
  4671   0025EA  5022               	movf	_UART3_OverrunErrorHandler^(0+1280),w,c
  4672   0025EC  1023               	iorwf	(_UART3_OverrunErrorHandler+1)^(0+1280),w,c
  4673   0025EE  1024               	iorwf	(_UART3_OverrunErrorHandler+2)^(0+1280),w,c
  4674   0025F0  B4D8               	btfsc	status,2,c
  4675   0025F2  D00C               	goto	i2u55_49
  4676                           
  4677                           ; BSR set to: 2
  4678                           ;mcc_generated_files/uart/src/uart3.c: 345:         {;mcc_generated_files/uart/src/uart3
      +                          .c: 346:             UART3_OverrunErrorHandler();
  4679   0025F4  D801               	call	i2u55_48
  4680   0025F6  D00A               	goto	i2u55_49
  4681   0025F8                     i2u55_48:
  4682   0025F8  0005               	push	
  4683   0025FA  6EFA               	movwf	pclath,c
  4684   0025FC  5022               	movf	_UART3_OverrunErrorHandler^(0+1280),w,c
  4685   0025FE  6EFD               	movwf	tosl,c
  4686   002600  5023               	movf	(_UART3_OverrunErrorHandler+1)^(0+1280),w,c
  4687   002602  6EFE               	movwf	tosh,c
  4688   002604  5024               	movf	(_UART3_OverrunErrorHandler+2)^(0+1280),w,c
  4689   002606  6EFF               	movwf	tosu,c
  4690   002608  50FA               	movf	pclath,w,c
  4691   00260A  0012               	return		;indir
  4692   00260C                     i2u55_49:
  4693                           
  4694                           ;mcc_generated_files/uart/src/uart3.c: 350:     regValue = U3RXB;
  4695   00260C  C2C7 F547          	movff	711,UART3_ReceiveISR@regValue	;volatile
  4696                           
  4697                           ;mcc_generated_files/uart/src/uart3.c: 352:     tempRxHead = (uart3RxHead + 1) & ((8) - 
      +                          1);
  4698   002610  283B               	incf	_uart3RxHead^(0+1280),w,c	;volatile
  4699   002612  0B07               	andlw	7
  4700   002614  6E48               	movwf	UART3_ReceiveISR@tempRxHead^(0+1280),c
  4701                           
  4702                           ;mcc_generated_files/uart/src/uart3.c: 353:     if (tempRxHead == uart3RxTail)
  4703   002616  503A               	movf	_uart3RxTail^(0+1280),w,c	;volatile
  4704   002618  1848               	xorwf	UART3_ReceiveISR@tempRxHead^(0+1280),w,c
  4705   00261A  B4D8               	btfsc	status,2,c
  4706   00261C  D00B               	goto	i2l2300
  4707                           
  4708                           ;mcc_generated_files/uart/src/uart3.c: 358:     {;mcc_generated_files/uart/src/uart3.c: 
      +                          359:         uart3RxBuffer[uart3RxHead] = regValue;
  4709   00261E  0E60               	movlw	low _uart3RxBuffer
  4710   002620  243B               	addwf	_uart3RxHead^(0+1280),w,c	;volatile
  4711   002622  6ED9               	movwf	fsr2l,c
  4712   002624  6ADA               	clrf	fsr2h,c
  4713   002626  0E05               	movlw	high _uart3RxBuffer
  4714   002628  22DA               	addwfc	fsr2h,f,c
  4715   00262A  C547  F4DF         	movff	UART3_ReceiveISR@regValue,indf2
  4716                           
  4717                           ;mcc_generated_files/uart/src/uart3.c: 360:   uart3RxHead = tempRxHead;
  4718   00262E  C548  F53B         	movff	UART3_ReceiveISR@tempRxHead,_uart3RxHead	;volatile
  4719                           
  4720                           ;mcc_generated_files/uart/src/uart3.c: 361:   uart3RxCount++;
  4721   002632  2A39               	incf	_uart3RxCount^(0+1280),f,c	;volatile
  4722   002634                     i2l2300:
  4723                           
  4724                           ;mcc_generated_files/uart/src/uart3.c: 364:     if(UART3_RxCompleteInterruptHandler != (
      +                          (void*)0))
  4725   002634  5019               	movf	_UART3_RxCompleteInterruptHandler^(0+1280),w,c
  4726   002636  101A               	iorwf	(_UART3_RxCompleteInterruptHandler+1)^(0+1280),w,c
  4727   002638  101B               	iorwf	(_UART3_RxCompleteInterruptHandler+2)^(0+1280),w,c
  4728   00263A  B4D8               	btfsc	status,2,c
  4729   00263C  0012               	return	
  4730                           
  4731                           ;mcc_generated_files/uart/src/uart3.c: 365:     {;mcc_generated_files/uart/src/uart3.c: 
      +                          366:         (*UART3_RxCompleteInterruptHandler)();
  4732   00263E  D801               	call	i2u58_48
  4733   002640  0012               	return	
  4734   002642                     i2u58_48:
  4735   002642  0005               	push	
  4736   002644  6EFA               	movwf	pclath,c
  4737   002646  5019               	movf	_UART3_RxCompleteInterruptHandler^(0+1280),w,c
  4738   002648  6EFD               	movwf	tosl,c
  4739   00264A  501A               	movf	(_UART3_RxCompleteInterruptHandler+1)^(0+1280),w,c
  4740   00264C  6EFE               	movwf	tosh,c
  4741   00264E  501B               	movf	(_UART3_RxCompleteInterruptHandler+2)^(0+1280),w,c
  4742   002650  6EFF               	movwf	tosu,c
  4743   002652  50FA               	movf	pclath,w,c
  4744   002654  0012               	return		;indir
  4745   002656                     __end_of_UART3_ReceiveISR:
  4746                           	callstack 0
  4747                           
  4748 ;; *************** function _u3rxIsr *****************
  4749 ;; Defined at:
  4750 ;;		line 75 in file "main.c"
  4751 ;; Parameters:    Size  Location     Type
  4752 ;;		None
  4753 ;; Auto vars:     Size  Location     Type
  4754 ;;		None
  4755 ;; Return value:  Size  Location     Type
  4756 ;;                  1    wreg      void 
  4757 ;; Registers used:
  4758 ;;		None
  4759 ;; Tracked objects:
  4760 ;;		On entry : 0/2
  4761 ;;		On exit  : 0/0
  4762 ;;		Unchanged: 0/0
  4763 ;; Data sizes:     COMRAM   BANK5   BANK6   BANK7   BANK8   BANK9  BANK10  BANK11  BANK12  BANK13  BANK14  BANK15  BANK1
      +6  BANK17  BANK18  BANK19  BANK20  BANK21  BANK22  BANK23  BANK24  BANK25  BANK26  BANK27  BANK28  BANK29  BANK30  BANK3
      +1  BANK32  BANK33  BANK34  BANK35  BANK36
  4764 ;;      Params:         0       0       0       0       0       0       0       0       0       0       0       0       
      +0       0       0       0       0       0       0       0       0       0       0       0       0       0       0       
      +0       0       0       0       0       0
  4765 ;;      Locals:         0       0       0       0       0       0       0       0       0       0       0       0       
      +0       0       0       0       0       0       0       0       0       0       0       0       0       0       0       
      +0       0       0       0       0       0
  4766 ;;      Temps:          0       0       0       0       0       0       0       0       0       0       0       0       
      +0       0       0       0       0       0       0       0       0       0       0       0       0       0       0       
      +0       0       0       0       0       0
  4767 ;;      Totals:         0       0       0       0       0       0       0       0       0       0       0       0       
      +0       0       0       0       0       0       0       0       0       0       0       0       0       0       0       
      +0       0       0       0       0       0
  4768 ;;Total ram usage:        0 bytes
  4769 ;; Hardware stack levels used: 1
  4770 ;; This function calls:
  4771 ;;		Nothing
  4772 ;; This function is called by:
  4773 ;;		_main
  4774 ;;		_UART3_ReceiveISR
  4775 ;; This function uses a non-reentrant model
  4776 ;;
  4777                           
  4778                           	psect	text54
  4779   002E34                     __ptext54:
  4780                           	callstack 0
  4781   002E34                     _u3rxIsr:
  4782                           	callstack 121
  4783                           
  4784                           ;main.c: 77:  data_recv = U3RXB;
  4785                           
  4786                           ;incstack = 0
  4787   002E34  C2C7 F537          	movff	711,_data_recv	;volatile
  4788   002E38  0012               	return		;funcret
  4789   002E3A                     __end_of_u3rxIsr:
  4790                           	callstack 0
  4791                           
  4792 ;; *************** function _UART3_DefaultOverrunErrorCallback *****************
  4793 ;; Defined at:
  4794 ;;		line 430 in file "mcc_generated_files/uart/src/uart3.c"
  4795 ;; Parameters:    Size  Location     Type
  4796 ;;		None
  4797 ;; Auto vars:     Size  Location     Type
  4798 ;;		None
  4799 ;; Return value:  Size  Location     Type
  4800 ;;                  1    wreg      void 
  4801 ;; Registers used:
  4802 ;;		None
  4803 ;; Tracked objects:
  4804 ;;		On entry : 3F/2
  4805 ;;		On exit  : 3F/2
  4806 ;;		Unchanged: 3F/0
  4807 ;; Data sizes:     COMRAM   BANK5   BANK6   BANK7   BANK8   BANK9  BANK10  BANK11  BANK12  BANK13  BANK14  BANK15  BANK1
      +6  BANK17  BANK18  BANK19  BANK20  BANK21  BANK22  BANK23  BANK24  BANK25  BANK26  BANK27  BANK28  BANK29  BANK30  BANK3
      +1  BANK32  BANK33  BANK34  BANK35  BANK36
  4808 ;;      Params:         0       0       0       0       0       0       0       0       0       0       0       0       
      +0       0       0       0       0       0       0       0       0       0       0       0       0       0       0       
      +0       0       0       0       0       0
  4809 ;;      Locals:         0       0       0       0       0       0       0       0       0       0       0       0       
      +0       0       0       0       0       0       0       0       0       0       0       0       0       0       0       
      +0       0       0       0       0       0
  4810 ;;      Temps:          0       0       0       0       0       0       0       0       0       0       0       0       
      +0       0       0       0       0       0       0       0       0       0       0       0       0       0       0       
      +0       0       0       0       0       0
  4811 ;;      Totals:         0       0       0       0       0       0       0       0       0       0       0       0       
      +0       0       0       0       0       0       0       0       0       0       0       0       0       0       0       
      +0       0       0       0       0       0
  4812 ;;Total ram usage:        0 bytes
  4813 ;; Hardware stack levels used: 1
  4814 ;; This function calls:
  4815 ;;		Nothing
  4816 ;; This function is called by:
  4817 ;;		_UART3_Initialize
  4818 ;;		_UART3_ReceiveISR
  4819 ;; This function uses a non-reentrant model
  4820 ;;
  4821                           
  4822                           	psect	text55
  4823   002E56                     __ptext55:
  4824                           	callstack 0
  4825   002E56                     _UART3_DefaultOverrunErrorCallback:
  4826                           	callstack 121
  4827                           
  4828                           ; BSR set to: 2
  4829                           
  4830                           ;incstack = 0
  4831   002E56  0012               	return		;funcret
  4832   002E58                     __end_of_UART3_DefaultOverrunErrorCallback:
  4833                           	callstack 0
  4834                           
  4835 ;; *************** function _UART3_DefaultFramingErrorCallback *****************
  4836 ;; Defined at:
  4837 ;;		line 425 in file "mcc_generated_files/uart/src/uart3.c"
  4838 ;; Parameters:    Size  Location     Type
  4839 ;;		None
  4840 ;; Auto vars:     Size  Location     Type
  4841 ;;		None
  4842 ;; Return value:  Size  Location     Type
  4843 ;;                  1    wreg      void 
  4844 ;; Registers used:
  4845 ;;		None
  4846 ;; Tracked objects:
  4847 ;;		On entry : 3F/2
  4848 ;;		On exit  : 3F/2
  4849 ;;		Unchanged: 3F/0
  4850 ;; Data sizes:     COMRAM   BANK5   BANK6   BANK7   BANK8   BANK9  BANK10  BANK11  BANK12  BANK13  BANK14  BANK15  BANK1
      +6  BANK17  BANK18  BANK19  BANK20  BANK21  BANK22  BANK23  BANK24  BANK25  BANK26  BANK27  BANK28  BANK29  BANK30  BANK3
      +1  BANK32  BANK33  BANK34  BANK35  BANK36
  4851 ;;      Params:         0       0       0       0       0       0       0       0       0       0       0       0       
      +0       0       0       0       0       0       0       0       0       0       0       0       0       0       0       
      +0       0       0       0       0       0
  4852 ;;      Locals:         0       0       0       0       0       0       0       0       0       0       0       0       
      +0       0       0       0       0       0       0       0       0       0       0       0       0       0       0       
      +0       0       0       0       0       0
  4853 ;;      Temps:          0       0       0       0       0       0       0       0       0       0       0       0       
      +0       0       0       0       0       0       0       0       0       0       0       0       0       0       0       
      +0       0       0       0       0       0
  4854 ;;      Totals:         0       0       0       0       0       0       0       0       0       0       0       0       
      +0       0       0       0       0       0       0       0       0       0       0       0       0       0       0       
      +0       0       0       0       0       0
  4855 ;;Total ram usage:        0 bytes
  4856 ;; Hardware stack levels used: 1
  4857 ;; This function calls:
  4858 ;;		Nothing
  4859 ;; This function is called by:
  4860 ;;		_UART3_Initialize
  4861 ;;		_UART3_ReceiveISR
  4862 ;; This function uses a non-reentrant model
  4863 ;;
  4864                           
  4865                           	psect	text56
  4866   002E58                     __ptext56:
  4867                           	callstack 0
  4868   002E58                     _UART3_DefaultFramingErrorCallback:
  4869                           	callstack 121
  4870                           
  4871                           ; BSR set to: 2
  4872                           
  4873                           ; BSR set to: 2
  4874                           ;incstack = 0
  4875   002E58  0012               	return		;funcret
  4876   002E5A                     __end_of_UART3_DefaultFramingErrorCallback:
  4877                           	callstack 0
  4878                           
  4879 ;; *************** function _UART3_Transmit_Vector_ISR *****************
  4880 ;; Defined at:
  4881 ;;		line 394 in file "mcc_generated_files/uart/src/uart3.c"
  4882 ;; Parameters:    Size  Location     Type
  4883 ;;		None
  4884 ;; Auto vars:     Size  Location     Type
  4885 ;;		None
  4886 ;; Return value:  Size  Location     Type
  4887 ;;                  1    wreg      void 
  4888 ;; Registers used:
  4889 ;;		wreg, fsr2l, fsr2h, status,2, status,0, cstack
  4890 ;; Tracked objects:
  4891 ;;		On entry : 0/0
  4892 ;;		On exit  : 0/0
  4893 ;;		Unchanged: 0/0
  4894 ;; Data sizes:     COMRAM   BANK5   BANK6   BANK7   BANK8   BANK9  BANK10  BANK11  BANK12  BANK13  BANK14  BANK15  BANK1
      +6  BANK17  BANK18  BANK19  BANK20  BANK21  BANK22  BANK23  BANK24  BANK25  BANK26  BANK27  BANK28  BANK29  BANK30  BANK3
      +1  BANK32  BANK33  BANK34  BANK35  BANK36
  4895 ;;      Params:         0       0       0       0       0       0       0       0       0       0       0       0       
      +0       0       0       0       0       0       0       0       0       0       0       0       0       0       0       
      +0       0       0       0       0       0
  4896 ;;      Locals:         0       0       0       0       0       0       0       0       0       0       0       0       
      +0       0       0       0       0       0       0       0       0       0       0       0       0       0       0       
      +0       0       0       0       0       0
  4897 ;;      Temps:          0       0       0       0       0       0       0       0       0       0       0       0       
      +0       0       0       0       0       0       0       0       0       0       0       0       0       0       0       
      +0       0       0       0       0       0
  4898 ;;      Totals:         0       0       0       0       0       0       0       0       0       0       0       0       
      +0       0       0       0       0       0       0       0       0       0       0       0       0       0       0       
      +0       0       0       0       0       0
  4899 ;;Total ram usage:        0 bytes
  4900 ;; Hardware stack levels used: 1
  4901 ;; Hardware stack levels required when called: 1
  4902 ;; This function calls:
  4903 ;;		_UART3_TransmitISR
  4904 ;; This function is called by:
  4905 ;;		Interrupt level 2
  4906 ;; This function uses a non-reentrant model
  4907 ;;
  4908                           
  4909                           	psect	text57
  4910   002E3C                     __ptext57:
  4911                           	callstack 0
  4912   002E3C                     _UART3_Transmit_Vector_ISR:
  4913                           	callstack 122
  4914                           
  4915                           ;mcc_generated_files/uart/src/uart3.c: 396:     UART3_TransmitISR();
  4916                           
  4917                           ; BSR set to: 2
  4918                           ;incstack = 0
  4919   002E3C  ECE1  F015         	call	_UART3_TransmitISR	;wreg free
  4920   002E40  0011               	retfie		f
  4921   002E42                     __end_of_UART3_Transmit_Vector_ISR:
  4922                           	callstack 0
  4923                           
  4924 ;; *************** function _UART3_TransmitISR *****************
  4925 ;; Defined at:
  4926 ;;		line 399 in file "mcc_generated_files/uart/src/uart3.c"
  4927 ;; Parameters:    Size  Location     Type
  4928 ;;		None
  4929 ;; Auto vars:     Size  Location     Type
  4930 ;;  tempTxTail      1   12[COMRAM] unsigned char 
  4931 ;; Return value:  Size  Location     Type
  4932 ;;                  1    wreg      void 
  4933 ;; Registers used:
  4934 ;;		wreg, fsr2l, fsr2h, status,2, status,0
  4935 ;; Tracked objects:
  4936 ;;		On entry : 0/0
  4937 ;;		On exit  : 0/0
  4938 ;;		Unchanged: 0/0
  4939 ;; Data sizes:     COMRAM   BANK5   BANK6   BANK7   BANK8   BANK9  BANK10  BANK11  BANK12  BANK13  BANK14  BANK15  BANK1
      +6  BANK17  BANK18  BANK19  BANK20  BANK21  BANK22  BANK23  BANK24  BANK25  BANK26  BANK27  BANK28  BANK29  BANK30  BANK3
      +1  BANK32  BANK33  BANK34  BANK35  BANK36
  4940 ;;      Params:         0       0       0       0       0       0       0       0       0       0       0       0       
      +0       0       0       0       0       0       0       0       0       0       0       0       0       0       0       
      +0       0       0       0       0       0
  4941 ;;      Locals:         1       0       0       0       0       0       0       0       0       0       0       0       
      +0       0       0       0       0       0       0       0       0       0       0       0       0       0       0       
      +0       0       0       0       0       0
  4942 ;;      Temps:          0       0       0       0       0       0       0       0       0       0       0       0       
      +0       0       0       0       0       0       0       0       0       0       0       0       0       0       0       
      +0       0       0       0       0       0
  4943 ;;      Totals:         1       0       0       0       0       0       0       0       0       0       0       0       
      +0       0       0       0       0       0       0       0       0       0       0       0       0       0       0       
      +0       0       0       0       0       0
  4944 ;;Total ram usage:        1 bytes
  4945 ;; Hardware stack levels used: 1
  4946 ;; This function calls:
  4947 ;;		Nothing
  4948 ;; This function is called by:
  4949 ;;		_UART3_Initialize
  4950 ;;		_UART3_Transmit_Vector_ISR
  4951 ;; This function uses a non-reentrant model
  4952 ;;
  4953                           
  4954                           	psect	text58
  4955   002BC2                     __ptext58:
  4956                           	callstack 0
  4957   002BC2                     _UART3_TransmitISR:
  4958                           	callstack 122
  4959                           
  4960                           ;mcc_generated_files/uart/src/uart3.c: 401:     uint8_t tempTxTail;;mcc_generated_files/
      +                          uart/src/uart3.c: 403:     if(sizeof(uart3TxBuffer) > uart3TxBufferRemaining)
  4961                           
  4962                           ;incstack = 0
  4963   002BC2  0E08               	movlw	8
  4964   002BC4  603C               	cpfslt	_uart3TxBufferRemaining^(0+1280),c
  4965   002BC6  D010               	goto	i2l697
  4966                           
  4967                           ;mcc_generated_files/uart/src/uart3.c: 404:     {;mcc_generated_files/uart/src/uart3.c: 
      +                          405:        U3TXB = uart3TxBuffer[uart3TxTail];
  4968   002BC8  0E11               	movlw	low _uart3TxBuffer
  4969   002BCA  243D               	addwf	_uart3TxTail^(0+1280),w,c	;volatile
  4970   002BCC  6ED9               	movwf	fsr2l,c
  4971   002BCE  6ADA               	clrf	fsr2h,c
  4972   002BD0  0E05               	movlw	high _uart3TxBuffer
  4973   002BD2  22DA               	addwfc	fsr2h,f,c
  4974   002BD4  50DF               	movf	indf2,w,c
  4975   002BD6  0102               	movlb	2	; () banked
  4976   002BD8  6FC9               	movwf	201,b	;volatile
  4977                           
  4978                           ; BSR set to: 2
  4979                           ;mcc_generated_files/uart/src/uart3.c: 406:        tempTxTail = (uart3TxTail + 1) & ((8)
      +                           - 1);
  4980   002BDA  283D               	incf	_uart3TxTail^(0+1280),w,c	;volatile
  4981   002BDC  0B07               	andlw	7
  4982   002BDE  6E4B               	movwf	UART3_TransmitISR@tempTxTail^(0+1280),c
  4983                           
  4984                           ; BSR set to: 2
  4985                           ;mcc_generated_files/uart/src/uart3.c: 408:        uart3TxTail = tempTxTail;
  4986   002BE0  C54B  F53D         	movff	UART3_TransmitISR@tempTxTail,_uart3TxTail	;volatile
  4987                           
  4988                           ; BSR set to: 2
  4989                           ;mcc_generated_files/uart/src/uart3.c: 409:        uart3TxBufferRemaining++;
  4990   002BE4  2A3C               	incf	_uart3TxBufferRemaining^(0+1280),f,c	;volatile
  4991                           
  4992                           ;mcc_generated_files/uart/src/uart3.c: 410:     }
  4993   002BE6  0012               	return	
  4994   002BE8                     i2l697:
  4995                           
  4996                           ;mcc_generated_files/uart/src/uart3.c: 412:     {;mcc_generated_files/uart/src/uart3.c: 
      +                          413:         PIE9bits.U3TXIE = 0;
  4997   002BE8  92A7               	bcf	167,1,c	;volatile
  4998   002BEA  0012               	return		;funcret
  4999   002BEC                     __end_of_UART3_TransmitISR:
  5000                           	callstack 0
  5001                           
  5002                           ;
  5003                           ; Interrupt Vector Table @ 0x8
  5004                           ;
  5005                           
  5006                           	psect	ivt0x8
  5007   000008                     __pivt0x8:
  5008                           	callstack 0
  5009   000008                     ivt0x8_base:
  5010                           	callstack 0
  5011                           
  5012                           ; Vector 0 : SWINT
  5013   000008  0B93               	dw	_Default_ISR shr (0+2)
  5014                           
  5015                           ; Vector 1 : HLVD
  5016   00000A  0B93               	dw	_Default_ISR shr (0+2)
  5017                           
  5018                           ; Vector 2 : OSF
  5019   00000C  0B93               	dw	_Default_ISR shr (0+2)
  5020                           
  5021                           ; Vector 3 : CSW
  5022   00000E  0B93               	dw	_Default_ISR shr (0+2)
  5023                           
  5024                           ; Vector 4 : Undefined
  5025   000010  0040               	dw	ivt0x8_undefint shr (0+2)
  5026                           
  5027                           ; Vector 5 : CLC1
  5028   000012  0B93               	dw	_Default_ISR shr (0+2)
  5029                           
  5030                           ; Vector 6 : Undefined
  5031   000014  0040               	dw	ivt0x8_undefint shr (0+2)
  5032                           
  5033                           ; Vector 7 : IOC
  5034   000016  0B93               	dw	_Default_ISR shr (0+2)
  5035                           
  5036                           ; Vector 8 : INT0
  5037   000018  0B49               	dw	_INT0_ISR shr (0+2)
  5038                           
  5039                           ; Vector 9 : ZCD
  5040   00001A  0B93               	dw	_Default_ISR shr (0+2)
  5041                           
  5042                           ; Vector 10 : AD
  5043   00001C  0B93               	dw	_Default_ISR shr (0+2)
  5044                           
  5045                           ; Vector 11 : ACT
  5046   00001E  0B93               	dw	_Default_ISR shr (0+2)
  5047                           
  5048                           ; Vector 12 : CMP1
  5049   000020  0B93               	dw	_Default_ISR shr (0+2)
  5050                           
  5051                           ; Vector 13 : SMT1
  5052   000022  0B93               	dw	_Default_ISR shr (0+2)
  5053                           
  5054                           ; Vector 14 : SMT1PRA
  5055   000024  0B93               	dw	_Default_ISR shr (0+2)
  5056                           
  5057                           ; Vector 15 : SMT1PRW
  5058   000026  0B93               	dw	_Default_ISR shr (0+2)
  5059                           
  5060                           ; Vector 16 : ADT
  5061   000028  0B93               	dw	_Default_ISR shr (0+2)
  5062                           
  5063                           ; Vector 17 : Undefined
  5064   00002A  0040               	dw	ivt0x8_undefint shr (0+2)
  5065                           
  5066                           ; Vector 18 : Undefined
  5067   00002C  0040               	dw	ivt0x8_undefint shr (0+2)
  5068                           
  5069                           ; Vector 19 : Undefined
  5070   00002E  0040               	dw	ivt0x8_undefint shr (0+2)
  5071                           
  5072                           ; Vector 20 : DMA1SCNT
  5073   000030  0B93               	dw	_Default_ISR shr (0+2)
  5074                           
  5075                           ; Vector 21 : DMA1DCNT
  5076   000032  0B93               	dw	_Default_ISR shr (0+2)
  5077                           
  5078                           ; Vector 22 : DMA1OR
  5079   000034  0B93               	dw	_Default_ISR shr (0+2)
  5080                           
  5081                           ; Vector 23 : DMA1A
  5082   000036  0B93               	dw	_Default_ISR shr (0+2)
  5083                           
  5084                           ; Vector 24 : SPI1RX
  5085   000038  0B93               	dw	_Default_ISR shr (0+2)
  5086                           
  5087                           ; Vector 25 : SPI1TX
  5088   00003A  0B93               	dw	_Default_ISR shr (0+2)
  5089                           
  5090                           ; Vector 26 : SPI1
  5091   00003C  0B93               	dw	_Default_ISR shr (0+2)
  5092                           
  5093                           ; Vector 27 : TMR2
  5094   00003E  0B93               	dw	_Default_ISR shr (0+2)
  5095                           
  5096                           ; Vector 28 : TMR1
  5097   000040  0B93               	dw	_Default_ISR shr (0+2)
  5098                           
  5099                           ; Vector 29 : TMR1G
  5100   000042  0B93               	dw	_Default_ISR shr (0+2)
  5101                           
  5102                           ; Vector 30 : CCP1
  5103   000044  0B93               	dw	_Default_ISR shr (0+2)
  5104                           
  5105                           ; Vector 31 : TMR0
  5106   000046  0A7F               	dw	_TMR0_OverflowISR shr (0+2)
  5107                           
  5108                           ; Vector 32 : U1RX
  5109   000048  0B93               	dw	_Default_ISR shr (0+2)
  5110                           
  5111                           ; Vector 33 : U1TX
  5112   00004A  0B93               	dw	_Default_ISR shr (0+2)
  5113                           
  5114                           ; Vector 34 : U1E
  5115   00004C  0B93               	dw	_Default_ISR shr (0+2)
  5116                           
  5117                           ; Vector 35 : U1
  5118   00004E  0B93               	dw	_Default_ISR shr (0+2)
  5119                           
  5120                           ; Vector 36 : Undefined
  5121   000050  0040               	dw	ivt0x8_undefint shr (0+2)
  5122                           
  5123                           ; Vector 37 : Undefined
  5124   000052  0040               	dw	ivt0x8_undefint shr (0+2)
  5125                           
  5126                           ; Vector 38 : PWM1PR
  5127   000054  0B93               	dw	_Default_ISR shr (0+2)
  5128                           
  5129                           ; Vector 39 : PWM1
  5130   000056  0B93               	dw	_Default_ISR shr (0+2)
  5131                           
  5132                           ; Vector 40 : SPI2RX
  5133   000058  0B93               	dw	_Default_ISR shr (0+2)
  5134                           
  5135                           ; Vector 41 : SPI2TX
  5136   00005A  0B93               	dw	_Default_ISR shr (0+2)
  5137                           
  5138                           ; Vector 42 : SPI2
  5139   00005C  0B93               	dw	_Default_ISR shr (0+2)
  5140                           
  5141                           ; Vector 43 : Undefined
  5142   00005E  0040               	dw	ivt0x8_undefint shr (0+2)
  5143                           
  5144                           ; Vector 44 : TMR3
  5145   000060  0B93               	dw	_Default_ISR shr (0+2)
  5146                           
  5147                           ; Vector 45 : TMR3G
  5148   000062  0B93               	dw	_Default_ISR shr (0+2)
  5149                           
  5150                           ; Vector 46 : PWM2PR
  5151   000064  0B93               	dw	_Default_ISR shr (0+2)
  5152                           
  5153                           ; Vector 47 : PWM2
  5154   000066  0B93               	dw	_Default_ISR shr (0+2)
  5155                           
  5156                           ; Vector 48 : INT1
  5157   000068  0B4F               	dw	_INT1_ISR shr (0+2)
  5158                           
  5159                           ; Vector 49 : CLC2
  5160   00006A  0B93               	dw	_Default_ISR shr (0+2)
  5161                           
  5162                           ; Vector 50 : CWG1
  5163   00006C  0B93               	dw	_Default_ISR shr (0+2)
  5164                           
  5165                           ; Vector 51 : NCO1
  5166   00006E  0B93               	dw	_Default_ISR shr (0+2)
  5167                           
  5168                           ; Vector 52 : DMA2SCNT
  5169   000070  0B93               	dw	_Default_ISR shr (0+2)
  5170                           
  5171                           ; Vector 53 : DMA2DCNT
  5172   000072  0B93               	dw	_Default_ISR shr (0+2)
  5173                           
  5174                           ; Vector 54 : DMA2OR
  5175   000074  0B93               	dw	_Default_ISR shr (0+2)
  5176                           
  5177                           ; Vector 55 : DMA2A
  5178   000076  0B93               	dw	_Default_ISR shr (0+2)
  5179                           
  5180                           ; Vector 56 : I2C1RX
  5181   000078  0B93               	dw	_Default_ISR shr (0+2)
  5182                           
  5183                           ; Vector 57 : I2C1TX
  5184   00007A  0B93               	dw	_Default_ISR shr (0+2)
  5185                           
  5186                           ; Vector 58 : I2C1
  5187   00007C  0B93               	dw	_Default_ISR shr (0+2)
  5188                           
  5189                           ; Vector 59 : I2C1E
  5190   00007E  0B93               	dw	_Default_ISR shr (0+2)
  5191                           
  5192                           ; Vector 60 : Undefined
  5193   000080  0040               	dw	ivt0x8_undefint shr (0+2)
  5194                           
  5195                           ; Vector 61 : CLC3
  5196   000082  0B93               	dw	_Default_ISR shr (0+2)
  5197                           
  5198                           ; Vector 62 : PWM3PR
  5199   000084  0B93               	dw	_Default_ISR shr (0+2)
  5200                           
  5201                           ; Vector 63 : PWM3
  5202   000086  0B93               	dw	_Default_ISR shr (0+2)
  5203                           
  5204                           ; Vector 64 : U2RX
  5205   000088  0B93               	dw	_Default_ISR shr (0+2)
  5206                           
  5207                           ; Vector 65 : U2TX
  5208   00008A  0B93               	dw	_Default_ISR shr (0+2)
  5209                           
  5210                           ; Vector 66 : U2E
  5211   00008C  0B93               	dw	_Default_ISR shr (0+2)
  5212                           
  5213                           ; Vector 67 : U2
  5214   00008E  0B93               	dw	_Default_ISR shr (0+2)
  5215                           
  5216                           ; Vector 68 : TMR5
  5217   000090  0B93               	dw	_Default_ISR shr (0+2)
  5218                           
  5219                           ; Vector 69 : TMR5G
  5220   000092  0B93               	dw	_Default_ISR shr (0+2)
  5221                           
  5222                           ; Vector 70 : CCP2
  5223   000094  0B93               	dw	_Default_ISR shr (0+2)
  5224                           
  5225                           ; Vector 71 : SCAN
  5226   000096  0B93               	dw	_Default_ISR shr (0+2)
  5227                           
  5228                           ; Vector 72 : U3RX
  5229   000098  0B5B               	dw	_UART3_Receive_Vector_ISR shr (0+2)
  5230                           
  5231                           ; Vector 73 : U3TX
  5232   00009A  0B8F               	dw	_UART3_Transmit_Vector_ISR shr (0+2)
  5233                           
  5234                           ; Vector 74 : U3E
  5235   00009C  0B93               	dw	_Default_ISR shr (0+2)
  5236                           
  5237                           ; Vector 75 : U3
  5238   00009E  0B93               	dw	_Default_ISR shr (0+2)
  5239                           
  5240                           ; Vector 76 : Undefined
  5241   0000A0  0040               	dw	ivt0x8_undefint shr (0+2)
  5242                           
  5243                           ; Vector 77 : CLC4
  5244   0000A2  0B93               	dw	_Default_ISR shr (0+2)
  5245                           
  5246                           ; Vector 78 : Undefined
  5247   0000A4  0040               	dw	ivt0x8_undefint shr (0+2)
  5248                           
  5249                           ; Vector 79 : Undefined
  5250   0000A6  0040               	dw	ivt0x8_undefint shr (0+2)
  5251                           
  5252                           ; Vector 80 : INT2
  5253   0000A8  0B55               	dw	_INT2_ISR shr (0+2)
  5254                           
  5255                           ; Vector 81 : CLC5
  5256   0000AA  0B93               	dw	_Default_ISR shr (0+2)
  5257                           
  5258                           ; Vector 82 : CWG2
  5259   0000AC  0B93               	dw	_Default_ISR shr (0+2)
  5260                           
  5261                           ; Vector 83 : NCO2
  5262   0000AE  0B93               	dw	_Default_ISR shr (0+2)
  5263                           
  5264                           ; Vector 84 : DMA3SCNT
  5265   0000B0  0B93               	dw	_Default_ISR shr (0+2)
  5266                           
  5267                           ; Vector 85 : DMA3DCNT
  5268   0000B2  0B93               	dw	_Default_ISR shr (0+2)
  5269                           
  5270                           ; Vector 86 : DMA3OR
  5271   0000B4  0B93               	dw	_Default_ISR shr (0+2)
  5272                           
  5273                           ; Vector 87 : DMA3A
  5274   0000B6  0B93               	dw	_Default_ISR shr (0+2)
  5275                           
  5276                           ; Vector 88 : CCP3
  5277   0000B8  0B93               	dw	_Default_ISR shr (0+2)
  5278                           
  5279                           ; Vector 89 : CLC6
  5280   0000BA  0B93               	dw	_Default_ISR shr (0+2)
  5281                           
  5282                           ; Vector 90 : CWG3
  5283   0000BC  0B93               	dw	_Default_ISR shr (0+2)
  5284                           
  5285                           ; Vector 91 : TMR4
  5286   0000BE  0B93               	dw	_Default_ISR shr (0+2)
  5287                           
  5288                           ; Vector 92 : DMA4SCNT
  5289   0000C0  0B93               	dw	_Default_ISR shr (0+2)
  5290                           
  5291                           ; Vector 93 : DMA4DCNT
  5292   0000C2  0B93               	dw	_Default_ISR shr (0+2)
  5293                           
  5294                           ; Vector 94 : DMA4OR
  5295   0000C4  0B93               	dw	_Default_ISR shr (0+2)
  5296                           
  5297                           ; Vector 95 : DMA4A
  5298   0000C6  0B93               	dw	_Default_ISR shr (0+2)
  5299                           
  5300                           ; Vector 96 : U4RX
  5301   0000C8  0B93               	dw	_Default_ISR shr (0+2)
  5302                           
  5303                           ; Vector 97 : U4TX
  5304   0000CA  0B93               	dw	_Default_ISR shr (0+2)
  5305                           
  5306                           ; Vector 98 : U4E
  5307   0000CC  0B93               	dw	_Default_ISR shr (0+2)
  5308                           
  5309                           ; Vector 99 : U4
  5310   0000CE  0B93               	dw	_Default_ISR shr (0+2)
  5311                           
  5312                           ; Vector 100 : DMA5SCNT
  5313   0000D0  0B93               	dw	_Default_ISR shr (0+2)
  5314                           
  5315                           ; Vector 101 : DMA5DCNT
  5316   0000D2  0B93               	dw	_Default_ISR shr (0+2)
  5317                           
  5318                           ; Vector 102 : DMA5OR
  5319   0000D4  0B93               	dw	_Default_ISR shr (0+2)
  5320                           
  5321                           ; Vector 103 : DMA5A
  5322   0000D6  0B93               	dw	_Default_ISR shr (0+2)
  5323                           
  5324                           ; Vector 104 : U5RX
  5325   0000D8  0B93               	dw	_Default_ISR shr (0+2)
  5326                           
  5327                           ; Vector 105 : U5TX
  5328   0000DA  0B93               	dw	_Default_ISR shr (0+2)
  5329                           
  5330                           ; Vector 106 : U5E
  5331   0000DC  0B93               	dw	_Default_ISR shr (0+2)
  5332                           
  5333                           ; Vector 107 : U5
  5334   0000DE  0B93               	dw	_Default_ISR shr (0+2)
  5335                           
  5336                           ; Vector 108 : DMA6SCNT
  5337   0000E0  0B93               	dw	_Default_ISR shr (0+2)
  5338                           
  5339                           ; Vector 109 : DMA6DCNT
  5340   0000E2  0B93               	dw	_Default_ISR shr (0+2)
  5341                           
  5342                           ; Vector 110 : DMA6OR
  5343   0000E4  0B93               	dw	_Default_ISR shr (0+2)
  5344                           
  5345                           ; Vector 111 : DMA6A
  5346   0000E6  0B93               	dw	_Default_ISR shr (0+2)
  5347                           
  5348                           ; Vector 112 : Undefined
  5349   0000E8  0040               	dw	ivt0x8_undefint shr (0+2)
  5350                           
  5351                           ; Vector 113 : CLC7
  5352   0000EA  0B93               	dw	_Default_ISR shr (0+2)
  5353                           
  5354                           ; Vector 114 : CMP2
  5355   0000EC  0B93               	dw	_Default_ISR shr (0+2)
  5356                           
  5357                           ; Vector 115 : NCO3
  5358   0000EE  0B93               	dw	_Default_ISR shr (0+2)
  5359                           
  5360                           ; Vector 116 : Undefined
  5361   0000F0  0040               	dw	ivt0x8_undefint shr (0+2)
  5362                           
  5363                           ; Vector 117 : Undefined
  5364   0000F2  0040               	dw	ivt0x8_undefint shr (0+2)
  5365                           
  5366                           ; Vector 118 : Undefined
  5367   0000F4  0040               	dw	ivt0x8_undefint shr (0+2)
  5368                           
  5369                           ; Vector 119 : Undefined
  5370   0000F6  0040               	dw	ivt0x8_undefint shr (0+2)
  5371                           
  5372                           ; Vector 120 : NVM
  5373   0000F8  0B93               	dw	_Default_ISR shr (0+2)
  5374                           
  5375                           ; Vector 121 : CLC8
  5376   0000FA  0B93               	dw	_Default_ISR shr (0+2)
  5377                           
  5378                           ; Vector 122 : CRC
  5379   0000FC  0B93               	dw	_Default_ISR shr (0+2)
  5380                           
  5381                           ; Vector 123 : TMR6
  5382   0000FE  0B93               	dw	_Default_ISR shr (0+2)
  5383   000100                     ivt0x8_undefint:
  5384                           	callstack 0
  5385   000100  00FF               	reset	
  5386                           
  5387                           	psect	text59
  5388   000000                     __ptext59:
  5389                           	callstack 0
  5390                           
  5391                           	psect	rparam
  5392   000000                     
  5393                           	psect	config
  5394                           
  5395                           ;Config register CONFIG1 @ 0x300000
  5396                           ;	External Oscillator Selection
  5397                           ;	FEXTOSC = OFF, Oscillator not enabled
  5398                           ;	Reset Oscillator Selection
  5399                           ;	RSTOSC = HFINTOSC_64MHZ, HFINTOSC with HFFRQ = 64 MHz and CDIV = 1:1
  5400   300000                     	org	3145728
  5401   300000  8C                 	db	140
  5402                           
  5403                           ;Config register CONFIG2 @ 0x300001
  5404                           ;	Clock out Enable bit
  5405                           ;	CLKOUTEN = OFF, CLKOUT function is disabled
  5406                           ;	PRLOCKED One-Way Set Enable bit
  5407                           ;	PR1WAY = ON, PRLOCKED bit can be cleared and set only once
  5408                           ;	Clock Switch Enable bit
  5409                           ;	CSWEN = ON, Writing to NOSC and NDIV is allowed
  5410                           ;	Fail-Safe Clock Monitor Enable bit
  5411                           ;	FCMEN = ON, Fail-Safe Clock Monitor enabled
  5412   300001                     	org	3145729
  5413   300001  FF                 	db	255
  5414                           
  5415                           ;Config register CONFIG3 @ 0x300002
  5416                           ;	MCLR Enable bit
  5417                           ;	MCLRE = EXTMCLR, If LVP = 0, MCLR pin is MCLR; If LVP = 1, RE3 pin function is MCLR
  5418                           ;	Power-up timer selection bits
  5419                           ;	PWRTS = PWRT_OFF, PWRT is disabled
  5420                           ;	Multi-vector enable bit
  5421                           ;	MVECEN = ON, Multi-vector enabled, Vector table used for interrupts
  5422                           ;	IVTLOCK bit One-way set enable bit
  5423                           ;	IVT1WAY = ON, IVTLOCKED bit can be cleared and set only once
  5424                           ;	Low Power BOR Enable bit
  5425                           ;	LPBOREN = OFF, Low-Power BOR disabled
  5426                           ;	Brown-out Reset Enable bits
  5427                           ;	BOREN = SBORDIS, Brown-out Reset enabled , SBOREN bit is ignored
  5428   300002                     	org	3145730
  5429   300002  FF                 	db	255
  5430                           
  5431                           ;Config register CONFIG4 @ 0x300003
  5432                           ;	Brown-out Reset Voltage Selection bits
  5433                           ;	BORV = VBOR_1P9, Brown-out Reset Voltage (VBOR) set to 1.9V
  5434                           ;	ZCD Disable bit
  5435                           ;	ZCD = OFF, ZCD module is disabled. ZCD can be enabled by setting the ZCDSEN bit of ZCD
      +                          CON
  5436                           ;	PPSLOCK bit One-Way Set Enable bit
  5437                           ;	PPS1WAY = OFF, PPSLOCKED bit can be set and cleared repeatedly (subject to the unlock 
      +                          sequence)
  5438                           ;	Stack Full/Underflow Reset Enable bit
  5439                           ;	STVREN = ON, Stack full/underflow will cause Reset
  5440                           ;	Low Voltage Programming Enable bit
  5441                           ;	LVP = ON, Low voltage programming enabled. MCLR/VPP pin function is MCLR. MCLRE config
      +                          uration bit is ignored
  5442                           ;	Extended Instruction Set Enable bit
  5443                           ;	XINST = OFF, Extended Instruction Set and Indexed Addressing Mode disabled
  5444   300003                     	org	3145731
  5445   300003  F7                 	db	247
  5446                           
  5447                           ;Config register CONFIG5 @ 0x300004
  5448                           ;	WDT Period selection bits
  5449                           ;	WDTCPS = WDTCPS_31, Divider ratio 1:65536; software control of WDTPS
  5450                           ;	WDT operating mode
  5451                           ;	WDTE = OFF, WDT Disabled; SWDTEN is ignored
  5452   300004                     	org	3145732
  5453   300004  9F                 	db	159
  5454                           
  5455                           ;Config register CONFIG6 @ 0x300005
  5456                           ;	WDT Window Select bits
  5457                           ;	WDTCWS = WDTCWS_7, window always open (100%); software control; keyed access not requi
      +                          red
  5458                           ;	WDT input clock selector
  5459                           ;	WDTCCS = SC, Software Control
  5460   300005                     	org	3145733
  5461   300005  FF                 	db	255
  5462                           
  5463                           ;Config register CONFIG7 @ 0x300006
  5464                           ;	Boot Block Size selection bits
  5465                           ;	BBSIZE = BBSIZE_512, Boot Block size is 512 words
  5466                           ;	Boot Block enable bit
  5467                           ;	BBEN = OFF, Boot block disabled
  5468                           ;	Storage Area Flash enable bit
  5469                           ;	SAFEN = OFF, SAF disabled
  5470                           ;	Background Debugger
  5471                           ;	DEBUG = 0x1, unprogrammed default
  5472   300006                     	org	3145734
  5473   300006  FF                 	db	255
  5474                           
  5475                           ;Config register CONFIG8 @ 0x300007
  5476                           ;	Boot Block Write Protection bit
  5477                           ;	WRTB = OFF, Boot Block not Write protected
  5478                           ;	Configuration Register Write Protection bit
  5479                           ;	WRTC = OFF, Configuration registers not Write protected
  5480                           ;	Data EEPROM Write Protection bit
  5481                           ;	WRTD = OFF, Data EEPROM not Write protected
  5482                           ;	SAF Write protection bit
  5483                           ;	WRTSAF = OFF, SAF not Write Protected
  5484                           ;	Application Block write protection bit
  5485                           ;	WRTAPP = OFF, Application Block not write protected
  5486   300007                     	org	3145735
  5487   300007  FF                 	db	255
  5488                           
  5489                           ;Config register CONFIG10 @ 0x300009
  5490                           ;	PFM and Data EEPROM Code Protection bit
  5491                           ;	CP = OFF, PFM and Data EEPROM code protection disabled
  5492   300009                     	org	3145737
  5493   300009  FF                 	db	255
  5494                           tosu	equ	0x4FF
  5495                           tosh	equ	0x4FE
  5496                           tosl	equ	0x4FD
  5497                           stkptr	equ	0x4FC
  5498                           pclatu	equ	0x4FB
  5499                           pclath	equ	0x4FA
  5500                           pcl	equ	0x4F9
  5501                           tblptru	equ	0x4F8
  5502                           tblptrh	equ	0x4F7
  5503                           tblptrl	equ	0x4F6
  5504                           tablat	equ	0x4F5
  5505                           prodh	equ	0x4F4
  5506                           prodl	equ	0x4F3
  5507                           indf0	equ	0x4EF
  5508                           postinc0	equ	0x4EE
  5509                           postdec0	equ	0x4ED
  5510                           preinc0	equ	0x4EC
  5511                           plusw0	equ	0x4EB
  5512                           fsr0h	equ	0x4EA
  5513                           fsr0l	equ	0x4E9
  5514                           wreg	equ	0x4E8
  5515                           indf1	equ	0x4E7
  5516                           postinc1	equ	0x4E6
  5517                           postdec1	equ	0x4E5
  5518                           preinc1	equ	0x4E4
  5519                           plusw1	equ	0x4E3
  5520                           fsr1h	equ	0x4E2
  5521                           fsr1l	equ	0x4E1
  5522                           bsr	equ	0x4E0
  5523                           indf2	equ	0x4DF
  5524                           postinc2	equ	0x4DE
  5525                           postdec2	equ	0x4DD
  5526                           preinc2	equ	0x4DC
  5527                           plusw2	equ	0x4DB
  5528                           fsr2h	equ	0x4DA
  5529                           fsr2l	equ	0x4D9
  5530                           status	equ	0x4D8

Data Sizes:
    Strings     0
    Constant    129
    Data        0
    BSS         70
    Persistent  9
    Stack       0

Auto Spaces:
    Space          Size  Autos    Used
    COMRAM           95     26      95
    BANK5           160      0      11
    BANK6           256      0       0
    BANK7           256      0       0
    BANK8           256      0       0
    BANK9           256      0       0
    BANK10          256      0       0
    BANK11          256      0       0
    BANK12          256      0       0
    BANK13          256      0       0
    BANK14          256      0       0
    BANK15          256      0       0
    BANK16          256      0       0
    BANK17          256      0       0
    BANK18          256      0       0
    BANK19          256      0       0
    BANK20          256      0       0
    BANK21          256      0       0
    BANK22          256      0       0
    BANK23          256      0       0
    BANK24          256      0       0
    BANK25          256      0       0
    BANK26          256      0       0
    BANK27          256      0       0
    BANK28          256      0       0
    BANK29          256      0       0
    BANK30          256      0       0
    BANK31          256      0       0
    BANK32          256      0       0
    BANK33          256      0       0
    BANK34          256      0       0
    BANK35          256      0       0
    BANK36          256      0       0

Pointer List with Targets:

    INT0_InterruptHandler	PTR FTN()void  size(3) Largest target is 1
		 -> INT0_DefaultInterruptHandler(), int0Isr(), NULL(), 

    INT0_SetInterruptHandler@InterruptHandler	PTR FTN()void  size(3) Largest target is 1
		 -> INT0_DefaultInterruptHandler(), int0Isr(), 

    INT1_InterruptHandler	PTR FTN()void  size(3) Largest target is 1
		 -> INT1_DefaultInterruptHandler(), NULL(), 

    INT1_SetInterruptHandler@InterruptHandler	PTR FTN()void  size(3) Largest target is 1
		 -> INT1_DefaultInterruptHandler(), 

    INT2_InterruptHandler	PTR FTN()void  size(3) Largest target is 1
		 -> INT2_DefaultInterruptHandler(), NULL(), 

    INT2_SetInterruptHandler@InterruptHandler	PTR FTN()void  size(3) Largest target is 1
		 -> INT2_DefaultInterruptHandler(), 

    S659$4$0	PTR FTN()void  size(3) Largest target is 1
		 -> TMR0_DefaultOverflowCallback(), tmr0Isr(), 

    S659TMR_INTERFACE$Initialize	PTR FTN()void  size(3) Largest target is 1
		 -> TMR0_Initialize(), 

    S659TMR_INTERFACE$PeriodCountSet	PTR FTN(unsigned int ,)void  size(3) Largest target is 1
		 -> TMR0_PeriodCountSet(), 

    S659TMR_INTERFACE$Start	PTR FTN()void  size(3) Largest target is 1
		 -> TMR0_Start(), 

    S659TMR_INTERFACE$Stop	PTR FTN()void  size(3) Largest target is 1
		 -> TMR0_Stop(), 

    S659TMR_INTERFACE$Tasks	PTR FTN()void  size(3) Largest target is 1
		 -> NULL(), 

    S659TMR_INTERFACE$TimeoutCallbackRegister	PTR FTN(PTR FTN()void ,)void  size(3) Largest target is 1
		 -> TMR0_OverflowCallbackRegister(), 

    S886$17$0	PTR FTN()void  size(3) Largest target is 0

    S886$18$0	PTR FTN()void  size(3) Largest target is 1
		 -> u3rxIsr(), 

    S886$20$0	PTR FTN()void  size(3) Largest target is 1
		 -> UART3_DefaultFramingErrorCallback(), 

    S886$21$0	PTR FTN()void  size(3) Largest target is 1
		 -> UART3_DefaultOverrunErrorCallback(), 

    S886$22$0	PTR FTN()void  size(3) Largest target is 1
		 -> UART3_DefaultParityErrorCallback(), 

    S886$AutoBaudEventEnableGet	PTR FTN()_Bool  size(3) Largest target is 1
		 -> NULL(), 

    S886$AutoBaudQuery	PTR FTN()_Bool  size(3) Largest target is 1
		 -> UART3_AutoBaudQuery(), 

    S886$AutoBaudSet	PTR FTN(_Bool ,)void  size(3) Largest target is 1
		 -> UART3_AutoBaudSet(), 

    S886$BaudRateGet	PTR FTN()unsigned long  size(3) Largest target is 1
		 -> NULL(), 

    S886$BaudRateSet	PTR FTN(unsigned long ,)void  size(3) Largest target is 1
		 -> NULL(), 

    S886$BRGCountGet	PTR FTN()unsigned long  size(3) Largest target is 1
		 -> NULL(), 

    S886$BRGCountSet	PTR FTN(unsigned long ,)void  size(3) Largest target is 1
		 -> NULL(), 

    S886$Deinitialize	PTR FTN()void  size(3) Largest target is 1
		 -> UART3_Deinitialize(), 

    S886$ErrorGet	PTR FTN()unsigned int  size(3) Largest target is 2
		 -> UART3_ErrorGet(), 

    S886$EventCallbackRegister	PTR FTN(PTR FTN()void ,)void  size(3) Largest target is 1
		 -> NULL(), 

    S886$FramingErrorCallbackRegister	PTR FTN(PTR FTN()void ,)void  size(3) Largest target is 1
		 -> UART3_FramingErrorCallbackRegister(), 

    S886$Initialize	PTR FTN()void  size(3) Largest target is 1
		 -> UART3_Initialize(), 

    S886$IsRxReady	PTR FTN()_Bool  size(3) Largest target is 1
		 -> UART3_IsRxReady(), 

    S886$IsTxDone	PTR FTN()_Bool  size(3) Largest target is 1
		 -> UART3_IsTxDone(), 

    S886$IsTxReady	PTR FTN()_Bool  size(3) Largest target is 1
		 -> UART3_IsTxReady(), 

    S886$OverrunErrorCallbackRegister	PTR FTN(PTR FTN()void ,)void  size(3) Largest target is 1
		 -> UART3_OverrunErrorCallbackRegister(), 

    S886$ParityErrorCallbackRegister	PTR FTN(PTR FTN()void ,)void  size(3) Largest target is 1
		 -> UART3_ParityErrorCallbackRegister(), 

    S886$Read	PTR FTN()unsigned char  size(3) Largest target is 1
		 -> UART3_Read(), 

    S886$RxCompleteCallbackRegister	PTR FTN(PTR FTN()void ,)void  size(3) Largest target is 1
		 -> UART3_RxCompleteCallbackRegister(), 

    S886$TransmitDisable	PTR FTN()void  size(3) Largest target is 1
		 -> UART3_TransmitDisable(), 

    S886$TransmitEnable	PTR FTN()void  size(3) Largest target is 1
		 -> UART3_TransmitEnable(), 

    S886$TxCollisionCallbackRegister	PTR FTN(PTR FTN()void ,)void  size(3) Largest target is 1
		 -> NULL(), 

    S886$TxCompleteCallbackRegister	PTR FTN(PTR FTN()void ,)void  size(3) Largest target is 1
		 -> UART3_TxCompleteCallbackRegister(), 

    S886$Write	PTR FTN(unsigned char ,)void  size(3) Largest target is 1
		 -> UART3_Write(), 

    Timer0$Initialize	PTR FTN()void  size(3) Largest target is 1
		 -> TMR0_Initialize(), 

    Timer0$PeriodCountSet	PTR FTN(unsigned int ,)void  size(3) Largest target is 1
		 -> TMR0_PeriodCountSet(), 

    Timer0$Start	PTR FTN()void  size(3) Largest target is 1
		 -> TMR0_Start(), 

    Timer0$Stop	PTR FTN()void  size(3) Largest target is 1
		 -> TMR0_Stop(), 

    Timer0$Tasks	PTR FTN()void  size(3) Largest target is 1
		 -> NULL(), 

    Timer0$TimeoutCallbackRegister	PTR FTN(PTR FTN()void ,)void  size(3) Largest target is 1
		 -> TMR0_OverflowCallbackRegister(), 

    TMR0_OverflowCallback	PTR FTN()void  size(3) Largest target is 1
		 -> TMR0_DefaultOverflowCallback(), tmr0Isr(), NULL(), 

    TMR0_OverflowCallbackRegister@CallbackHandler	PTR FTN()void  size(3) Largest target is 1
		 -> TMR0_DefaultOverflowCallback(), tmr0Isr(), 

    UART3$AutoBaudEventEnableGet	PTR FTN()_Bool  size(3) Largest target is 1
		 -> NULL(), 

    UART3$AutoBaudQuery	PTR FTN()_Bool  size(3) Largest target is 1
		 -> UART3_AutoBaudQuery(), 

    UART3$AutoBaudSet	PTR FTN(_Bool ,)void  size(3) Largest target is 1
		 -> UART3_AutoBaudSet(), 

    UART3$BaudRateGet	PTR FTN()unsigned long  size(3) Largest target is 1
		 -> NULL(), 

    UART3$BaudRateSet	PTR FTN(unsigned long ,)void  size(3) Largest target is 1
		 -> NULL(), 

    UART3$BRGCountGet	PTR FTN()unsigned long  size(3) Largest target is 1
		 -> NULL(), 

    UART3$BRGCountSet	PTR FTN(unsigned long ,)void  size(3) Largest target is 1
		 -> NULL(), 

    UART3$Deinitialize	PTR FTN()void  size(3) Largest target is 1
		 -> UART3_Deinitialize(), 

    UART3$ErrorGet	PTR FTN()unsigned int  size(3) Largest target is 2
		 -> UART3_ErrorGet(), 

    UART3$EventCallbackRegister	PTR FTN(PTR FTN()void ,)void  size(3) Largest target is 1
		 -> NULL(), 

    UART3$FramingErrorCallbackRegister	PTR FTN(PTR FTN()void ,)void  size(3) Largest target is 1
		 -> UART3_FramingErrorCallbackRegister(), 

    UART3$Initialize	PTR FTN()void  size(3) Largest target is 1
		 -> UART3_Initialize(), 

    UART3$IsRxReady	PTR FTN()_Bool  size(3) Largest target is 1
		 -> UART3_IsRxReady(), 

    UART3$IsTxDone	PTR FTN()_Bool  size(3) Largest target is 1
		 -> UART3_IsTxDone(), 

    UART3$IsTxReady	PTR FTN()_Bool  size(3) Largest target is 1
		 -> UART3_IsTxReady(), 

    UART3$OverrunErrorCallbackRegister	PTR FTN(PTR FTN()void ,)void  size(3) Largest target is 1
		 -> UART3_OverrunErrorCallbackRegister(), 

    UART3$ParityErrorCallbackRegister	PTR FTN(PTR FTN()void ,)void  size(3) Largest target is 1
		 -> UART3_ParityErrorCallbackRegister(), 

    UART3$Read	PTR FTN()unsigned char  size(3) Largest target is 1
		 -> UART3_Read(), 

    UART3$RxCompleteCallbackRegister	PTR FTN(PTR FTN()void ,)void  size(3) Largest target is 1
		 -> UART3_RxCompleteCallbackRegister(), 

    UART3$TransmitDisable	PTR FTN()void  size(3) Largest target is 1
		 -> UART3_TransmitDisable(), 

    UART3$TransmitEnable	PTR FTN()void  size(3) Largest target is 1
		 -> UART3_TransmitEnable(), 

    UART3$TxCollisionCallbackRegister	PTR FTN(PTR FTN()void ,)void  size(3) Largest target is 1
		 -> NULL(), 

    UART3$TxCompleteCallbackRegister	PTR FTN(PTR FTN()void ,)void  size(3) Largest target is 1
		 -> UART3_TxCompleteCallbackRegister(), 

    UART3$Write	PTR FTN(unsigned char ,)void  size(3) Largest target is 1
		 -> UART3_Write(), 

    UART3_FramingErrorCallbackRegister@callbackHandler	PTR FTN()void  size(3) Largest target is 1
		 -> UART3_DefaultFramingErrorCallback(), 

    UART3_FramingErrorHandler	PTR FTN()void  size(3) Largest target is 1
		 -> UART3_DefaultFramingErrorCallback(), NULL(), 

    UART3_OverrunErrorCallbackRegister@callbackHandler	PTR FTN()void  size(3) Largest target is 1
		 -> UART3_DefaultOverrunErrorCallback(), 

    UART3_OverrunErrorHandler	PTR FTN()void  size(3) Largest target is 1
		 -> UART3_DefaultOverrunErrorCallback(), NULL(), 

    UART3_ParityErrorCallbackRegister@callbackHandler	PTR FTN()void  size(3) Largest target is 1
		 -> UART3_DefaultParityErrorCallback(), 

    UART3_ParityErrorHandler	PTR FTN()void  size(3) Largest target is 1
		 -> UART3_DefaultParityErrorCallback(), NULL(), 

    UART3_RxCompleteCallbackRegister@callbackHandler	PTR FTN()void  size(3) Largest target is 1
		 -> u3rxIsr(), 

    UART3_RxCompleteInterruptHandler	PTR FTN()void  size(3) Largest target is 1
		 -> u3rxIsr(), NULL(), 

    UART3_RxInterruptHandler	PTR FTN()void  size(3) Largest target is 1
		 -> UART3_ReceiveISR(), NULL(), 

    UART3_TxCompleteInterruptHandler	PTR FTN()void  size(3) Largest target is 1
		 -> NULL(), 

    UART3_TxInterruptHandler	PTR FTN()void  size(3) Largest target is 1
		 -> UART3_TransmitISR(), NULL(), 


Critical Paths under _main in COMRAM

    _update_out->_UART3_Write
    _request_in->_eep_write
    _eep_write->_EEPROM_Write
    _dma1_wakeup->_DMA1_SourceAddressSet
    _eep_read->_EEPROM_Read
    _dma1_init->_DMA1_SourceAddressSet
    _SYSTEM_Initialize->_TMR0_Initialize
    _UART3_Initialize->_UART3_FramingErrorCallbackRegister
    _UART3_Initialize->_UART3_OverrunErrorCallbackRegister
    _UART3_Initialize->_UART3_ParityErrorCallbackRegister
    _TMR0_Initialize->_TMR0_OverflowCallbackRegister
    _INTERRUPT_Initialize->_INT0_SetInterruptHandler
    _INTERRUPT_Initialize->_INT1_SetInterruptHandler
    _INTERRUPT_Initialize->_INT2_SetInterruptHandler

Critical Paths under _Default_ISR in COMRAM

    None.

Critical Paths under _INT0_ISR in COMRAM

    None.

Critical Paths under _INT1_ISR in COMRAM

    None.

Critical Paths under _INT2_ISR in COMRAM

    None.

Critical Paths under _TMR0_OverflowISR in COMRAM

    None.

Critical Paths under _UART3_Receive_Vector_ISR in COMRAM

    _UART3_Receive_Vector_ISR->_UART3_ReceiveISR

Critical Paths under _UART3_Transmit_Vector_ISR in COMRAM

    _UART3_Transmit_Vector_ISR->_UART3_TransmitISR

Critical Paths under _main in BANK5

    None.

Critical Paths under _Default_ISR in BANK5

    None.

Critical Paths under _INT0_ISR in BANK5

    None.

Critical Paths under _INT1_ISR in BANK5

    None.

Critical Paths under _INT2_ISR in BANK5

    None.

Critical Paths under _TMR0_OverflowISR in BANK5

    None.

Critical Paths under _UART3_Receive_Vector_ISR in BANK5

    None.

Critical Paths under _UART3_Transmit_Vector_ISR in BANK5

    None.

Critical Paths under _main in BANK6

    None.

Critical Paths under _Default_ISR in BANK6

    None.

Critical Paths under _INT0_ISR in BANK6

    None.

Critical Paths under _INT1_ISR in BANK6

    None.

Critical Paths under _INT2_ISR in BANK6

    None.

Critical Paths under _TMR0_OverflowISR in BANK6

    None.

Critical Paths under _UART3_Receive_Vector_ISR in BANK6

    None.

Critical Paths under _UART3_Transmit_Vector_ISR in BANK6

    None.

Critical Paths under _main in BANK7

    None.

Critical Paths under _Default_ISR in BANK7

    None.

Critical Paths under _INT0_ISR in BANK7

    None.

Critical Paths under _INT1_ISR in BANK7

    None.

Critical Paths under _INT2_ISR in BANK7

    None.

Critical Paths under _TMR0_OverflowISR in BANK7

    None.

Critical Paths under _UART3_Receive_Vector_ISR in BANK7

    None.

Critical Paths under _UART3_Transmit_Vector_ISR in BANK7

    None.

Critical Paths under _main in BANK8

    None.

Critical Paths under _Default_ISR in BANK8

    None.

Critical Paths under _INT0_ISR in BANK8

    None.

Critical Paths under _INT1_ISR in BANK8

    None.

Critical Paths under _INT2_ISR in BANK8

    None.

Critical Paths under _TMR0_OverflowISR in BANK8

    None.

Critical Paths under _UART3_Receive_Vector_ISR in BANK8

    None.

Critical Paths under _UART3_Transmit_Vector_ISR in BANK8

    None.

Critical Paths under _main in BANK9

    None.

Critical Paths under _Default_ISR in BANK9

    None.

Critical Paths under _INT0_ISR in BANK9

    None.

Critical Paths under _INT1_ISR in BANK9

    None.

Critical Paths under _INT2_ISR in BANK9

    None.

Critical Paths under _TMR0_OverflowISR in BANK9

    None.

Critical Paths under _UART3_Receive_Vector_ISR in BANK9

    None.

Critical Paths under _UART3_Transmit_Vector_ISR in BANK9

    None.

Critical Paths under _main in BANK10

    None.

Critical Paths under _Default_ISR in BANK10

    None.

Critical Paths under _INT0_ISR in BANK10

    None.

Critical Paths under _INT1_ISR in BANK10

    None.

Critical Paths under _INT2_ISR in BANK10

    None.

Critical Paths under _TMR0_OverflowISR in BANK10

    None.

Critical Paths under _UART3_Receive_Vector_ISR in BANK10

    None.

Critical Paths under _UART3_Transmit_Vector_ISR in BANK10

    None.

Critical Paths under _main in BANK11

    None.

Critical Paths under _Default_ISR in BANK11

    None.

Critical Paths under _INT0_ISR in BANK11

    None.

Critical Paths under _INT1_ISR in BANK11

    None.

Critical Paths under _INT2_ISR in BANK11

    None.

Critical Paths under _TMR0_OverflowISR in BANK11

    None.

Critical Paths under _UART3_Receive_Vector_ISR in BANK11

    None.

Critical Paths under _UART3_Transmit_Vector_ISR in BANK11

    None.

Critical Paths under _main in BANK12

    None.

Critical Paths under _Default_ISR in BANK12

    None.

Critical Paths under _INT0_ISR in BANK12

    None.

Critical Paths under _INT1_ISR in BANK12

    None.

Critical Paths under _INT2_ISR in BANK12

    None.

Critical Paths under _TMR0_OverflowISR in BANK12

    None.

Critical Paths under _UART3_Receive_Vector_ISR in BANK12

    None.

Critical Paths under _UART3_Transmit_Vector_ISR in BANK12

    None.

Critical Paths under _main in BANK13

    None.

Critical Paths under _Default_ISR in BANK13

    None.

Critical Paths under _INT0_ISR in BANK13

    None.

Critical Paths under _INT1_ISR in BANK13

    None.

Critical Paths under _INT2_ISR in BANK13

    None.

Critical Paths under _TMR0_OverflowISR in BANK13

    None.

Critical Paths under _UART3_Receive_Vector_ISR in BANK13

    None.

Critical Paths under _UART3_Transmit_Vector_ISR in BANK13

    None.

Critical Paths under _main in BANK14

    None.

Critical Paths under _Default_ISR in BANK14

    None.

Critical Paths under _INT0_ISR in BANK14

    None.

Critical Paths under _INT1_ISR in BANK14

    None.

Critical Paths under _INT2_ISR in BANK14

    None.

Critical Paths under _TMR0_OverflowISR in BANK14

    None.

Critical Paths under _UART3_Receive_Vector_ISR in BANK14

    None.

Critical Paths under _UART3_Transmit_Vector_ISR in BANK14

    None.

Critical Paths under _main in BANK15

    None.

Critical Paths under _Default_ISR in BANK15

    None.

Critical Paths under _INT0_ISR in BANK15

    None.

Critical Paths under _INT1_ISR in BANK15

    None.

Critical Paths under _INT2_ISR in BANK15

    None.

Critical Paths under _TMR0_OverflowISR in BANK15

    None.

Critical Paths under _UART3_Receive_Vector_ISR in BANK15

    None.

Critical Paths under _UART3_Transmit_Vector_ISR in BANK15

    None.

Critical Paths under _main in BANK16

    None.

Critical Paths under _Default_ISR in BANK16

    None.

Critical Paths under _INT0_ISR in BANK16

    None.

Critical Paths under _INT1_ISR in BANK16

    None.

Critical Paths under _INT2_ISR in BANK16

    None.

Critical Paths under _TMR0_OverflowISR in BANK16

    None.

Critical Paths under _UART3_Receive_Vector_ISR in BANK16

    None.

Critical Paths under _UART3_Transmit_Vector_ISR in BANK16

    None.

Critical Paths under _main in BANK17

    None.

Critical Paths under _Default_ISR in BANK17

    None.

Critical Paths under _INT0_ISR in BANK17

    None.

Critical Paths under _INT1_ISR in BANK17

    None.

Critical Paths under _INT2_ISR in BANK17

    None.

Critical Paths under _TMR0_OverflowISR in BANK17

    None.

Critical Paths under _UART3_Receive_Vector_ISR in BANK17

    None.

Critical Paths under _UART3_Transmit_Vector_ISR in BANK17

    None.

Critical Paths under _main in BANK18

    None.

Critical Paths under _Default_ISR in BANK18

    None.

Critical Paths under _INT0_ISR in BANK18

    None.

Critical Paths under _INT1_ISR in BANK18

    None.

Critical Paths under _INT2_ISR in BANK18

    None.

Critical Paths under _TMR0_OverflowISR in BANK18

    None.

Critical Paths under _UART3_Receive_Vector_ISR in BANK18

    None.

Critical Paths under _UART3_Transmit_Vector_ISR in BANK18

    None.

Critical Paths under _main in BANK19

    None.

Critical Paths under _Default_ISR in BANK19

    None.

Critical Paths under _INT0_ISR in BANK19

    None.

Critical Paths under _INT1_ISR in BANK19

    None.

Critical Paths under _INT2_ISR in BANK19

    None.

Critical Paths under _TMR0_OverflowISR in BANK19

    None.

Critical Paths under _UART3_Receive_Vector_ISR in BANK19

    None.

Critical Paths under _UART3_Transmit_Vector_ISR in BANK19

    None.

Critical Paths under _main in BANK20

    None.

Critical Paths under _Default_ISR in BANK20

    None.

Critical Paths under _INT0_ISR in BANK20

    None.

Critical Paths under _INT1_ISR in BANK20

    None.

Critical Paths under _INT2_ISR in BANK20

    None.

Critical Paths under _TMR0_OverflowISR in BANK20

    None.

Critical Paths under _UART3_Receive_Vector_ISR in BANK20

    None.

Critical Paths under _UART3_Transmit_Vector_ISR in BANK20

    None.

Critical Paths under _main in BANK21

    None.

Critical Paths under _Default_ISR in BANK21

    None.

Critical Paths under _INT0_ISR in BANK21

    None.

Critical Paths under _INT1_ISR in BANK21

    None.

Critical Paths under _INT2_ISR in BANK21

    None.

Critical Paths under _TMR0_OverflowISR in BANK21

    None.

Critical Paths under _UART3_Receive_Vector_ISR in BANK21

    None.

Critical Paths under _UART3_Transmit_Vector_ISR in BANK21

    None.

Critical Paths under _main in BANK22

    None.

Critical Paths under _Default_ISR in BANK22

    None.

Critical Paths under _INT0_ISR in BANK22

    None.

Critical Paths under _INT1_ISR in BANK22

    None.

Critical Paths under _INT2_ISR in BANK22

    None.

Critical Paths under _TMR0_OverflowISR in BANK22

    None.

Critical Paths under _UART3_Receive_Vector_ISR in BANK22

    None.

Critical Paths under _UART3_Transmit_Vector_ISR in BANK22

    None.

Critical Paths under _main in BANK23

    None.

Critical Paths under _Default_ISR in BANK23

    None.

Critical Paths under _INT0_ISR in BANK23

    None.

Critical Paths under _INT1_ISR in BANK23

    None.

Critical Paths under _INT2_ISR in BANK23

    None.

Critical Paths under _TMR0_OverflowISR in BANK23

    None.

Critical Paths under _UART3_Receive_Vector_ISR in BANK23

    None.

Critical Paths under _UART3_Transmit_Vector_ISR in BANK23

    None.

Critical Paths under _main in BANK24

    None.

Critical Paths under _Default_ISR in BANK24

    None.

Critical Paths under _INT0_ISR in BANK24

    None.

Critical Paths under _INT1_ISR in BANK24

    None.

Critical Paths under _INT2_ISR in BANK24

    None.

Critical Paths under _TMR0_OverflowISR in BANK24

    None.

Critical Paths under _UART3_Receive_Vector_ISR in BANK24

    None.

Critical Paths under _UART3_Transmit_Vector_ISR in BANK24

    None.

Critical Paths under _main in BANK25

    None.

Critical Paths under _Default_ISR in BANK25

    None.

Critical Paths under _INT0_ISR in BANK25

    None.

Critical Paths under _INT1_ISR in BANK25

    None.

Critical Paths under _INT2_ISR in BANK25

    None.

Critical Paths under _TMR0_OverflowISR in BANK25

    None.

Critical Paths under _UART3_Receive_Vector_ISR in BANK25

    None.

Critical Paths under _UART3_Transmit_Vector_ISR in BANK25

    None.

Critical Paths under _main in BANK26

    None.

Critical Paths under _Default_ISR in BANK26

    None.

Critical Paths under _INT0_ISR in BANK26

    None.

Critical Paths under _INT1_ISR in BANK26

    None.

Critical Paths under _INT2_ISR in BANK26

    None.

Critical Paths under _TMR0_OverflowISR in BANK26

    None.

Critical Paths under _UART3_Receive_Vector_ISR in BANK26

    None.

Critical Paths under _UART3_Transmit_Vector_ISR in BANK26

    None.

Critical Paths under _main in BANK27

    None.

Critical Paths under _Default_ISR in BANK27

    None.

Critical Paths under _INT0_ISR in BANK27

    None.

Critical Paths under _INT1_ISR in BANK27

    None.

Critical Paths under _INT2_ISR in BANK27

    None.

Critical Paths under _TMR0_OverflowISR in BANK27

    None.

Critical Paths under _UART3_Receive_Vector_ISR in BANK27

    None.

Critical Paths under _UART3_Transmit_Vector_ISR in BANK27

    None.

Critical Paths under _main in BANK28

    None.

Critical Paths under _Default_ISR in BANK28

    None.

Critical Paths under _INT0_ISR in BANK28

    None.

Critical Paths under _INT1_ISR in BANK28

    None.

Critical Paths under _INT2_ISR in BANK28

    None.

Critical Paths under _TMR0_OverflowISR in BANK28

    None.

Critical Paths under _UART3_Receive_Vector_ISR in BANK28

    None.

Critical Paths under _UART3_Transmit_Vector_ISR in BANK28

    None.

Critical Paths under _main in BANK29

    None.

Critical Paths under _Default_ISR in BANK29

    None.

Critical Paths under _INT0_ISR in BANK29

    None.

Critical Paths under _INT1_ISR in BANK29

    None.

Critical Paths under _INT2_ISR in BANK29

    None.

Critical Paths under _TMR0_OverflowISR in BANK29

    None.

Critical Paths under _UART3_Receive_Vector_ISR in BANK29

    None.

Critical Paths under _UART3_Transmit_Vector_ISR in BANK29

    None.

Critical Paths under _main in BANK30

    None.

Critical Paths under _Default_ISR in BANK30

    None.

Critical Paths under _INT0_ISR in BANK30

    None.

Critical Paths under _INT1_ISR in BANK30

    None.

Critical Paths under _INT2_ISR in BANK30

    None.

Critical Paths under _TMR0_OverflowISR in BANK30

    None.

Critical Paths under _UART3_Receive_Vector_ISR in BANK30

    None.

Critical Paths under _UART3_Transmit_Vector_ISR in BANK30

    None.

Critical Paths under _main in BANK31

    None.

Critical Paths under _Default_ISR in BANK31

    None.

Critical Paths under _INT0_ISR in BANK31

    None.

Critical Paths under _INT1_ISR in BANK31

    None.

Critical Paths under _INT2_ISR in BANK31

    None.

Critical Paths under _TMR0_OverflowISR in BANK31

    None.

Critical Paths under _UART3_Receive_Vector_ISR in BANK31

    None.

Critical Paths under _UART3_Transmit_Vector_ISR in BANK31

    None.

Critical Paths under _main in BANK32

    None.

Critical Paths under _Default_ISR in BANK32

    None.

Critical Paths under _INT0_ISR in BANK32

    None.

Critical Paths under _INT1_ISR in BANK32

    None.

Critical Paths under _INT2_ISR in BANK32

    None.

Critical Paths under _TMR0_OverflowISR in BANK32

    None.

Critical Paths under _UART3_Receive_Vector_ISR in BANK32

    None.

Critical Paths under _UART3_Transmit_Vector_ISR in BANK32

    None.

Critical Paths under _main in BANK33

    None.

Critical Paths under _Default_ISR in BANK33

    None.

Critical Paths under _INT0_ISR in BANK33

    None.

Critical Paths under _INT1_ISR in BANK33

    None.

Critical Paths under _INT2_ISR in BANK33

    None.

Critical Paths under _TMR0_OverflowISR in BANK33

    None.

Critical Paths under _UART3_Receive_Vector_ISR in BANK33

    None.

Critical Paths under _UART3_Transmit_Vector_ISR in BANK33

    None.

Critical Paths under _main in BANK34

    None.

Critical Paths under _Default_ISR in BANK34

    None.

Critical Paths under _INT0_ISR in BANK34

    None.

Critical Paths under _INT1_ISR in BANK34

    None.

Critical Paths under _INT2_ISR in BANK34

    None.

Critical Paths under _TMR0_OverflowISR in BANK34

    None.

Critical Paths under _UART3_Receive_Vector_ISR in BANK34

    None.

Critical Paths under _UART3_Transmit_Vector_ISR in BANK34

    None.

Critical Paths under _main in BANK35

    None.

Critical Paths under _Default_ISR in BANK35

    None.

Critical Paths under _INT0_ISR in BANK35

    None.

Critical Paths under _INT1_ISR in BANK35

    None.

Critical Paths under _INT2_ISR in BANK35

    None.

Critical Paths under _TMR0_OverflowISR in BANK35

    None.

Critical Paths under _UART3_Receive_Vector_ISR in BANK35

    None.

Critical Paths under _UART3_Transmit_Vector_ISR in BANK35

    None.

Critical Paths under _main in BANK36

    None.

Critical Paths under _Default_ISR in BANK36

    None.

Critical Paths under _INT0_ISR in BANK36

    None.

Critical Paths under _INT1_ISR in BANK36

    None.

Critical Paths under _INT2_ISR in BANK36

    None.

Critical Paths under _TMR0_OverflowISR in BANK36

    None.

Critical Paths under _UART3_Receive_Vector_ISR in BANK36

    None.

Critical Paths under _UART3_Transmit_Vector_ISR in BANK36

    None.

Call Graph Tables:

 ---------------------------------------------------------------------------------
 (Depth) Function   	        Calls       Base Space   Used Autos Params    Refs
 ---------------------------------------------------------------------------------
 (0) _main                                                 1     1      0    2937
                                             25 COMRAM     1     1      0
           _INT0_SetInterruptHandler
                  _SYSTEM_Initialize
      _TMR0_OverflowCallbackRegister
   _UART3_RxCompleteCallbackRegister
                          _dma1_init
                           _eep_read
                         _request_in
                         _update_out
 ---------------------------------------------------------------------------------
 (1) _update_out                                           0     0      0      45
                        _UART3_Write
 ---------------------------------------------------------------------------------
 (2) _UART3_Write                                          2     2      0      45
                                             13 COMRAM     2     2      0
 ---------------------------------------------------------------------------------
 (1) _request_in                                           0     0      0     930
                        _dma1_wakeup
                          _eep_write
 ---------------------------------------------------------------------------------
 (2) _eep_write                                            7     6      1     582
                                             18 COMRAM     7     6      1
                       _EEPROM_Write
                         _NVM_IsBusy
                 _NVM_UnlockKeyClear
                   _NVM_UnlockKeySet
 ---------------------------------------------------------------------------------
 (3) _NVM_UnlockKeySet                                     2     0      2     121
                                             13 COMRAM     2     0      2
 ---------------------------------------------------------------------------------
 (3) _NVM_UnlockKeyClear                                   0     0      0       0
 ---------------------------------------------------------------------------------
 (3) _NVM_IsBusy                                           0     0      0       0
 ---------------------------------------------------------------------------------
 (3) _EEPROM_Write                                         5     1      4     265
                                             13 COMRAM     5     1      4
 ---------------------------------------------------------------------------------
 (2) _dma1_wakeup                                          0     0      0     348
                       _DMA1_Disable
                        _DMA1_Enable
              _DMA1_SourceAddressSet
                 _DMA1_SourceSizeSet
      _DMA1_TransferWithTriggerStart
 ---------------------------------------------------------------------------------
 (3) _DMA1_Disable                                         0     0      0       0
 ---------------------------------------------------------------------------------
 (1) _eep_read                                             7     7      0     189
                                             16 COMRAM     7     7      0
                        _EEPROM_Read
 ---------------------------------------------------------------------------------
 (2) _EEPROM_Read                                          3     0      3     144
                                             13 COMRAM     3     0      3
 ---------------------------------------------------------------------------------
 (1) _dma1_init                                            0     0      0     378
                _DMA1_DMAPrioritySet
                        _DMA1_Enable
              _DMA1_SourceAddressSet
                 _DMA1_SourceSizeSet
      _DMA1_TransferWithTriggerStart
 ---------------------------------------------------------------------------------
 (3) _DMA1_TransferWithTriggerStart                        0     0      0       0
 ---------------------------------------------------------------------------------
 (3) _DMA1_SourceSizeSet                                   2     0      2     174
                                             13 COMRAM     2     0      2
 ---------------------------------------------------------------------------------
 (3) _DMA1_SourceAddressSet                                3     0      3     174
                                             13 COMRAM     3     0      3
 ---------------------------------------------------------------------------------
 (3) _DMA1_Enable                                          0     0      0       0
 ---------------------------------------------------------------------------------
 (2) _DMA1_DMAPrioritySet                                  2     2      0      30
                                             13 COMRAM     2     2      0
 ---------------------------------------------------------------------------------
 (1) _UART3_RxCompleteCallbackRegister                     3     0      3     120
                                             13 COMRAM     3     0      3
 ---------------------------------------------------------------------------------
 (1) _SYSTEM_Initialize                                    0     0      0     927
                   _CLOCK_Initialize
                     _CPU_Initialize
                    _DMA1_Initialize
               _INTERRUPT_Initialize
                     _NVM_Initialize
             _PIN_MANAGER_Initialize
           _SystemArbiter_Initialize
                    _TMR0_Initialize
                   _UART3_Initialize
 ---------------------------------------------------------------------------------
 (2) _UART3_Initialize                                     0     0      0     360
 _UART3_FramingErrorCallbackRegister
 _UART3_OverrunErrorCallbackRegister
  _UART3_ParityErrorCallbackRegister
 ---------------------------------------------------------------------------------
 (3) _UART3_ParityErrorCallbackRegister                    3     0      3     120
                                             13 COMRAM     3     0      3
 ---------------------------------------------------------------------------------
 (3) _UART3_OverrunErrorCallbackRegister                   3     0      3     120
                                             13 COMRAM     3     0      3
 ---------------------------------------------------------------------------------
 (3) _UART3_FramingErrorCallbackRegister                   3     0      3     120
                                             13 COMRAM     3     0      3
 ---------------------------------------------------------------------------------
 (2) _TMR0_Initialize                                      2     2      0     174
                                             16 COMRAM     2     2      0
      _TMR0_OverflowCallbackRegister
 ---------------------------------------------------------------------------------
 (1) _TMR0_OverflowCallbackRegister                        3     0      3     174
                                             13 COMRAM     3     0      3
 ---------------------------------------------------------------------------------
 (2) _SystemArbiter_Initialize                             0     0      0       0
 ---------------------------------------------------------------------------------
 (2) _PIN_MANAGER_Initialize                               0     0      0       0
 ---------------------------------------------------------------------------------
 (2) _NVM_Initialize                                       0     0      0       0
                    _NVM_StatusClear
 ---------------------------------------------------------------------------------
 (3) _NVM_StatusClear                                      0     0      0       0
 ---------------------------------------------------------------------------------
 (2) _INTERRUPT_Initialize                                 1     1      0     393
                                             16 COMRAM     1     1      0
           _INT0_SetInterruptHandler
           _INT1_SetInterruptHandler
           _INT2_SetInterruptHandler
 ---------------------------------------------------------------------------------
 (3) _INT2_SetInterruptHandler                             3     0      3      98
                                             13 COMRAM     3     0      3
 ---------------------------------------------------------------------------------
 (3) _INT1_SetInterruptHandler                             3     0      3      98
                                             13 COMRAM     3     0      3
 ---------------------------------------------------------------------------------
 (3) _INT0_SetInterruptHandler                             3     0      3     174
                                             13 COMRAM     3     0      3
 ---------------------------------------------------------------------------------
 (2) _DMA1_Initialize                                      0     0      0       0
 ---------------------------------------------------------------------------------
 (2) _CPU_Initialize                                       0     0      0       0
 ---------------------------------------------------------------------------------
 (2) _CLOCK_Initialize                                     0     0      0       0
 ---------------------------------------------------------------------------------
 Estimated maximum stack depth 3
 ---------------------------------------------------------------------------------
 (Depth) Function   	        Calls       Base Space   Used Autos Params    Refs
 ---------------------------------------------------------------------------------
 (4) _Default_ISR                                          0     0      0       0
 ---------------------------------------------------------------------------------
 Estimated maximum stack depth 4
 ---------------------------------------------------------------------------------
 (Depth) Function   	        Calls       Base Space   Used Autos Params    Refs
 ---------------------------------------------------------------------------------
 (4) _INT0_ISR                                             2     2      0       0
                                              0 COMRAM     2     2      0
                      _INT0_CallBack
 ---------------------------------------------------------------------------------
 (5) _INT0_CallBack                                        0     0      0       0
                                NULL *
       _INT0_DefaultInterruptHandler *
                            _int0Isr *
 ---------------------------------------------------------------------------------
 (6) _int0Isr                                              0     0      0       0
 ---------------------------------------------------------------------------------
 (6) _INT0_DefaultInterruptHandler                         0     0      0       0
 ---------------------------------------------------------------------------------
 (6) NULL(Fake)                                            0     0      0       0
 ---------------------------------------------------------------------------------
 Estimated maximum stack depth 6
 ---------------------------------------------------------------------------------
 (Depth) Function   	        Calls       Base Space   Used Autos Params    Refs
 ---------------------------------------------------------------------------------
 (4) _INT1_ISR                                             2     2      0       0
                                              2 COMRAM     2     2      0
                      _INT1_CallBack
 ---------------------------------------------------------------------------------
 (5) _INT1_CallBack                                        0     0      0       0
                                NULL *
       _INT1_DefaultInterruptHandler *
 ---------------------------------------------------------------------------------
 (6) _INT1_DefaultInterruptHandler                         0     0      0       0
 ---------------------------------------------------------------------------------
 (6) NULL(Fake)                                            0     0      0       0
 ---------------------------------------------------------------------------------
 Estimated maximum stack depth 6
 ---------------------------------------------------------------------------------
 (Depth) Function   	        Calls       Base Space   Used Autos Params    Refs
 ---------------------------------------------------------------------------------
 (4) _INT2_ISR                                             2     2      0       0
                                              4 COMRAM     2     2      0
                      _INT2_CallBack
 ---------------------------------------------------------------------------------
 (5) _INT2_CallBack                                        0     0      0       0
                                NULL *
       _INT2_DefaultInterruptHandler *
 ---------------------------------------------------------------------------------
 (6) _INT2_DefaultInterruptHandler                         0     0      0       0
 ---------------------------------------------------------------------------------
 (6) NULL(Fake)                                            0     0      0       0
 ---------------------------------------------------------------------------------
 Estimated maximum stack depth 6
 ---------------------------------------------------------------------------------
 (Depth) Function   	        Calls       Base Space   Used Autos Params    Refs
 ---------------------------------------------------------------------------------
 (4) _TMR0_OverflowISR                                     2     2      0       0
                                              6 COMRAM     2     2      0
                                NULL *
       _TMR0_DefaultOverflowCallback *
                            _tmr0Isr *
 ---------------------------------------------------------------------------------
 (5) _tmr0Isr                                              0     0      0       0
 ---------------------------------------------------------------------------------
 (5) _TMR0_DefaultOverflowCallback                         0     0      0       0
 ---------------------------------------------------------------------------------
 (6) NULL(Fake)                                            0     0      0       0
 ---------------------------------------------------------------------------------
 Estimated maximum stack depth 6
 ---------------------------------------------------------------------------------
 (Depth) Function   	        Calls       Base Space   Used Autos Params    Refs
 ---------------------------------------------------------------------------------
 (4) _UART3_Receive_Vector_ISR                             2     2      0      68
                                             10 COMRAM     2     2      0
                   _UART3_ReceiveISR
 ---------------------------------------------------------------------------------
 (5) _UART3_ReceiveISR                                     2     2      0      68
                                              8 COMRAM     2     2      0
                                NULL *
  _UART3_DefaultFramingErrorCallback *
  _UART3_DefaultOverrunErrorCallback *
                            _u3rxIsr *
 ---------------------------------------------------------------------------------
 (6) _u3rxIsr                                              0     0      0       0
 ---------------------------------------------------------------------------------
 (6) _UART3_DefaultOverrunErrorCallback                    0     0      0       0
 ---------------------------------------------------------------------------------
 (6) _UART3_DefaultFramingErrorCallback                    0     0      0       0
 ---------------------------------------------------------------------------------
 (6) NULL(Fake)                                            0     0      0       0
 ---------------------------------------------------------------------------------
 Estimated maximum stack depth 6
 ---------------------------------------------------------------------------------
 (Depth) Function   	        Calls       Base Space   Used Autos Params    Refs
 ---------------------------------------------------------------------------------
 (4) _UART3_Transmit_Vector_ISR                            0     0      0      15
                  _UART3_TransmitISR
 ---------------------------------------------------------------------------------
 (5) _UART3_TransmitISR                                    1     1      0      15
                                             12 COMRAM     1     1      0
 ---------------------------------------------------------------------------------
 Estimated maximum stack depth 5
 ---------------------------------------------------------------------------------

 Call Graph Graphs:

 _main (ROOT)
   _INT0_SetInterruptHandler
   _SYSTEM_Initialize
     _CLOCK_Initialize
     _CPU_Initialize
     _DMA1_Initialize
     _INTERRUPT_Initialize
       _INT0_SetInterruptHandler
       _INT1_SetInterruptHandler
       _INT2_SetInterruptHandler
     _NVM_Initialize
       _NVM_StatusClear
     _PIN_MANAGER_Initialize
     _SystemArbiter_Initialize
     _TMR0_Initialize
       _TMR0_OverflowCallbackRegister
     _UART3_Initialize
       _UART3_FramingErrorCallbackRegister
       _UART3_OverrunErrorCallbackRegister
       _UART3_ParityErrorCallbackRegister
   _TMR0_OverflowCallbackRegister
   _UART3_RxCompleteCallbackRegister
   _dma1_init
     _DMA1_DMAPrioritySet
     _DMA1_Enable
     _DMA1_SourceAddressSet
     _DMA1_SourceSizeSet
     _DMA1_TransferWithTriggerStart
   _eep_read
     _EEPROM_Read
   _request_in
     _dma1_wakeup
       _DMA1_Disable
       _DMA1_Enable
       _DMA1_SourceAddressSet
       _DMA1_SourceSizeSet
       _DMA1_TransferWithTriggerStart
     _eep_write
       _EEPROM_Write
       _NVM_IsBusy
       _NVM_UnlockKeyClear
       _NVM_UnlockKeySet
   _update_out
     _UART3_Write

 _Default_ISR (ROOT)

 _INT0_ISR (ROOT)
   _INT0_CallBack
     NULL(Fake) *
     _INT0_DefaultInterruptHandler *
     _int0Isr *

 _INT1_ISR (ROOT)
   _INT1_CallBack
     NULL(Fake) *
     _INT1_DefaultInterruptHandler *

 _INT2_ISR (ROOT)
   _INT2_CallBack
     NULL(Fake) *
     _INT2_DefaultInterruptHandler *

 _TMR0_OverflowISR (ROOT)
   NULL(Fake) *
   _TMR0_DefaultOverflowCallback *
   _tmr0Isr *

 _UART3_Receive_Vector_ISR (ROOT)
   _UART3_ReceiveISR
     NULL(Fake) *
     _UART3_DefaultFramingErrorCallback *
     _UART3_DefaultOverrunErrorCallback *
     _u3rxIsr *

 _UART3_Transmit_Vector_ISR (ROOT)
   _UART3_TransmitISR

 Address spaces:
Name               Size   Autos  Total    Cost      Usage
BIGRAM            1FFF      0       0      69        0.0%
EEDATA             400      0       0       0        0.0%
BITBIGSFRhhlhhl    107      0       0      97        0.0%
BITBIGSFR_1        100      0       0      68        0.0%
BITBANK36          100      0       0      66        0.0%
BANK36             100      0       0      67        0.0%
BITBANK35          100      0       0      64        0.0%
BANK35             100      0       0      65        0.0%
BITBANK34          100      0       0      62        0.0%
BANK34             100      0       0      63        0.0%
BITBANK33          100      0       0      60        0.0%
BANK33             100      0       0      61        0.0%
BITBANK32          100      0       0      58        0.0%
BANK32             100      0       0      59        0.0%
BITBANK31          100      0       0      56        0.0%
BANK31             100      0       0      57        0.0%
BITBANK30          100      0       0      54        0.0%
BANK30             100      0       0      55        0.0%
BITBANK29          100      0       0      52        0.0%
BANK29             100      0       0      53        0.0%
BITBANK28          100      0       0      50        0.0%
BANK28             100      0       0      51        0.0%
BITBANK27          100      0       0      48        0.0%
BANK27             100      0       0      49        0.0%
BITBANK26          100      0       0      46        0.0%
BANK26             100      0       0      47        0.0%
BITBANK25          100      0       0      44        0.0%
BANK25             100      0       0      45        0.0%
BITBANK24          100      0       0      42        0.0%
BANK24             100      0       0      43        0.0%
BITBANK23          100      0       0      40        0.0%
BANK23             100      0       0      41        0.0%
BITBANK22          100      0       0      38        0.0%
BANK22             100      0       0      39        0.0%
BITBANK21          100      0       0      36        0.0%
BANK21             100      0       0      37        0.0%
BITBANK20          100      0       0      34        0.0%
BANK20             100      0       0      35        0.0%
BITBANK19          100      0       0      32        0.0%
BANK19             100      0       0      33        0.0%
BITBANK18          100      0       0      30        0.0%
BANK18             100      0       0      31        0.0%
BITBANK17          100      0       0      28        0.0%
BANK17             100      0       0      29        0.0%
BITBANK16          100      0       0      26        0.0%
BANK16             100      0       0      27        0.0%
BITBANK15          100      0       0      24        0.0%
BANK15             100      0       0      25        0.0%
BITBANK14          100      0       0      22        0.0%
BANK14             100      0       0      23        0.0%
BITBANK13          100      0       0      20        0.0%
BANK13             100      0       0      21        0.0%
BITBANK12          100      0       0      18        0.0%
BANK12             100      0       0      19        0.0%
BITBANK11          100      0       0      16        0.0%
BANK11             100      0       0      17        0.0%
BITBANK10          100      0       0      14        0.0%
BANK10             100      0       0      15        0.0%
BITBANK9           100      0       0      12        0.0%
BANK9              100      0       0      13        0.0%
BITBANK8           100      0       0      10        0.0%
BANK8              100      0       0      11        0.0%
BITBANK7           100      0       0       8        0.0%
BANK7              100      0       0       9        0.0%
BITBANK6           100      0       0       6        0.0%
BANK6              100      0       0       7        0.0%
BITBANK5            A0      0       0       4        0.0%
BANK5               A0      0       B       5        6.9%
BITBIGSFRhhhlll     94      0       0      83        0.0%
BITBIGSFRlllhh      65      0       0     103        0.0%
BITCOMRAM           5F      0       1       0        1.1%
COMRAM              5F     1A      5F       1      100.0%
BITBIGSFRhhhlll     47      0       0      86        0.0%
BITBIGSFRllll       40      0       0     104        0.0%
BITBIGSFRhhhllh     3F      0       0      79        0.0%
BITBIGSFRhhhlll     3E      0       0      87        0.0%
BITBIGSFRhhlhhh     3D      0       0      93        0.0%
BITBIGSFRhhlhhl     37      0       0      95        0.0%
BITBIGSFRhhlhhl     36      0       0      96        0.0%
BITBIGSFRhhhllh     31      0       0      81        0.0%
BITBIGSFRlhhh       28      0       0      99        0.0%
BITBIGSFRhhhhhl     1C      0       0      71        0.0%
BITBIGSFRhhlhhl      F      0       0      94        0.0%
BITBIGSFRhhhhlh      B      0       0      72        0.0%
BITBIGSFRhhhhhh      B      0       0      70        0.0%
BITBIGSFRhhhlhh      7      0       0      77        0.0%
BITBIGSFRhhhhll      5      0       0      74        0.0%
BITBIGSFRhhhlll      5      0       0      84        0.0%
BITBIGSFRhhhlhl      5      0       0      78        0.0%
BITBIGSFRhhhhll      3      0       0      75        0.0%
BITBIGSFRhhhllh      3      0       0      80        0.0%
BITBIGSFRhhhllh      3      0       0      82        0.0%
BITBIGSFRhhhhlh      3      0       0      73        0.0%
BITBIGSFRlhhl        2      0       0     100        0.0%
BITBIGSFRhhhhll      2      0       0      76        0.0%
BITBIGSFRhhhlll      1      0       0      88        0.0%
BITBIGSFRhhhlll      1      0       0      89        0.0%
BITBIGSFRhhhlll      1      0       0      90        0.0%
BITBIGSFRhhlhhh      1      0       0      92        0.0%
BITBIGSFRhhhlll      1      0       0      85        0.0%
BITBIGSFRllhhh       1      0       0     101        0.0%
BITBIGSFRllhl        1      0       0     102        0.0%
BITBIGSFRhhhlll      1      0       0      91        0.0%
BITBIGSFRhll         1      0       0      98        0.0%
BIGSFR_1             0      0       0     200        0.0%
BIGSFR               0      0       0     200        0.0%
BITSFR_6             0      0       0     200        0.0%
SFR_6                0      0       0     200        0.0%
BITSFR_5             0      0       0     200        0.0%
SFR_5                0      0       0     200        0.0%
BITSFR_4             0      0       0     200        0.0%
SFR_4                0      0       0     200        0.0%
BITSFR_3             0      0       0     200        0.0%
SFR_3                0      0       0     200        0.0%
BITSFR_2             0      0       0     200        0.0%
SFR_2                0      0       0     200        0.0%
BITSFR_1             0      0       0     200        0.0%
SFR_1                0      0       0     200        0.0%
BITSFR               0      0       0     200        0.0%
SFR                  0      0       0     200        0.0%
STACK                0      0       0       2        0.0%
NULL                 0      0       0       0        0.0%
ABS                  0      0      6A     105        0.0%
DATA                 0      0      6A       3        0.0%
CODE                 0      0       0       0        0.0%


Microchip Technology PIC18 Macro Assembler V2.45 build 20230818022343 
Symbol Table                                                                                   Sat May 18 16:22:04 2024

                            UART3_Write@tempTxHead 054C                                                 u50 2DA0  
                                               u65 2B3A                                                 u66 2B3C  
                                              l825 2882                                                l686 2AA0  
                                              _GIE 26B7                                                u650 28B2  
                                              u475 29F0                                                u476 29F2  
                                              u485 27FE                                                u486 2800  
                                              u680 290C                                                u665 28B4  
                                              u695 290E                         ??_INT0_SetInterruptHandler 054F  
                                              prod 04F3                                                tosl 04FD  
                                              wreg 04E8                                      _INT0_CallBack 2C12  
                                    _INT1_CallBack 2C34                                               l2124 29DE  
                                             l2242 295E                                               l2340 28A2  
                                             l2336 2892                                               l2380 2916  
                                             l1822 2A7C                                               l1982 2CA8  
                                             _LATA 04BE                                               _LATB 04BF  
                                             _LATC 04C0                                               _LATD 04C1  
                                             _LATE 04C2                                               _WPUA 0401  
                                             _WPUB 0409                                               _WPUC 0411  
                                             _WPUD 0419                                               _WPUE 0421  
                                    _INT2_CallBack 2C56                                     _UART3_IsTxDone 0000  
                          __end_of_NVM_StatusClear 2E46                                               _main 28BA  
                                             indf2 04DF                                               fsr2l 04D9  
                                   _UART3_ErrorGet 0000                                       _unlockKeyLow 0536  
                        ?_INT2_SetInterruptHandler 054C                                               prodl 04F3  
                                             start 0102                                       ___param_bank 0000  
                                 _TMR0_OverflowISR 29FC                               __end_of_EEPROM_Write 29FA  
                          __end_of_TMR0_Initialize 2A70                                   __end_of_INT0_ISR 2D3C  
                                 __end_of_INT1_ISR 2D54                                   __end_of_INT2_ISR 2D6C  
                                            ?_main 053F         __end_of_UART3_OverrunErrorCallbackRegister 2D0C  
             ??_UART3_OverrunErrorCallbackRegister 054F                ?_UART3_OverrunErrorCallbackRegister 054C  
               _UART3_OverrunErrorCallbackRegister 2CF4                                              _U3P1L 02CB  
                                            _U3P2L 02CD                                              _U3P3L 02CF  
                                            _IOCAF 0407                                              _IOCBF 040F  
                                            _IOCCF 0417                                              _IOCEF 0427  
                                            _IOCAN 0406                                              _IOCAP 0405  
                                            _IOCBN 040E                                              _IOCBP 040D  
                                            _IOCCN 0416                                              _IOCCP 0415  
                                            _IOCEN 0426                                              _IOCEP 0425  
                                  __end_of_u3rxIsr 2E3A                                              _U3UIR 02D7  
                                            _U3RXB 02C7                                              _U3TXB 02C9  
                                            i2l697 2BE8                                              _ISRPR 00BF  
                                            _OSCEN 00B3                                              _UART3 2501  
                                            _TMR0H 0319                                              _PRODH 04F4  
                                            _TMR0L 0318                                              _PRODL 04F3  
                                            _TRISA 04C6                                              _TRISB 04C7  
                                   ?_INT0_CallBack 053F                                              _TRISC 04C8  
                                            _TRISD 04C9                                              _TRISE 04CA  
                                      _Default_ISR 2E4C                                    _UART3_IsRxReady 0000  
                         __end_of_NVM_UnlockKeySet 2E02                                    __end_of_int0Isr 2E4A  
                                  _UART3_IsTxReady 0000                                     ?_INT1_CallBack 053F  
                  ??_DMA1_TransferWithTriggerStart 054C                     ??_INT1_DefaultInterruptHandler 0541  
                                  __end_of_tmr0Isr 2E34                                     ?_INT2_CallBack 053F  
                         _INT1_SetInterruptHandler 2DDC                                     __pbitbssCOMRAM 2AF8  
                                    _unlockKeyHigh 0535                                              pclath 04FA  
                                            pclatu 04FB                             _uart3TxBufferRemaining 053C  
                                            status 04D8                                        ?_NVM_IsBusy 053F  
                                 EEPROM_Write@data 054F                                    __initialization 2B3E  
                                     __end_of_main 2920                                       ?_UART3_Write 053F  
                                           ??_main 0558                                      __activetblptr 0003  
                       __end_of_NVM_UnlockKeyClear 2E0C    UART3_RxCompleteCallbackRegister@callbackHandler 054C  
 UART3_ParityErrorCallbackRegister@callbackHandler 054C  UART3_OverrunErrorCallbackRegister@callbackHandler 054C  
UART3_FramingErrorCallbackRegister@callbackHandler 054C                                             _ACTCON 00AC  
                                           _DMA1PR 00B6                                             _DMA2PR 00B7  
                                           _DMA3PR 00B8                                             _DMA4PR 00B9  
                                           _DMA5PR 00BA                                             _DMA6PR 00BB  
                                           _ANSELA 0400                                             _ANSELB 0408  
                                           _ANSELC 0410                                             _ANSELD 0418  
                                           _ANSELE 0420                                             _T0CON0 031A  
                                           _T0CON1 031B                                             _RB1I2C 0289  
                                           _RB2I2C 0288                                             _RC3I2C 0287  
                                           _RC4I2C 0286                                             _U3CON0 02D1  
                                           _U3CON1 02D2                                             _U3CON2 02D3  
                                           _U3BRGH 02D5                                             _U3FIFO 02D6  
                                           _U3BRGL 02D4                                             _MAINPR 00BE  
                                           _RA6PPS 0207                                             _ODCONA 0402  
                                           _ODCONB 040A                                             _ODCONC 0412  
                                           _ODCOND 041A                                             _ODCONE 0422  
                                           i2l2300 2634                                       _DMA1_Disable 2E0C  
                                           _INLVLA 0404                                             _INLVLB 040C  
                                           _INLVLC 0414                                             _INLVLD 041C  
                                           _INLVLE 0424                                             _SCANPR 00B5  
                                           _OSCFRQ 00B1                                             _TMR0IE 250F  
                                           _TMR0IF 258F                                             _PRLOCK 00B4  
         __end_of_UART3_RxCompleteCallbackRegister 2CDC                 ??_UART3_RxCompleteCallbackRegister 054F  
                ?_UART3_RxCompleteCallbackRegister 054C                   _UART3_RxCompleteCallbackRegister 2CC4  
                                 ?_NVM_StatusClear 053F                                   __end_of_eep_read 2AD8  
                                           _Timer0 2549                                          ??_u3rxIsr 0547  
                                 ?_TMR0_Initialize 053F                                             clear_0 2B44  
                                           clear_1 2B52                                             isa$std 0001  
                                        ??_int0Isr 053F                                    ??_INT0_CallBack 053F  
                             _UART3_TransmitEnable 0000                                  ?_CLOCK_Initialize 053F  
             __end_of_INT2_DefaultInterruptHandler 2E54                       _INT2_DefaultInterruptHandler 2E52  
                  DMA1_DMAPrioritySet@GIESaveState 054D                                    ??_INT1_CallBack 0541  
                               ??_CLOCK_Initialize 054C                                          ??_tmr0Isr 0545  
                                     __mediumconst 0000                                   _UART3_Initialize 271C  
                                  ??_INT2_CallBack 0543           INT2_SetInterruptHandler@InterruptHandler 054C  
         INT1_SetInterruptHandler@InterruptHandler 054C           INT0_SetInterruptHandler@InterruptHandler 054C  
                                 _UART3_ReceiveISR 2584                                     _CPU_Initialize 2AD8  
                                 ??_NVM_Initialize 054C                                  _SYSTEM_Initialize 2BEC  
                                       __accesstop 0560                            __end_of__initialization 2B66  
            __end_of_DMA1_TransferWithTriggerStart 2E28                      _DMA1_TransferWithTriggerStart 2E20  
                                        ?_INT0_ISR 053F                          ?_UART3_Receive_Vector_ISR 053F  
                                        ?_INT1_ISR 053F                                          ?_INT2_ISR 053F  
                               ?_SYSTEM_Initialize 053F                                      ___rparam_used 0001  
                                    __end_of_UART3 2549                                  ??_DMA1_Initialize 054C  
                                   __pcstackCOMRAM 053F                                ??_SYSTEM_Initialize 0551  
                                   ivt0x8_undefint 0100                           UART3_ReceiveISR@regValue 0547  
                 __end_of_INT2_SetInterruptHandler 2DDC                      ?_INT2_DefaultInterruptHandler 053F  
                           DMA1_SourceSizeSet@size 054C                             __end_of_CPU_Initialize 2B0C  
                         _UART3_TxInterruptHandler 055C                           __end_of_TMR0_OverflowISR 2A3A  
                        __end_of_SYSTEM_Initialize 2C12                                       _EEPROM_Write 29B8  
                                       __pbssBANK5 0560                              _DMA1_SourceAddressSet 2D82  
                         _SystemArbiter_Initialize 2DC0                              _INT0_InterruptHandler 052E  
                                       ??_INT0_ISR 053F                                         ??_INT1_ISR 0541  
                                       ??_INT2_ISR 0543                                         __pnvCOMRAM 0559  
                            _TMR0_OverflowCallback 0559                                         _data_reset 256F  
                                          IVTBASEH 045E                                            IVTBASEL 045D  
                                          IVTBASEU 045F                                            _DMAnDSA 00F0  
                                          _DMAnDSZ 00EE                                            _DMAnSSA 00F9  
                                          _DMAnSSZ 00F7                        UART3_TransmitISR@tempTxTail 054B  
                                          _U3ERRIE 02D9                                            _U3ERRIR 02D8  
                       ??_INT1_SetInterruptHandler 054F                                            _INT0PPS 023E  
                                     ?_Default_ISR 053F                                      ??_dma1_wakeup 054F  
                                     _DMAnCON0bits 00FC                                  __end_of_dma1_init 2B98  
                                          _U3RXPPS 0276                                            _OSCCON1 00AD  
                                          _OSCCON3 00AF                         UART3_ReceiveISR@tempRxHead 0548  
                                          _IVTLOCK 0459                                            i2u12_48 2C20  
                                          i2u14_48 2C42                                            i2u16_48 2C64  
                                          _NVMADRH 0044                                            _NVMADRL 0043  
                                ?_NVM_UnlockKeySet 054C                                            i2u52_48 25BE  
                                          i2u52_49 25D2                                            _NVMADRU 0045  
                                          _OSCTUNE 00B0                                            _NVMDATL 0046  
                                          i2u38_48 2A1C                                            i2u38_49 2A30  
                                        ?_eep_read 053F                                            i2u55_48 25F8  
                                          i2u55_49 260C                                            i2u58_48 2642  
                                  ?_CPU_Initialize 053F                                            _NVMLOCK 0042  
                                          _SLRCONA 0403                                            _SLRCONB 040B  
                                          _SLRCONC 0413                                            _SLRCOND 041B  
                                          _SLRCONE 0423                           _UART3_ParityErrorHandler 051F  
                               ??_NVM_UnlockKeySet 054E                                  _UART3_AutoBaudSet 0000  
                                     ??_NVM_IsBusy 054C                                      ??_DMA1_Enable 054C  
                        ?_INT0_SetInterruptHandler 054C                          INTERRUPT_Initialize@state 054F  
                                __end_of_eep_write 296E                                            __Hparam 0000  
                                          __Lparam 0000                     ?_DMA1_TransferWithTriggerStart 053F  
                                        _DMASELECT 00E8                                            _u3rxIsr 2E34  
                                     __psmallconst 2500                                            __pcinit 2B3E  
                                          __ramtop 2500                                _DMA1_DMAPrioritySet 2B0C  
                                          __ptext0 28BA                                            __ptext1 2C94  
                                          __ptext2 2A70                                            __ptext3 284A  
                                          __ptext4 2920                                            __ptext5 2DF8  
                                          __ptext6 2E02                                            __ptext7 2D96  
                                          __ptext8 29B8                                            __ptext9 2B98  
                                          _int0Isr 2E46                                 __end_of_NVM_IsBusy 2DA4  
                          _timerTMR0ReloadVal16bit 0533                                            _tmr0Isr 2E2E  
                         ??_PIN_MANAGER_Initialize 054C                                         ??_eep_read 054F  
                            _UART3_TransmitDisable 0000                             ?_DMA1_SourceAddressSet 054C  
                             end_of_initialization 2B66                                __end_of_dma1_wakeup 2BC2  
                         _INT2_SetInterruptHandler 2DCE                     ??_INT2_DefaultInterruptHandler 0543  
                                        _U3UIRbits 02D7                                          _PIR10bits 04B8  
                             ?_DMA1_DMAPrioritySet 053F                                      ??_EEPROM_Read 054F  
                               _NVM_UnlockKeyClear 2E02                           __end_of_UART3_Initialize 27C8  
                              ?_NVM_UnlockKeyClear 053F                                            postdec2 04DD  
                              __end_of_DMA1_Enable 2E20                                            postinc0 04EE  
                                          postinc2 04DE                                _uart3RxStatusBuffer 0501  
                                       _request_in 284A                           __end_of_UART3_ReceiveISR 2656  
                            _INT1_InterruptHandler 052B                                          _TMR0_Stop 0000  
                      DMA1_DMAPrioritySet@priority 054C              __end_of_TMR0_OverflowCallbackRegister 2DC0  
                    _TMR0_OverflowCallbackRegister 2DB2                   __end_of_UART3_Receive_Vector_ISR 2D82  
     TMR0_OverflowCallbackRegister@CallbackHandler 054C                               ??_NVM_UnlockKeyClear 054C  
                                       _update_out 2C94                                    _DMA1_Initialize 296E  
                            ??_DMA1_DMAPrioritySet 054C               __end_of_TMR0_DefaultOverflowCallback 2E56  
                     _TMR0_DefaultOverflowCallback 2E54                                __end_of_data_wakeup 256F  
                       ?_UART3_Transmit_Vector_ISR 053F                                _UART3_AutoBaudQuery 0000  
                        NVM_UnlockKeySet@unlockKey 054C                          _UART3_OverrunErrorHandler 0522  
                              __end_of_EEPROM_Read 2CC4                                     __end_of_Timer0 255B  
                     __end_of_INTERRUPT_Initialize 284A               __end_of_INT0_DefaultInterruptHandler 2E50  
                     _INT0_DefaultInterruptHandler 2E4E                   _UART3_TxCompleteCallbackRegister 0000  
                            __end_of_INT0_CallBack 2C34                                start_initialization 2B3E  
                                      _dma1_wakeup 2B98                         ??_SystemArbiter_Initialize 054C  
                            __end_of_INT1_CallBack 2C56                                  ?_TMR0_OverflowISR 053F  
                                       ivt0x8_base 0008                              __end_of_INT2_CallBack 2C78  
                               ??_TMR0_OverflowISR 0545                                        _DMA1_Enable 2E16  
                                    _uart3RxBuffer 0560                                      _uart3TxBuffer 0511  
                    ?_TMR0_DefaultOverflowCallback 053F                                 _UART3_Deinitialize 0000  
                __end_of_UART3_Transmit_Vector_ISR 2E42                   _UART3_RxCompleteInterruptHandler 0519  
                                      ?_request_in 053F                      ?_INT0_DefaultInterruptHandler 053F  
                                 ??_CPU_Initialize 054C                            __end_of_DMA1_Initialize 29B8  
                                      __pbssCOMRAM 0501                   __end_of_INT0_SetInterruptHandler 2DF8  
                                      ?_update_out 053F                     ?_TMR0_OverflowCallbackRegister 054C  
                                        _dma1_init 2B6C                           _UART3_Receive_Vector_ISR 2D6C  
                                      _data_wakeup 255B                         __end_of_DMA1_SourceSizeSet 2DB2  
                                _UART3_TransmitISR 2BC2                              _INT2_InterruptHandler 0528  
                                      _EEPROM_Read 2CAC                                          __pnvBANK5 0568  
                               ?_UART3_TransmitISR 053F                                          _data_recv 0537  
                           _PIN_MANAGER_Initialize 2656                       DMA1_SourceAddressSet@address 054C  
                                        _bit_state 2AF8                                          _eep_write 2920  
                              ??_UART3_TransmitISR 054B                                           ?_u3rxIsr 053F  
                                    ??_UART3_Write 054C                                           ?_int0Isr 053F  
                                ??_NVM_StatusClear 054C                                        __smallconst 2500  
                       ??_INT2_SetInterruptHandler 054F                            ??_DMA1_SourceAddressSet 054F  
                                         ?_tmr0Isr 053F                                          _count_out 0538  
                                       ?_dma1_init 053F                                           _DMAnDCNT 00EA  
                                         _DMAnCON0 00FC                                           _DMAnCON1 00FD  
                                         _DMAnAIRQ 00FE                          __end_of_UART3_TransmitISR 2BEC  
                                         _DMAnDPTR 00EC                                           _DMAnSCNT 00F2  
                             _INTERRUPT_Initialize 27C8                                      ?_DMA1_Disable 053F  
                                         _DMAnSIRQ 00FF                                           _DMAnSPTR 00F4  
                                 _CLOCK_Initialize 2C78                                  ??_TMR0_Initialize 054F  
                                         _INT0_ISR 2D24                                           _INT1_ISR 2D3C  
                                         _INT2_ISR 2D54                          ?_INT1_SetInterruptHandler 054C  
                                         _IPR1bits 0363                                           _IPR3bits 0365  
                                         _PIE1bits 049F                                           _PIE2bits 04A0  
                                         _PIE3bits 04A1                                        _U3ERRIRbits 02D8  
                                         _IPR9bits 036B                                           _PIE9bits 04A7  
                                         _IVTBASEH 045E                                           _IVTBASEL 045D  
                                         _IVTBASEU 045F                                           _PIR1bits 04AF  
                                         _PIR2bits 04B0                                           _PIR3bits 04B1  
                                         _PIR6bits 04B4                                  ?_UART3_Initialize 053F  
                                       ?_eep_write 0551                     ??_TMR0_DefaultOverflowCallback 0545  
                               ??_UART3_Initialize 054F                                  ?_UART3_ReceiveISR 053F  
                                 _uart3RxLastError 0531                                  UART3_Write@txData 054D  
        __end_of_UART3_DefaultFramingErrorCallback 2E5A                ??_UART3_DefaultFramingErrorCallback 0547  
               ?_UART3_DefaultFramingErrorCallback 053F                  _UART3_DefaultFramingErrorCallback 2E58  
                               ??_UART3_ReceiveISR 0547                   __end_of_SystemArbiter_Initialize 2DCE  
                               __end_of_data_reset 2582                                   ?_DMA1_Initialize 053F  
                   ??_INT0_DefaultInterruptHandler 053F                                __end_of_UART3_Write 2AA4  
                                      _INTCON0bits 04D6                                     ??_DMA1_Disable 054C  
                            ?_INTERRUPT_Initialize 053F                           _INT0_SetInterruptHandler 2DEA  
                                         __Hrparam 0000                        ??_UART3_Transmit_Vector_ISR 054C  
                                     _uart3RxCount 0539                                           __Lrparam 0000  
                              _TMR0_PeriodCountSet 0000                                       ?_dma1_wakeup 053F  
                                       _T0CON0bits 031A                                           _data_eep 0000  
                      __end_of_DMA1_DMAPrioritySet 2B3E                                           __pivt0x8 0008  
                                         _bit_flag 2AF9                                           _eep_read 2AA4  
                                         __ptext10 2E0C                                           __ptext11 2AA4  
                                         __ptext20 2BEC                                           __ptext12 2CAC  
                                         __ptext21 271C                                           __ptext13 2B6C  
                                         __ptext30 2E42                                           __ptext22 2CDC  
                                         __ptext14 2E20                                           __ptext31 27C8  
                                         __ptext23 2CF4                                           __ptext15 2DA4  
                                         __ptext40 2C12                                           __ptext32 2DCE  
                                         __ptext24 2D0C                                           __ptext16 2D82  
                                         __ptext41 2E4E                                           __ptext33 2DDC  
                                         __ptext25 2A3A                                           __ptext17 2E16  
                                         __ptext50 2E54                                           __ptext42 2E46  
                                         __ptext34 2DEA                                           __ptext26 2DB2  
                                         __ptext18 2B0C                                           __ptext51 2E2E  
                                         __ptext43 2D3C                                           __ptext35 296E  
                                         __ptext27 2DC0                                           __ptext19 2CC4  
                                         __ptext52 2D6C                                           __ptext44 2C34  
                                         __ptext36 2AD8                                           __ptext28 2656  
                                         __ptext53 2584                                           __ptext45 2E50  
                                         __ptext37 2C78                                           __ptext29 2E28  
                                         __ptext54 2E34                                           __ptext46 2D54  
                                         __ptext38 2E4C                                           __ptext55 2E56  
                                         __ptext47 2C56                                           __ptext39 2D24  
                                         __ptext56 2E58                                           __ptext48 2E52  
                                         __ptext57 2E3C                                           __ptext49 29FC  
                                         __ptext58 2BC2                                           __ptext59 0000  
                                      ??_dma1_init 054F                                      ?_EEPROM_Write 054C  
                                    eep_write@addr 0557                                      eep_write@data 0551  
                                       _U3CON0bits 02D1                                       eep_read@addr 0554  
                                     eep_read@data 0555                                       ?_DMA1_Enable 053F  
                                      _IVTLOCKbits 0459                                   _NVM_UnlockKeySet 2DF8  
                                   _NVM_Initialize 2E28                                           isa$xinst 0000  
                                      ??_eep_write 0552                                       ??_request_in 0558  
             __end_of_INT1_DefaultInterruptHandler 2E52                       _INT1_DefaultInterruptHandler 2E50  
                                      _UART3_Write 2A70                         ??_UART3_Receive_Vector_ISR 0549  
                                    ??_Default_ISR 053F          __end_of_UART3_DefaultOverrunErrorCallback 2E58  
              ??_UART3_DefaultOverrunErrorCallback 0547                 ?_UART3_DefaultOverrunErrorCallback 053F  
                _UART3_DefaultOverrunErrorCallback 2E56                          _UART3_Transmit_Vector_ISR 2E3C  
                                      _NVMCON0bits 0040                                        _NVMCON1bits 0041  
                                      _uart3RxHead 053B                                        _uart3TxHead 053E  
                                      _uart3RxTail 053A                                        _uart3TxTail 053D  
                                     ??_update_out 054E                             ??_INTERRUPT_Initialize 054F  
                                   ??_EEPROM_Write 0550          __end_of_UART3_ParityErrorCallbackRegister 2CF4  
              ??_UART3_ParityErrorCallbackRegister 054F                 ?_UART3_ParityErrorCallbackRegister 054C  
                _UART3_ParityErrorCallbackRegister 2CDC                                           intlevel2 0000  
                               __end_of_request_in 28BA                                       ?_EEPROM_Read 054C  
                          ?_PIN_MANAGER_Initialize 053F                             __end_of_NVM_Initialize 2E2E  
                        ?_SystemArbiter_Initialize 053F                                 EEPROM_Read@address 054C  
                                  _NVM_StatusClear 2E42                    ??_TMR0_OverflowCallbackRegister 054F  
                               _DMA1_SourceSizeSet 2DA4                                         _UART3_Read 0000  
                               __end_of_update_out 2CAC                               __end_of_DMA1_Disable 2E16  
                 _UART3_DefaultParityErrorCallback 0000                           __end_of_CLOCK_Initialize 2C94  
       __end_of_UART3_FramingErrorCallbackRegister 2D24               ??_UART3_FramingErrorCallbackRegister 054F  
              ?_UART3_FramingErrorCallbackRegister 054C                 _UART3_FramingErrorCallbackRegister 2D0C  
                              ?_DMA1_SourceSizeSet 054C                      ?_INT1_DefaultInterruptHandler 053F  
                                       _PRLOCKbits 00B4                                    _TMR0_Initialize 2A3A  
                 __end_of_INT1_SetInterruptHandler 2DEA                          _UART3_FramingErrorHandler 0525  
                    __end_of_DMA1_SourceAddressSet 2D96                                         _TMR0_Start 0000  
                 _UART3_TxCompleteInterruptHandler 051C                           _UART3_RxInterruptHandler 0568  
                              __end_of_Default_ISR 2E4E                EEPROM_Write@globalInterruptBitValue 0550  
                   __end_of_PIN_MANAGER_Initialize 271C                               ??_DMA1_SourceSizeSet 054E  
                                       _NVM_IsBusy 2D96                                    ?_NVM_Initialize 053F  
                              EEPROM_Write@address 054C  
